
HelloWorld.elf:     file format elf32-avr32

Sections:
Idx Name          Size      VMA       LMA       File off  Algn
  0 .reset        00002004  80000000  80000000  00000400  2**2
                  CONTENTS, ALLOC, LOAD, READONLY, CODE
  1 .rela.got     00000000  80002004  80002004  00002404  2**2
                  CONTENTS, ALLOC, LOAD, READONLY, DATA
  2 .text         0000b2c2  80002004  80002004  00002404  2**2
                  CONTENTS, ALLOC, LOAD, READONLY, CODE
  3 .exception    00000200  8000d400  8000d400  0000d800  2**9
                  CONTENTS, ALLOC, LOAD, READONLY, CODE
  4 .rodata       000008b8  8000d600  8000d600  0000da00  2**2
                  CONTENTS, ALLOC, LOAD, READONLY, DATA
  5 .data         000005d4  00000004  8000deb8  0000e404  2**2
                  CONTENTS, ALLOC, LOAD, DATA
  6 .bss          00000660  000005e0  8000e4a0  0000e9e0  2**5
                  ALLOC
  7 .comment      00000030  00000000  00000000  0000e9d8  2**0
                  CONTENTS, READONLY
  8 .debug_aranges 00001240  00000000  00000000  0000ea08  2**3
                  CONTENTS, READONLY, DEBUGGING
  9 .debug_pubnames 00002318  00000000  00000000  0000fc48  2**0
                  CONTENTS, READONLY, DEBUGGING
 10 .debug_info   00036dd6  00000000  00000000  00011f60  2**0
                  CONTENTS, READONLY, DEBUGGING
 11 .debug_abbrev 00007bab  00000000  00000000  00048d36  2**0
                  CONTENTS, READONLY, DEBUGGING
 12 .debug_line   00016deb  00000000  00000000  000508e1  2**0
                  CONTENTS, READONLY, DEBUGGING
 13 .debug_frame  00002bd0  00000000  00000000  000676cc  2**2
                  CONTENTS, READONLY, DEBUGGING
 14 .debug_str    00009178  00000000  00000000  0006a29c  2**0
                  CONTENTS, READONLY, DEBUGGING
 15 .debug_loc    0000f53c  00000000  00000000  00073414  2**0
                  CONTENTS, READONLY, DEBUGGING
 16 .debug_macinfo 013c8c54  00000000  00000000  00082950  2**0
                  CONTENTS, READONLY, DEBUGGING
 17 .stack        00001000  00007000  00007000  00000400  2**0
                  ALLOC
 18 .debug_ranges 000012c0  00000000  00000000  0144b5a8  2**3
                  CONTENTS, READONLY, DEBUGGING

Disassembly of section .reset:

80000000 <_trampoline>:
80000000:	e0 8f 10 00 	bral	80002000 <program_start>
	...

80002000 <program_start>:
80002000:	fe cf ec 40 	sub	pc,pc,-5056

Disassembly of section .text:

80002004 <flashc_set_wait_state>:
80002004:	fe 68 00 00 	mov	r8,-131072
80002008:	70 09       	ld.w	r9,r8[0x0]
8000200a:	f3 dc d0 c1 	bfins	r9,r12,0x6,0x1
8000200e:	91 09       	st.w	r8[0x0],r9
80002010:	5e fc       	retal	r12
80002012:	d7 03       	nop

80002014 <flashc_set_bus_freq>:
80002014:	d4 01       	pushm	lr
80002016:	e0 68 8a 3f 	mov	r8,35391
8000201a:	ea 18 01 f7 	orh	r8,0x1f7
8000201e:	10 3c       	cp.w	r12,r8
80002020:	e0 88 00 06 	brls	8000202c <flashc_set_bus_freq+0x18>
80002024:	30 1c       	mov	r12,1
80002026:	f0 1f 00 04 	mcall	80002034 <flashc_set_bus_freq+0x20>
8000202a:	d8 02       	popm	pc
8000202c:	30 0c       	mov	r12,0
8000202e:	f0 1f 00 02 	mcall	80002034 <flashc_set_bus_freq+0x20>
80002032:	d8 02       	popm	pc
80002034:	80 00       	ld.sh	r0,r0[0x0]
80002036:	20 04       	sub	r4,0

80002038 <gpio_configure_pin>:
80002038:	f8 08 16 05 	lsr	r8,r12,0x5
8000203c:	a9 78       	lsl	r8,0x9
8000203e:	e0 28 e0 00 	sub	r8,57344
80002042:	16 99       	mov	r9,r11
80002044:	e2 19 00 08 	andl	r9,0x8,COH
80002048:	c0 70       	breq	80002056 <gpio_configure_pin+0x1e>
8000204a:	30 19       	mov	r9,1
8000204c:	f2 0c 09 49 	lsl	r9,r9,r12
80002050:	f1 49 00 84 	st.w	r8[132],r9
80002054:	c0 68       	rjmp	80002060 <gpio_configure_pin+0x28>
80002056:	30 19       	mov	r9,1
80002058:	f2 0c 09 49 	lsl	r9,r9,r12
8000205c:	f1 49 00 88 	st.w	r8[136],r9
80002060:	16 99       	mov	r9,r11
80002062:	e2 19 00 04 	andl	r9,0x4,COH
80002066:	c0 70       	breq	80002074 <gpio_configure_pin+0x3c>
80002068:	30 19       	mov	r9,1
8000206a:	f2 0c 09 49 	lsl	r9,r9,r12
8000206e:	f1 49 00 74 	st.w	r8[116],r9
80002072:	c0 68       	rjmp	8000207e <gpio_configure_pin+0x46>
80002074:	30 19       	mov	r9,1
80002076:	f2 0c 09 49 	lsl	r9,r9,r12
8000207a:	f1 49 00 78 	st.w	r8[120],r9
8000207e:	16 99       	mov	r9,r11
80002080:	e2 19 00 40 	andl	r9,0x40,COH
80002084:	c0 70       	breq	80002092 <gpio_configure_pin+0x5a>
80002086:	30 19       	mov	r9,1
80002088:	f2 0c 09 49 	lsl	r9,r9,r12
8000208c:	f1 49 00 e4 	st.w	r8[228],r9
80002090:	c0 68       	rjmp	8000209c <gpio_configure_pin+0x64>
80002092:	30 19       	mov	r9,1
80002094:	f2 0c 09 49 	lsl	r9,r9,r12
80002098:	f1 49 00 e8 	st.w	r8[232],r9
8000209c:	16 99       	mov	r9,r11
8000209e:	e2 19 00 10 	andl	r9,0x10,COH
800020a2:	c0 70       	breq	800020b0 <gpio_configure_pin+0x78>
800020a4:	30 19       	mov	r9,1
800020a6:	f2 0c 09 49 	lsl	r9,r9,r12
800020aa:	f1 49 01 04 	st.w	r8[260],r9
800020ae:	c0 68       	rjmp	800020ba <gpio_configure_pin+0x82>
800020b0:	30 19       	mov	r9,1
800020b2:	f2 0c 09 49 	lsl	r9,r9,r12
800020b6:	f1 49 01 08 	st.w	r8[264],r9
800020ba:	16 99       	mov	r9,r11
800020bc:	e2 19 00 20 	andl	r9,0x20,COH
800020c0:	c0 70       	breq	800020ce <gpio_configure_pin+0x96>
800020c2:	30 19       	mov	r9,1
800020c4:	f2 0c 09 49 	lsl	r9,r9,r12
800020c8:	f1 49 01 14 	st.w	r8[276],r9
800020cc:	c0 68       	rjmp	800020d8 <gpio_configure_pin+0xa0>
800020ce:	30 19       	mov	r9,1
800020d0:	f2 0c 09 49 	lsl	r9,r9,r12
800020d4:	f1 49 01 18 	st.w	r8[280],r9
800020d8:	16 99       	mov	r9,r11
800020da:	e2 19 00 80 	andl	r9,0x80,COH
800020de:	c2 40       	breq	80002126 <gpio_configure_pin+0xee>
800020e0:	16 99       	mov	r9,r11
800020e2:	e2 19 01 80 	andl	r9,0x180,COH
800020e6:	c0 90       	breq	800020f8 <gpio_configure_pin+0xc0>
800020e8:	30 19       	mov	r9,1
800020ea:	f2 0c 09 49 	lsl	r9,r9,r12
800020ee:	f1 49 00 a8 	st.w	r8[168],r9
800020f2:	f1 49 00 b8 	st.w	r8[184],r9
800020f6:	c1 88       	rjmp	80002126 <gpio_configure_pin+0xee>
800020f8:	16 99       	mov	r9,r11
800020fa:	e2 19 02 80 	andl	r9,0x280,COH
800020fe:	c0 90       	breq	80002110 <gpio_configure_pin+0xd8>
80002100:	30 19       	mov	r9,1
80002102:	f2 0c 09 49 	lsl	r9,r9,r12
80002106:	f1 49 00 a4 	st.w	r8[164],r9
8000210a:	f1 49 00 b8 	st.w	r8[184],r9
8000210e:	c0 c8       	rjmp	80002126 <gpio_configure_pin+0xee>
80002110:	16 99       	mov	r9,r11
80002112:	e2 19 03 80 	andl	r9,0x380,COH
80002116:	c0 80       	breq	80002126 <gpio_configure_pin+0xee>
80002118:	30 19       	mov	r9,1
8000211a:	f2 0c 09 49 	lsl	r9,r9,r12
8000211e:	f1 49 00 a8 	st.w	r8[168],r9
80002122:	f1 49 00 b4 	st.w	r8[180],r9
80002126:	f3 db c0 01 	bfextu	r9,r11,0x0,0x1
8000212a:	c1 50       	breq	80002154 <gpio_configure_pin+0x11c>
8000212c:	e2 1b 00 02 	andl	r11,0x2,COH
80002130:	c0 70       	breq	8000213e <gpio_configure_pin+0x106>
80002132:	30 19       	mov	r9,1
80002134:	f2 0c 09 49 	lsl	r9,r9,r12
80002138:	f1 49 00 54 	st.w	r8[84],r9
8000213c:	c0 68       	rjmp	80002148 <gpio_configure_pin+0x110>
8000213e:	30 19       	mov	r9,1
80002140:	f2 0c 09 49 	lsl	r9,r9,r12
80002144:	f1 49 00 58 	st.w	r8[88],r9
80002148:	30 19       	mov	r9,1
8000214a:	f2 0c 09 49 	lsl	r9,r9,r12
8000214e:	f1 49 00 44 	st.w	r8[68],r9
80002152:	c0 68       	rjmp	8000215e <gpio_configure_pin+0x126>
80002154:	30 19       	mov	r9,1
80002156:	f2 0c 09 49 	lsl	r9,r9,r12
8000215a:	f1 49 00 48 	st.w	r8[72],r9
8000215e:	30 19       	mov	r9,1
80002160:	f2 0c 09 4c 	lsl	r12,r9,r12
80002164:	91 1c       	st.w	r8[0x4],r12
80002166:	5e fc       	retal	r12

80002168 <gpio_set_gpio_pin>:
80002168:	f8 08 16 05 	lsr	r8,r12,0x5
8000216c:	a9 78       	lsl	r8,0x9
8000216e:	e0 28 e0 00 	sub	r8,57344
80002172:	30 19       	mov	r9,1
80002174:	f2 0c 09 4c 	lsl	r12,r9,r12
80002178:	f1 4c 00 54 	st.w	r8[84],r12
8000217c:	f1 4c 00 44 	st.w	r8[68],r12
80002180:	91 1c       	st.w	r8[0x4],r12
80002182:	5e fc       	retal	r12

80002184 <gpio_clr_gpio_pin>:
80002184:	f8 08 16 05 	lsr	r8,r12,0x5
80002188:	a9 78       	lsl	r8,0x9
8000218a:	e0 28 e0 00 	sub	r8,57344
8000218e:	30 19       	mov	r9,1
80002190:	f2 0c 09 4c 	lsl	r12,r9,r12
80002194:	f1 4c 00 58 	st.w	r8[88],r12
80002198:	f1 4c 00 44 	st.w	r8[68],r12
8000219c:	91 1c       	st.w	r8[0x4],r12
8000219e:	5e fc       	retal	r12

800021a0 <udd_is_high_speed>:
800021a0:	5e fd       	retal	0

800021a2 <udd_set_address>:
800021a2:	fe 68 10 00 	mov	r8,-126976
800021a6:	70 09       	ld.w	r9,r8[0x0]
800021a8:	a7 d9       	cbr	r9,0x7
800021aa:	91 09       	st.w	r8[0x0],r9
800021ac:	70 09       	ld.w	r9,r8[0x0]
800021ae:	f9 dc c0 07 	bfextu	r12,r12,0x0,0x7
800021b2:	e0 19 ff 80 	andl	r9,0xff80
800021b6:	f9 e9 10 09 	or	r9,r12,r9
800021ba:	91 09       	st.w	r8[0x0],r9
800021bc:	70 09       	ld.w	r9,r8[0x0]
800021be:	a7 b9       	sbr	r9,0x7
800021c0:	91 09       	st.w	r8[0x0],r9
800021c2:	5e fc       	retal	r12

800021c4 <udd_getaddress>:
800021c4:	fe 68 10 00 	mov	r8,-126976
800021c8:	70 0c       	ld.w	r12,r8[0x0]
800021ca:	f9 dc c0 07 	bfextu	r12,r12,0x0,0x7
800021ce:	5e fc       	retal	r12

800021d0 <udd_get_frame_number>:
800021d0:	fe 68 10 20 	mov	r8,-126944
800021d4:	70 0c       	ld.w	r12,r8[0x0]
800021d6:	f9 dc c0 6b 	bfextu	r12,r12,0x3,0xb
800021da:	5e fc       	retal	r12

800021dc <udd_get_micro_frame_number>:
800021dc:	5e fd       	retal	0
800021de:	d7 03       	nop

800021e0 <udd_set_setup_payload>:
800021e0:	48 28       	lddpc	r8,800021e8 <udd_set_setup_payload+0x8>
800021e2:	91 2c       	st.w	r8[0x8],r12
800021e4:	b0 6b       	st.h	r8[0xc],r11
800021e6:	5e fc       	retal	r12
800021e8:	00 00       	add	r0,r0
800021ea:	0a c8       	st.b	r5++,r8

800021ec <udd_ep_is_halted>:
800021ec:	f1 dc c0 04 	bfextu	r8,r12,0x0,0x4
800021f0:	a3 68       	lsl	r8,0x2
800021f2:	e0 38 ee 40 	sub	r8,126528
800021f6:	70 0c       	ld.w	r12,r8[0x0]
800021f8:	f9 dc c2 61 	bfextu	r12,r12,0x13,0x1
800021fc:	5e fc       	retal	r12
800021fe:	d7 03       	nop

80002200 <udd_ep_clear_halt>:
80002200:	d4 01       	pushm	lr
80002202:	f9 dc c0 04 	bfextu	r12,r12,0x0,0x4
80002206:	30 38       	mov	r8,3
80002208:	f0 0c 18 00 	cp.b	r12,r8
8000220c:	e0 88 00 03 	brls	80002212 <udd_ep_clear_halt+0x12>
80002210:	d8 0a       	popm	pc,r12=0
80002212:	f8 08 15 02 	lsl	r8,r12,0x2
80002216:	fe 6a 11 c0 	mov	r10,-126528
8000221a:	f0 0a 00 09 	add	r9,r8,r10
8000221e:	72 09       	ld.w	r9,r9[0x0]
80002220:	e6 19 00 08 	andh	r9,0x8,COH
80002224:	c2 b0       	breq	8000227a <udd_ep_clear_halt+0x7a>
80002226:	fe 6a 12 20 	mov	r10,-126432
8000222a:	f0 0a 00 09 	add	r9,r8,r10
8000222e:	e8 6a 00 00 	mov	r10,524288
80002232:	93 0a       	st.w	r9[0x0],r10
80002234:	fe 6a 11 30 	mov	r10,-126672
80002238:	f0 0a 00 09 	add	r9,r8,r10
8000223c:	72 09       	ld.w	r9,r9[0x0]
8000223e:	e2 19 00 40 	andl	r9,0x40,COH
80002242:	c0 c0       	breq	8000225a <udd_ep_clear_halt+0x5a>
80002244:	fe 6a 11 60 	mov	r10,-126624
80002248:	f0 0a 00 09 	add	r9,r8,r10
8000224c:	34 0a       	mov	r10,64
8000224e:	93 0a       	st.w	r9[0x0],r10
80002250:	e0 38 ee 10 	sub	r8,126480
80002254:	e4 69 00 00 	mov	r9,262144
80002258:	91 09       	st.w	r8[0x0],r9
8000225a:	20 1c       	sub	r12,1
8000225c:	f8 0c 00 2c 	add	r12,r12,r12<<0x2
80002260:	48 78       	lddpc	r8,8000227c <udd_ep_clear_halt+0x7c>
80002262:	f0 0c 00 2c 	add	r12,r8,r12<<0x2
80002266:	78 08       	ld.w	r8,r12[0x0]
80002268:	58 08       	cp.w	r8,0
8000226a:	c0 84       	brge	8000227a <udd_ep_clear_halt+0x7a>
8000226c:	30 09       	mov	r9,0
8000226e:	f1 d9 d3 e1 	bfins	r8,r9,0x1f,0x1
80002272:	99 08       	st.w	r12[0x0],r8
80002274:	78 48       	ld.w	r8,r12[0x10]
80002276:	5d 18       	icall	r8
80002278:	da 0a       	popm	pc,r12=1
8000227a:	da 0a       	popm	pc,r12=1
8000227c:	00 00       	add	r0,r0
8000227e:	05 e4       	ld.ub	r4,r2[0x6]

80002280 <udd_ctrl_init>:
80002280:	30 19       	mov	r9,1
80002282:	fe 68 12 20 	mov	r8,-126432
80002286:	91 09       	st.w	r8[0x0],r9
80002288:	30 29       	mov	r9,2
8000228a:	fe 68 11 60 	mov	r8,-126624
8000228e:	91 09       	st.w	r8[0x0],r9
80002290:	48 49       	lddpc	r9,800022a0 <udd_ctrl_init+0x20>
80002292:	30 08       	mov	r8,0
80002294:	93 48       	st.w	r9[0x10],r8
80002296:	93 58       	st.w	r9[0x14],r8
80002298:	b2 68       	st.h	r9[0xc],r8
8000229a:	48 39       	lddpc	r9,800022a4 <udd_ctrl_init+0x24>
8000229c:	93 08       	st.w	r9[0x0],r8
8000229e:	5e fc       	retal	r12
800022a0:	00 00       	add	r0,r0
800022a2:	0a c8       	st.b	r5++,r8
800022a4:	00 00       	add	r0,r0
800022a6:	06 a4       	st.w	r3++,r4

800022a8 <udd_ctrl_stall_data>:
800022a8:	30 59       	mov	r9,5
800022aa:	48 58       	lddpc	r8,800022bc <udd_ctrl_stall_data+0x14>
800022ac:	91 09       	st.w	r8[0x0],r9
800022ae:	e8 69 00 00 	mov	r9,524288
800022b2:	fe 68 11 f0 	mov	r8,-126480
800022b6:	91 09       	st.w	r8[0x0],r9
800022b8:	5e fc       	retal	r12
800022ba:	00 00       	add	r0,r0
800022bc:	00 00       	add	r0,r0
800022be:	06 a4       	st.w	r3++,r4

800022c0 <udd_ctrl_endofrequest>:
800022c0:	d4 01       	pushm	lr
800022c2:	48 48       	lddpc	r8,800022d0 <udd_ctrl_endofrequest+0x10>
800022c4:	70 48       	ld.w	r8,r8[0x10]
800022c6:	58 08       	cp.w	r8,0
800022c8:	c0 20       	breq	800022cc <udd_ctrl_endofrequest+0xc>
800022ca:	5d 18       	icall	r8
800022cc:	d8 02       	popm	pc
800022ce:	00 00       	add	r0,r0
800022d0:	00 00       	add	r0,r0
800022d2:	0a c8       	st.b	r5++,r8

800022d4 <udd_ep_abort>:
800022d4:	d4 01       	pushm	lr
800022d6:	20 1d       	sub	sp,4
800022d8:	f5 dc c0 04 	bfextu	r10,r12,0x0,0x4
800022dc:	e1 b8 00 00 	mfsr	r8,0x0
800022e0:	50 08       	stdsp	sp[0x0],r8
800022e2:	d3 03       	ssrf	0x10
800022e4:	40 08       	lddsp	r8,sp[0x0]
800022e6:	e0 6b 10 00 	mov	r11,4096
800022ea:	f6 0a 09 4b 	lsl	r11,r11,r10
800022ee:	fe 69 10 00 	mov	r9,-126976
800022f2:	93 5b       	st.w	r9[0x14],r11
800022f4:	e6 18 00 01 	andh	r8,0x1,COH
800022f8:	c0 21       	brne	800022fc <udd_ep_abort+0x28>
800022fa:	d5 03       	csrf	0x10
800022fc:	f4 0b 15 02 	lsl	r11,r10,0x2
80002300:	fe 69 11 f0 	mov	r9,-126480
80002304:	f6 09 00 08 	add	r8,r11,r9
80002308:	fc 19 01 00 	movh	r9,0x100
8000230c:	91 09       	st.w	r8[0x0],r9
8000230e:	f4 c9 00 01 	sub	r9,r10,1
80002312:	f2 09 00 29 	add	r9,r9,r9<<0x2
80002316:	48 d8       	lddpc	r8,80002348 <udd_ep_abort+0x74>
80002318:	f0 09 00 29 	add	r9,r8,r9<<0x2
8000231c:	72 08       	ld.w	r8,r9[0x0]
8000231e:	58 08       	cp.w	r8,0
80002320:	c1 24       	brge	80002344 <udd_ep_abort+0x70>
80002322:	30 0c       	mov	r12,0
80002324:	f1 dc d3 e1 	bfins	r8,r12,0x1f,0x1
80002328:	93 08       	st.w	r9[0x0],r8
8000232a:	72 48       	ld.w	r8,r9[0x10]
8000232c:	58 08       	cp.w	r8,0
8000232e:	c0 b0       	breq	80002344 <udd_ep_abort+0x70>
80002330:	e0 3b ef 00 	sub	r11,126720
80002334:	76 0b       	ld.w	r11,r11[0x0]
80002336:	e2 1b 01 00 	andl	r11,0x100,COH
8000233a:	c0 20       	breq	8000233e <udd_ep_abort+0x6a>
8000233c:	a7 ba       	sbr	r10,0x7
8000233e:	72 3b       	ld.w	r11,r9[0xc]
80002340:	30 1c       	mov	r12,1
80002342:	5d 18       	icall	r8
80002344:	2f fd       	sub	sp,-4
80002346:	d8 02       	popm	pc
80002348:	00 00       	add	r0,r0
8000234a:	05 e4       	ld.ub	r4,r2[0x6]

8000234c <udd_ep_set_halt>:
8000234c:	d4 01       	pushm	lr
8000234e:	f1 dc c0 04 	bfextu	r8,r12,0x0,0x4
80002352:	30 39       	mov	r9,3
80002354:	f2 08 18 00 	cp.b	r8,r9
80002358:	e0 88 00 03 	brls	8000235e <udd_ep_set_halt+0x12>
8000235c:	d8 0a       	popm	pc,r12=0
8000235e:	a3 68       	lsl	r8,0x2
80002360:	e0 38 ee 10 	sub	r8,126480
80002364:	e8 69 00 00 	mov	r9,524288
80002368:	91 09       	st.w	r8[0x0],r9
8000236a:	f0 1f 00 02 	mcall	80002370 <udd_ep_set_halt+0x24>
8000236e:	da 0a       	popm	pc,r12=1
80002370:	80 00       	ld.sh	r0,r0[0x0]
80002372:	22 d4       	sub	r4,45

80002374 <udd_ep_free>:
80002374:	eb cd 40 80 	pushm	r7,lr
80002378:	18 97       	mov	r7,r12
8000237a:	f0 1f 00 07 	mcall	80002394 <udd_ep_free+0x20>
8000237e:	fe 68 10 00 	mov	r8,-126976
80002382:	70 79       	ld.w	r9,r8[0x1c]
80002384:	30 1a       	mov	r10,1
80002386:	f4 07 09 47 	lsl	r7,r10,r7
8000238a:	5c d7       	com	r7
8000238c:	12 67       	and	r7,r9
8000238e:	91 77       	st.w	r8[0x1c],r7
80002390:	e3 cd 80 80 	ldm	sp++,r7,pc
80002394:	80 00       	ld.sh	r0,r0[0x0]
80002396:	22 d4       	sub	r4,45

80002398 <udd_sleep_mode>:
80002398:	20 1d       	sub	sp,4
8000239a:	58 0c       	cp.w	r12,0
8000239c:	c1 d1       	brne	800023d6 <udd_sleep_mode+0x3e>
8000239e:	49 e8       	lddpc	r8,80002414 <udd_sleep_mode+0x7c>
800023a0:	11 89       	ld.ub	r9,r8[0x0]
800023a2:	30 08       	mov	r8,0
800023a4:	f0 09 18 00 	cp.b	r9,r8
800023a8:	c3 20       	breq	8000240c <udd_sleep_mode+0x74>
800023aa:	49 c8       	lddpc	r8,80002418 <udd_sleep_mode+0x80>
800023ac:	11 99       	ld.ub	r9,r8[0x1]
800023ae:	30 08       	mov	r8,0
800023b0:	f0 09 18 00 	cp.b	r9,r8
800023b4:	c0 21       	brne	800023b8 <udd_sleep_mode+0x20>
800023b6:	c0 08       	rjmp	800023b6 <udd_sleep_mode+0x1e>
800023b8:	e1 b8 00 00 	mfsr	r8,0x0
800023bc:	50 08       	stdsp	sp[0x0],r8
800023be:	d3 03       	ssrf	0x10
800023c0:	40 09       	lddsp	r9,sp[0x0]
800023c2:	49 68       	lddpc	r8,80002418 <udd_sleep_mode+0x80>
800023c4:	11 9a       	ld.ub	r10,r8[0x1]
800023c6:	20 1a       	sub	r10,1
800023c8:	b0 9a       	st.b	r8[0x1],r10
800023ca:	12 98       	mov	r8,r9
800023cc:	e6 18 00 01 	andh	r8,0x1,COH
800023d0:	c0 21       	brne	800023d4 <udd_sleep_mode+0x3c>
800023d2:	d5 03       	csrf	0x10
800023d4:	c1 c8       	rjmp	8000240c <udd_sleep_mode+0x74>
800023d6:	49 08       	lddpc	r8,80002414 <udd_sleep_mode+0x7c>
800023d8:	11 89       	ld.ub	r9,r8[0x0]
800023da:	30 08       	mov	r8,0
800023dc:	f0 09 18 00 	cp.b	r9,r8
800023e0:	c1 61       	brne	8000240c <udd_sleep_mode+0x74>
800023e2:	48 e8       	lddpc	r8,80002418 <udd_sleep_mode+0x80>
800023e4:	11 99       	ld.ub	r9,r8[0x1]
800023e6:	3f f8       	mov	r8,-1
800023e8:	f0 09 18 00 	cp.b	r9,r8
800023ec:	c0 21       	brne	800023f0 <udd_sleep_mode+0x58>
800023ee:	c0 08       	rjmp	800023ee <udd_sleep_mode+0x56>
800023f0:	e1 b8 00 00 	mfsr	r8,0x0
800023f4:	50 08       	stdsp	sp[0x0],r8
800023f6:	d3 03       	ssrf	0x10
800023f8:	40 09       	lddsp	r9,sp[0x0]
800023fa:	48 88       	lddpc	r8,80002418 <udd_sleep_mode+0x80>
800023fc:	11 9a       	ld.ub	r10,r8[0x1]
800023fe:	2f fa       	sub	r10,-1
80002400:	b0 9a       	st.b	r8[0x1],r10
80002402:	12 98       	mov	r8,r9
80002404:	e6 18 00 01 	andh	r8,0x1,COH
80002408:	c0 21       	brne	8000240c <udd_sleep_mode+0x74>
8000240a:	d5 03       	csrf	0x10
8000240c:	48 28       	lddpc	r8,80002414 <udd_sleep_mode+0x7c>
8000240e:	b0 8c       	st.b	r8[0x0],r12
80002410:	2f fd       	sub	sp,-4
80002412:	5e fc       	retal	r12
80002414:	00 00       	add	r0,r0
80002416:	06 a0       	st.w	r3++,r0
80002418:	00 00       	add	r0,r0
8000241a:	0b 20       	ld.uh	r0,r5++

8000241c <udd_detach>:
8000241c:	d4 01       	pushm	lr
8000241e:	fe 68 18 00 	mov	r8,-124928
80002422:	70 09       	ld.w	r9,r8[0x0]
80002424:	af c9       	cbr	r9,0xe
80002426:	91 09       	st.w	r8[0x0],r9
80002428:	fe 69 10 00 	mov	r9,-126976
8000242c:	72 0a       	ld.w	r10,r9[0x0]
8000242e:	a9 aa       	sbr	r10,0x8
80002430:	93 0a       	st.w	r9[0x0],r10
80002432:	70 09       	ld.w	r9,r8[0x0]
80002434:	af a9       	sbr	r9,0xe
80002436:	91 09       	st.w	r8[0x0],r9
80002438:	30 0c       	mov	r12,0
8000243a:	f0 1f 00 02 	mcall	80002440 <udd_detach+0x24>
8000243e:	d8 02       	popm	pc
80002440:	80 00       	ld.sh	r0,r0[0x0]
80002442:	23 98       	sub	r8,57

80002444 <udd_attach>:
80002444:	eb cd 40 80 	pushm	r7,lr
80002448:	20 1d       	sub	sp,4
8000244a:	e1 b8 00 00 	mfsr	r8,0x0
8000244e:	50 08       	stdsp	sp[0x0],r8
80002450:	d3 03       	ssrf	0x10
80002452:	40 07       	lddsp	r7,sp[0x0]
80002454:	30 1c       	mov	r12,1
80002456:	f0 1f 00 19 	mcall	800024b8 <udd_attach+0x74>
8000245a:	fe 68 18 00 	mov	r8,-124928
8000245e:	70 09       	ld.w	r9,r8[0x0]
80002460:	af c9       	cbr	r9,0xe
80002462:	91 09       	st.w	r8[0x0],r9
80002464:	fe 68 18 04 	mov	r8,-124924
80002468:	70 09       	ld.w	r9,r8[0x0]
8000246a:	e2 19 40 00 	andl	r9,0x4000,COH
8000246e:	cf d0       	breq	80002468 <udd_attach+0x24>
80002470:	fe 68 10 00 	mov	r8,-126976
80002474:	70 09       	ld.w	r9,r8[0x0]
80002476:	a9 c9       	cbr	r9,0x8
80002478:	91 09       	st.w	r8[0x0],r9
8000247a:	fe 68 10 18 	mov	r8,-126952
8000247e:	30 8c       	mov	r12,8
80002480:	91 0c       	st.w	r8[0x0],r12
80002482:	30 1a       	mov	r10,1
80002484:	91 0a       	st.w	r8[0x0],r10
80002486:	31 09       	mov	r9,16
80002488:	91 09       	st.w	r8[0x0],r9
8000248a:	30 4b       	mov	r11,4
8000248c:	91 0b       	st.w	r8[0x0],r11
8000248e:	fe 68 10 08 	mov	r8,-126968
80002492:	91 0c       	st.w	r8[0x0],r12
80002494:	91 0b       	st.w	r8[0x0],r11
80002496:	fe 6b 10 0c 	mov	r11,-126964
8000249a:	97 0a       	st.w	r11[0x0],r10
8000249c:	91 09       	st.w	r8[0x0],r9
8000249e:	fe 68 18 00 	mov	r8,-124928
800024a2:	70 09       	ld.w	r9,r8[0x0]
800024a4:	af a9       	sbr	r9,0xe
800024a6:	91 09       	st.w	r8[0x0],r9
800024a8:	e6 17 00 01 	andh	r7,0x1,COH
800024ac:	c0 21       	brne	800024b0 <udd_attach+0x6c>
800024ae:	d5 03       	csrf	0x10
800024b0:	2f fd       	sub	sp,-4
800024b2:	e3 cd 80 80 	ldm	sp++,r7,pc
800024b6:	00 00       	add	r0,r0
800024b8:	80 00       	ld.sh	r0,r0[0x0]
800024ba:	23 98       	sub	r8,57

800024bc <udd_ctrl_send_zlp_in>:
800024bc:	20 1d       	sub	sp,4
800024be:	30 39       	mov	r9,3
800024c0:	48 f8       	lddpc	r8,800024fc <udd_ctrl_send_zlp_in+0x40>
800024c2:	91 09       	st.w	r8[0x0],r9
800024c4:	48 f8       	lddpc	r8,80002500 <udd_ctrl_send_zlp_in+0x44>
800024c6:	70 19       	ld.w	r9,r8[0x4]
800024c8:	30 0a       	mov	r10,0
800024ca:	f3 da d0 0f 	bfins	r9,r10,0x0,0xf
800024ce:	91 19       	st.w	r8[0x4],r9
800024d0:	e1 b8 00 00 	mfsr	r8,0x0
800024d4:	50 08       	stdsp	sp[0x0],r8
800024d6:	d3 03       	ssrf	0x10
800024d8:	40 0b       	lddsp	r11,sp[0x0]
800024da:	fe 6a 11 60 	mov	r10,-126624
800024de:	30 19       	mov	r9,1
800024e0:	95 09       	st.w	r10[0x0],r9
800024e2:	fe 68 11 f0 	mov	r8,-126480
800024e6:	91 09       	st.w	r8[0x0],r9
800024e8:	30 89       	mov	r9,8
800024ea:	95 09       	st.w	r10[0x0],r9
800024ec:	91 09       	st.w	r8[0x0],r9
800024ee:	16 98       	mov	r8,r11
800024f0:	e6 18 00 01 	andh	r8,0x1,COH
800024f4:	c0 21       	brne	800024f8 <udd_ctrl_send_zlp_in+0x3c>
800024f6:	d5 03       	csrf	0x10
800024f8:	2f fd       	sub	sp,-4
800024fa:	5e fc       	retal	r12
800024fc:	00 00       	add	r0,r0
800024fe:	06 a4       	st.w	r3++,r4
80002500:	00 00       	add	r0,r0
80002502:	06 20       	rsub	r0,r3

80002504 <udd_ep_trans_done>:
80002504:	d4 31       	pushm	r0-r7,lr
80002506:	20 2d       	sub	sp,8
80002508:	18 96       	mov	r6,r12
8000250a:	f1 dc c0 04 	bfextu	r8,r12,0x0,0x4
8000250e:	f0 00 15 02 	lsl	r0,r8,0x2
80002512:	fe 6c 11 00 	mov	r12,-126720
80002516:	e0 0c 00 09 	add	r9,r0,r12
8000251a:	72 01       	ld.w	r1,r9[0x0]
8000251c:	f0 c5 00 01 	sub	r5,r8,1
80002520:	ea 05 00 27 	add	r7,r5,r5<<0x2
80002524:	fe f9 02 dc 	ld.w	r9,pc[732]
80002528:	f2 07 00 27 	add	r7,r9,r7<<0x2
8000252c:	e1 b9 00 00 	mfsr	r9,0x0
80002530:	50 19       	stdsp	sp[0x4],r9
80002532:	d3 03       	ssrf	0x10
80002534:	40 19       	lddsp	r9,sp[0x4]
80002536:	e0 64 10 00 	mov	r4,4096
8000253a:	e8 08 09 44 	lsl	r4,r4,r8
8000253e:	fe 6a 10 00 	mov	r10,-126976
80002542:	95 54       	st.w	r10[0x14],r4
80002544:	e6 19 00 01 	andh	r9,0x1,COH
80002548:	c0 21       	brne	8000254c <udd_ep_trans_done+0x48>
8000254a:	d5 03       	csrf	0x10
8000254c:	6e 09       	ld.w	r9,r7[0x0]
8000254e:	58 09       	cp.w	r9,0
80002550:	e0 84 01 55 	brge	800027fa <udd_ep_trans_done+0x2f6>
80002554:	e3 d1 c0 83 	bfextu	r1,r1,0x4,0x3
80002558:	30 89       	mov	r9,8
8000255a:	f2 01 09 41 	lsl	r1,r9,r1
8000255e:	5c 81       	casts.h	r1
80002560:	30 09       	mov	r9,0
80002562:	f2 06 18 00 	cp.b	r6,r9
80002566:	e0 84 00 96 	brge	80002692 <udd_ep_trans_done+0x18e>
8000256a:	f0 0a 15 01 	lsl	r10,r8,0x1
8000256e:	a3 78       	lsl	r8,0x3
80002570:	2f f8       	sub	r8,-1
80002572:	fe f9 02 92 	ld.w	r9,pc[658]
80002576:	f2 08 03 29 	ld.w	r9,r9[r8<<0x2]
8000257a:	f3 d9 c2 0f 	bfextu	r9,r9,0x10,0xf
8000257e:	fe 68 11 f0 	mov	r8,-126480
80002582:	e0 08 00 0b 	add	r11,r0,r8
80002586:	fc 18 01 00 	movh	r8,0x100
8000258a:	97 08       	st.w	r11[0x0],r8
8000258c:	fe 6c 11 60 	mov	r12,-126624
80002590:	e0 0c 00 08 	add	r8,r0,r12
80002594:	30 1c       	mov	r12,1
80002596:	91 0c       	st.w	r8[0x0],r12
80002598:	58 09       	cp.w	r9,0
8000259a:	c1 21       	brne	800025be <udd_ep_trans_done+0xba>
8000259c:	fe 6c 11 30 	mov	r12,-126672
800025a0:	e0 0c 00 08 	add	r8,r0,r12
800025a4:	70 08       	ld.w	r8,r8[0x0]
800025a6:	f1 d8 c1 82 	bfextu	r8,r8,0xc,0x2
800025aa:	c0 a1       	brne	800025be <udd_ep_trans_done+0xba>
800025ac:	f4 09 15 02 	lsl	r9,r10,0x2
800025b0:	2f f9       	sub	r9,-1
800025b2:	fe f8 02 52 	ld.w	r8,pc[594]
800025b6:	f0 09 03 29 	ld.w	r9,r8[r9<<0x2]
800025ba:	f3 d9 c0 0f 	bfextu	r9,r9,0x0,0xf
800025be:	6e 38       	ld.w	r8,r7[0xc]
800025c0:	10 09       	add	r9,r8
800025c2:	8f 39       	st.w	r7[0xc],r9
800025c4:	6e 28       	ld.w	r8,r7[0x8]
800025c6:	10 39       	cp.w	r9,r8
800025c8:	c0 61       	brne	800025d4 <udd_ep_trans_done+0xd0>
800025ca:	6e 0c       	ld.w	r12,r7[0x0]
800025cc:	e6 1c 40 00 	andh	r12,0x4000,COH
800025d0:	e0 80 01 09 	breq	800027e2 <udd_ep_trans_done+0x2de>
800025d4:	f0 09 01 09 	sub	r9,r8,r9
800025d8:	f9 d9 b0 10 	bfexts	r12,r9,0x0,0x10
800025dc:	30 08       	mov	r8,0
800025de:	f0 0c 19 00 	cp.h	r12,r8
800025e2:	c1 84       	brge	80002612 <udd_ep_trans_done+0x10e>
800025e4:	f3 d1 c0 10 	bfextu	r9,r1,0x0,0x10
800025e8:	e0 68 7f ff 	mov	r8,32767
800025ec:	f0 09 0c 08 	divs	r8,r8,r9
800025f0:	e0 6c 7f ff 	mov	r12,32767
800025f4:	12 1c       	sub	r12,r9
800025f6:	5c 8c       	casts.h	r12
800025f8:	fe f8 02 0c 	ld.w	r8,pc[524]
800025fc:	f4 09 15 02 	lsl	r9,r10,0x2
80002600:	2f f9       	sub	r9,-1
80002602:	f0 09 03 26 	ld.w	r6,r8[r9<<0x2]
80002606:	30 05       	mov	r5,0
80002608:	ed d5 d3 e1 	bfins	r6,r5,0x1f,0x1
8000260c:	f0 09 09 26 	st.w	r8[r9<<0x2],r6
80002610:	c1 28       	rjmp	80002634 <udd_ep_trans_done+0x130>
80002612:	6e 08       	ld.w	r8,r7[0x0]
80002614:	e7 d8 c3 c1 	bfextu	r3,r8,0x1e,0x1
80002618:	4f b9       	lddpc	r9,80002804 <udd_ep_trans_done+0x300>
8000261a:	f4 06 15 02 	lsl	r6,r10,0x2
8000261e:	2f f6       	sub	r6,-1
80002620:	f2 06 03 25 	ld.w	r5,r9[r6<<0x2]
80002624:	eb d3 d3 e1 	bfins	r5,r3,0x1f,0x1
80002628:	f2 06 09 25 	st.w	r9[r6<<0x2],r5
8000262c:	30 09       	mov	r9,0
8000262e:	f1 d9 d3 c1 	bfins	r8,r9,0x1e,0x1
80002632:	8f 08       	st.w	r7[0x0],r8
80002634:	4f 48       	lddpc	r8,80002804 <udd_ep_trans_done+0x300>
80002636:	f4 09 15 02 	lsl	r9,r10,0x2
8000263a:	2f f9       	sub	r9,-1
8000263c:	f0 09 03 26 	ld.w	r6,r8[r9<<0x2]
80002640:	ed dc d0 0f 	bfins	r6,r12,0x0,0xf
80002644:	f0 09 09 26 	st.w	r8[r9<<0x2],r6
80002648:	f0 09 03 2c 	ld.w	r12,r8[r9<<0x2]
8000264c:	30 06       	mov	r6,0
8000264e:	f9 d6 d2 0f 	bfins	r12,r6,0x10,0xf
80002652:	f0 09 09 2c 	st.w	r8[r9<<0x2],r12
80002656:	6e 1c       	ld.w	r12,r7[0x4]
80002658:	6e 39       	ld.w	r9,r7[0xc]
8000265a:	f8 09 00 09 	add	r9,r12,r9
8000265e:	a5 6a       	lsl	r10,0x4
80002660:	14 08       	add	r8,r10
80002662:	91 09       	st.w	r8[0x0],r9
80002664:	e0 30 ed e0 	sub	r0,126432
80002668:	e0 68 40 00 	mov	r8,16384
8000266c:	81 08       	st.w	r0[0x0],r8
8000266e:	fc 18 01 00 	movh	r8,0x100
80002672:	81 08       	st.w	r0[0x0],r8
80002674:	e1 b8 00 00 	mfsr	r8,0x0
80002678:	50 18       	stdsp	sp[0x4],r8
8000267a:	d3 03       	ssrf	0x10
8000267c:	40 18       	lddsp	r8,sp[0x4]
8000267e:	30 19       	mov	r9,1
80002680:	97 09       	st.w	r11[0x0],r9
80002682:	fe 69 10 00 	mov	r9,-126976
80002686:	93 64       	st.w	r9[0x18],r4
80002688:	e6 18 00 01 	andh	r8,0x1,COH
8000268c:	c0 21       	brne	80002690 <udd_ep_trans_done+0x18c>
8000268e:	d5 03       	csrf	0x10
80002690:	cb 58       	rjmp	800027fa <udd_ep_trans_done+0x2f6>
80002692:	f0 02 15 01 	lsl	r2,r8,0x1
80002696:	a3 78       	lsl	r8,0x3
80002698:	2f f8       	sub	r8,-1
8000269a:	4d b9       	lddpc	r9,80002804 <udd_ep_trans_done+0x300>
8000269c:	f2 08 03 23 	ld.w	r3,r9[r8<<0x2]
800026a0:	e7 d3 c0 0f 	bfextu	r3,r3,0x0,0xf
800026a4:	fe 6a 11 f0 	mov	r10,-126480
800026a8:	e0 0a 00 0a 	add	r10,r0,r10
800026ac:	50 0a       	stdsp	sp[0x0],r10
800026ae:	fc 18 01 00 	movh	r8,0x100
800026b2:	95 08       	st.w	r10[0x0],r8
800026b4:	fe 69 11 60 	mov	r9,-126624
800026b8:	e0 09 00 08 	add	r8,r0,r9
800026bc:	30 29       	mov	r9,2
800026be:	91 09       	st.w	r8[0x0],r9
800026c0:	e0 30 ed e0 	sub	r0,126432
800026c4:	e0 68 40 00 	mov	r8,16384
800026c8:	81 08       	st.w	r0[0x0],r8
800026ca:	6e 08       	ld.w	r8,r7[0x0]
800026cc:	e6 18 20 00 	andh	r8,0x2000,COH
800026d0:	c1 00       	breq	800026f0 <udd_ep_trans_done+0x1ec>
800026d2:	6e 1c       	ld.w	r12,r7[0x4]
800026d4:	6e 39       	ld.w	r9,r7[0xc]
800026d6:	f7 d1 c0 10 	bfextu	r11,r1,0x0,0x10
800026da:	6e 28       	ld.w	r8,r7[0x8]
800026dc:	f0 0b 0d 0a 	divu	r10,r8,r11
800026e0:	ea 08 15 06 	lsl	r8,r5,0x6
800026e4:	16 9a       	mov	r10,r11
800026e6:	4c 9b       	lddpc	r11,80002808 <udd_ep_trans_done+0x304>
800026e8:	10 0b       	add	r11,r8
800026ea:	12 0c       	add	r12,r9
800026ec:	f0 1f 00 48 	mcall	8000280c <udd_ep_trans_done+0x308>
800026f0:	6e 38       	ld.w	r8,r7[0xc]
800026f2:	e6 08 00 08 	add	r8,r3,r8
800026f6:	8f 38       	st.w	r7[0xc],r8
800026f8:	6e 29       	ld.w	r9,r7[0x8]
800026fa:	12 38       	cp.w	r8,r9
800026fc:	ef f9 ba 03 	st.whi	r7[0xc],r9
80002700:	e4 09 15 02 	lsl	r9,r2,0x2
80002704:	2f f9       	sub	r9,-1
80002706:	4c 08       	lddpc	r8,80002804 <udd_ep_trans_done+0x300>
80002708:	f0 09 03 28 	ld.w	r8,r8[r9<<0x2]
8000270c:	f1 d8 c2 0f 	bfextu	r8,r8,0x10,0xf
80002710:	e6 08 19 00 	cp.h	r8,r3
80002714:	c6 71       	brne	800027e2 <udd_ep_trans_done+0x2de>
80002716:	6e 38       	ld.w	r8,r7[0xc]
80002718:	6e 29       	ld.w	r9,r7[0x8]
8000271a:	12 38       	cp.w	r8,r9
8000271c:	c6 30       	breq	800027e2 <udd_ep_trans_done+0x2de>
8000271e:	f2 08 01 08 	sub	r8,r9,r8
80002722:	5c 88       	casts.h	r8
80002724:	30 09       	mov	r9,0
80002726:	f2 08 19 00 	cp.h	r8,r9
8000272a:	c0 c4       	brge	80002742 <udd_ep_trans_done+0x23e>
8000272c:	f3 d1 c0 10 	bfextu	r9,r1,0x0,0x10
80002730:	e0 68 7f ff 	mov	r8,32767
80002734:	f0 09 0c 08 	divs	r8,r8,r9
80002738:	e0 68 7f ff 	mov	r8,32767
8000273c:	12 18       	sub	r8,r9
8000273e:	5c 88       	casts.h	r8
80002740:	c0 98       	rjmp	80002752 <udd_ep_trans_done+0x24e>
80002742:	f3 d8 c0 10 	bfextu	r9,r8,0x0,0x10
80002746:	f7 d1 c0 10 	bfextu	r11,r1,0x0,0x10
8000274a:	f2 0b 0d 0a 	divu	r10,r9,r11
8000274e:	16 18       	sub	r8,r11
80002750:	5c 88       	casts.h	r8
80002752:	4a d9       	lddpc	r9,80002804 <udd_ep_trans_done+0x300>
80002754:	e4 0a 15 02 	lsl	r10,r2,0x2
80002758:	2f fa       	sub	r10,-1
8000275a:	f2 0a 03 2b 	ld.w	r11,r9[r10<<0x2]
8000275e:	30 0c       	mov	r12,0
80002760:	f7 dc d0 0f 	bfins	r11,r12,0x0,0xf
80002764:	f2 0a 09 2b 	st.w	r9[r10<<0x2],r11
80002768:	e2 08 19 00 	cp.h	r8,r1
8000276c:	c1 72       	brcc	8000279a <udd_ep_trans_done+0x296>
8000276e:	6e 08       	ld.w	r8,r7[0x0]
80002770:	30 19       	mov	r9,1
80002772:	f1 d9 d3 a1 	bfins	r8,r9,0x1d,0x1
80002776:	8f 08       	st.w	r7[0x0],r8
80002778:	a7 65       	lsl	r5,0x6
8000277a:	4a 48       	lddpc	r8,80002808 <udd_ep_trans_done+0x304>
8000277c:	10 05       	add	r5,r8
8000277e:	4a 28       	lddpc	r8,80002804 <udd_ep_trans_done+0x300>
80002780:	e4 09 15 04 	lsl	r9,r2,0x4
80002784:	f0 09 00 09 	add	r9,r8,r9
80002788:	93 05       	st.w	r9[0x0],r5
8000278a:	14 92       	mov	r2,r10
8000278c:	f0 0a 03 29 	ld.w	r9,r8[r10<<0x2]
80002790:	f3 d1 d2 0f 	bfins	r9,r1,0x10,0xf
80002794:	f0 0a 09 29 	st.w	r8[r10<<0x2],r9
80002798:	c1 28       	rjmp	800027bc <udd_ep_trans_done+0x2b8>
8000279a:	6e 1b       	ld.w	r11,r7[0x4]
8000279c:	6e 39       	ld.w	r9,r7[0xc]
8000279e:	12 0b       	add	r11,r9
800027a0:	49 99       	lddpc	r9,80002804 <udd_ep_trans_done+0x300>
800027a2:	e4 0a 15 04 	lsl	r10,r2,0x4
800027a6:	f2 0a 00 0a 	add	r10,r9,r10
800027aa:	95 0b       	st.w	r10[0x0],r11
800027ac:	a3 62       	lsl	r2,0x2
800027ae:	2f f2       	sub	r2,-1
800027b0:	f2 02 03 2a 	ld.w	r10,r9[r2<<0x2]
800027b4:	f5 d8 d2 0f 	bfins	r10,r8,0x10,0xf
800027b8:	f2 02 09 2a 	st.w	r9[r2<<0x2],r10
800027bc:	fc 18 01 00 	movh	r8,0x100
800027c0:	81 08       	st.w	r0[0x0],r8
800027c2:	e1 b8 00 00 	mfsr	r8,0x0
800027c6:	50 18       	stdsp	sp[0x4],r8
800027c8:	d3 03       	ssrf	0x10
800027ca:	40 18       	lddsp	r8,sp[0x4]
800027cc:	30 29       	mov	r9,2
800027ce:	40 0c       	lddsp	r12,sp[0x0]
800027d0:	99 09       	st.w	r12[0x0],r9
800027d2:	fe 69 10 00 	mov	r9,-126976
800027d6:	93 64       	st.w	r9[0x18],r4
800027d8:	e6 18 00 01 	andh	r8,0x1,COH
800027dc:	c0 21       	brne	800027e0 <udd_ep_trans_done+0x2dc>
800027de:	d5 03       	csrf	0x10
800027e0:	c0 d8       	rjmp	800027fa <udd_ep_trans_done+0x2f6>
800027e2:	6e 08       	ld.w	r8,r7[0x0]
800027e4:	30 09       	mov	r9,0
800027e6:	f1 d9 d3 e1 	bfins	r8,r9,0x1f,0x1
800027ea:	8f 08       	st.w	r7[0x0],r8
800027ec:	6e 48       	ld.w	r8,r7[0x10]
800027ee:	58 08       	cp.w	r8,0
800027f0:	c0 50       	breq	800027fa <udd_ep_trans_done+0x2f6>
800027f2:	0c 9a       	mov	r10,r6
800027f4:	6e 3b       	ld.w	r11,r7[0xc]
800027f6:	12 9c       	mov	r12,r9
800027f8:	5d 18       	icall	r8
800027fa:	2f ed       	sub	sp,-8
800027fc:	d8 32       	popm	r0-r7,pc
800027fe:	00 00       	add	r0,r0
80002800:	00 00       	add	r0,r0
80002802:	05 e4       	ld.ub	r4,r2[0x6]
80002804:	00 00       	add	r0,r0
80002806:	06 20       	rsub	r0,r3
80002808:	00 00       	add	r0,r0
8000280a:	0a 08       	add	r8,r5
8000280c:	80 00       	ld.sh	r0,r0[0x0]
8000280e:	44 00       	lddsp	r0,sp[0x100]

80002810 <udd_ep_run>:
80002810:	eb cd 40 f8 	pushm	r3-r7,lr
80002814:	20 1d       	sub	sp,4
80002816:	fd dc c0 04 	bfextu	lr,r12,0x0,0x4
8000281a:	30 37       	mov	r7,3
8000281c:	ee 0e 18 00 	cp.b	lr,r7
80002820:	e0 8b 00 6b 	brhi	800028f6 <udd_ep_run+0xe6>
80002824:	fe 67 10 00 	mov	r7,-126976
80002828:	6e 76       	ld.w	r6,r7[0x1c]
8000282a:	1c 95       	mov	r5,lr
8000282c:	30 17       	mov	r7,1
8000282e:	ee 0e 09 47 	lsl	r7,r7,lr
80002832:	0c 67       	and	r7,r6
80002834:	c6 10       	breq	800028f6 <udd_ep_run+0xe6>
80002836:	fc 07 15 02 	lsl	r7,lr,0x2
8000283a:	fe 64 11 c0 	mov	r4,-126528
8000283e:	ee 04 00 06 	add	r6,r7,r4
80002842:	6c 06       	ld.w	r6,r6[0x0]
80002844:	e6 16 00 08 	andh	r6,0x8,COH
80002848:	c5 71       	brne	800028f6 <udd_ep_run+0xe6>
8000284a:	20 1e       	sub	lr,1
8000284c:	fc 0e 00 2e 	add	lr,lr,lr<<0x2
80002850:	4a c6       	lddpc	r6,80002900 <udd_ep_run+0xf0>
80002852:	ec 0e 00 2e 	add	lr,r6,lr<<0x2
80002856:	e1 b6 00 00 	mfsr	r6,0x0
8000285a:	50 06       	stdsp	sp[0x0],r6
8000285c:	d3 03       	ssrf	0x10
8000285e:	40 04       	lddsp	r4,sp[0x0]
80002860:	7c 06       	ld.w	r6,lr[0x0]
80002862:	58 06       	cp.w	r6,0
80002864:	c0 74       	brge	80002872 <udd_ep_run+0x62>
80002866:	e6 14 00 01 	andh	r4,0x1,COH
8000286a:	c0 21       	brne	8000286e <udd_ep_run+0x5e>
8000286c:	d5 03       	csrf	0x10
8000286e:	30 0c       	mov	r12,0
80002870:	c4 48       	rjmp	800028f8 <udd_ep_run+0xe8>
80002872:	7c 06       	ld.w	r6,lr[0x0]
80002874:	30 13       	mov	r3,1
80002876:	ed d3 d3 e1 	bfins	r6,r3,0x1f,0x1
8000287a:	9d 06       	st.w	lr[0x0],r6
8000287c:	e6 14 00 01 	andh	r4,0x1,COH
80002880:	c0 21       	brne	80002884 <udd_ep_run+0x74>
80002882:	d5 03       	csrf	0x10
80002884:	9d 1a       	st.w	lr[0x4],r10
80002886:	9d 29       	st.w	lr[0x8],r9
80002888:	30 0a       	mov	r10,0
8000288a:	9d 3a       	st.w	lr[0xc],r10
8000288c:	9d 48       	st.w	lr[0x10],r8
8000288e:	7c 08       	ld.w	r8,lr[0x0]
80002890:	f1 db d3 c1 	bfins	r8,r11,0x1e,0x1
80002894:	f1 da d3 a1 	bfins	r8,r10,0x1d,0x1
80002898:	9d 08       	st.w	lr[0x0],r8
8000289a:	f4 0c 18 00 	cp.b	r12,r10
8000289e:	c1 85       	brlt	800028ce <udd_ep_run+0xbe>
800028a0:	e0 37 ef 00 	sub	r7,126720
800028a4:	6e 08       	ld.w	r8,r7[0x0]
800028a6:	f1 d8 c1 62 	bfextu	r8,r8,0xb,0x2
800028aa:	58 18       	cp.w	r8,1
800028ac:	c1 11       	brne	800028ce <udd_ep_run+0xbe>
800028ae:	6e 08       	ld.w	r8,r7[0x0]
800028b0:	f1 d8 c0 83 	bfextu	r8,r8,0x4,0x3
800028b4:	30 8a       	mov	r10,8
800028b6:	f4 08 09 48 	lsl	r8,r10,r8
800028ba:	20 18       	sub	r8,1
800028bc:	f1 e9 00 09 	and	r9,r8,r9
800028c0:	c0 70       	breq	800028ce <udd_ep_run+0xbe>
800028c2:	7c 08       	ld.w	r8,lr[0x0]
800028c4:	30 0c       	mov	r12,0
800028c6:	f1 dc d3 e1 	bfins	r8,r12,0x1f,0x1
800028ca:	9d 08       	st.w	lr[0x0],r8
800028cc:	c1 68       	rjmp	800028f8 <udd_ep_run+0xe8>
800028ce:	48 e8       	lddpc	r8,80002904 <udd_ep_run+0xf4>
800028d0:	a3 75       	lsl	r5,0x3
800028d2:	2f f5       	sub	r5,-1
800028d4:	f0 05 03 29 	ld.w	r9,r8[r5<<0x2]
800028d8:	30 0a       	mov	r10,0
800028da:	f3 da d0 0f 	bfins	r9,r10,0x0,0xf
800028de:	f0 05 09 29 	st.w	r8[r5<<0x2],r9
800028e2:	f0 05 03 29 	ld.w	r9,r8[r5<<0x2]
800028e6:	f3 da d2 0f 	bfins	r9,r10,0x10,0xf
800028ea:	f0 05 09 29 	st.w	r8[r5<<0x2],r9
800028ee:	f0 1f 00 07 	mcall	80002908 <udd_ep_run+0xf8>
800028f2:	30 1c       	mov	r12,1
800028f4:	c0 28       	rjmp	800028f8 <udd_ep_run+0xe8>
800028f6:	30 0c       	mov	r12,0
800028f8:	2f fd       	sub	sp,-4
800028fa:	e3 cd 80 f8 	ldm	sp++,r3-r7,pc
800028fe:	00 00       	add	r0,r0
80002900:	00 00       	add	r0,r0
80002902:	05 e4       	ld.ub	r4,r2[0x6]
80002904:	00 00       	add	r0,r0
80002906:	06 20       	rsub	r0,r3
80002908:	80 00       	ld.sh	r0,r0[0x0]
8000290a:	25 04       	sub	r4,80

8000290c <udd_ctrl_in_sent>:
8000290c:	eb cd 40 e0 	pushm	r5-r7,lr
80002910:	20 1d       	sub	sp,4
80002912:	e1 b8 00 00 	mfsr	r8,0x0
80002916:	50 08       	stdsp	sp[0x0],r8
80002918:	d3 03       	ssrf	0x10
8000291a:	40 08       	lddsp	r8,sp[0x0]
8000291c:	30 1a       	mov	r10,1
8000291e:	fe 69 12 20 	mov	r9,-126432
80002922:	93 0a       	st.w	r9[0x0],r10
80002924:	e6 18 00 01 	andh	r8,0x1,COH
80002928:	c0 21       	brne	8000292c <udd_ctrl_in_sent+0x20>
8000292a:	d5 03       	csrf	0x10
8000292c:	4c 08       	lddpc	r8,80002a2c <udd_ctrl_in_sent+0x120>
8000292e:	70 08       	ld.w	r8,r8[0x0]
80002930:	58 38       	cp.w	r8,3
80002932:	c0 61       	brne	8000293e <udd_ctrl_in_sent+0x32>
80002934:	f0 1f 00 3f 	mcall	80002a30 <udd_ctrl_in_sent+0x124>
80002938:	f0 1f 00 3f 	mcall	80002a34 <udd_ctrl_in_sent+0x128>
8000293c:	c7 58       	rjmp	80002a26 <udd_ctrl_in_sent+0x11a>
8000293e:	4b f8       	lddpc	r8,80002a38 <udd_ctrl_in_sent+0x12c>
80002940:	90 08       	ld.sh	r8,r8[0x0]
80002942:	4b f9       	lddpc	r9,80002a3c <udd_ctrl_in_sent+0x130>
80002944:	92 67       	ld.sh	r7,r9[0xc]
80002946:	10 17       	sub	r7,r8
80002948:	5c 87       	casts.h	r7
8000294a:	c3 11       	brne	800029ac <udd_ctrl_in_sent+0xa0>
8000294c:	4b d9       	lddpc	r9,80002a40 <udd_ctrl_in_sent+0x134>
8000294e:	92 0a       	ld.sh	r10,r9[0x0]
80002950:	f4 08 00 08 	add	r8,r10,r8
80002954:	b2 08       	st.h	r9[0x0],r8
80002956:	4b a9       	lddpc	r9,80002a3c <udd_ctrl_in_sent+0x130>
80002958:	92 39       	ld.sh	r9,r9[0x6]
8000295a:	f0 09 19 00 	cp.h	r9,r8
8000295e:	c0 70       	breq	8000296c <udd_ctrl_in_sent+0x60>
80002960:	4b 98       	lddpc	r8,80002a44 <udd_ctrl_in_sent+0x138>
80002962:	11 89       	ld.ub	r9,r8[0x0]
80002964:	30 08       	mov	r8,0
80002966:	f0 09 18 00 	cp.b	r9,r8
8000296a:	c1 60       	breq	80002996 <udd_ctrl_in_sent+0x8a>
8000296c:	30 49       	mov	r9,4
8000296e:	4b 08       	lddpc	r8,80002a2c <udd_ctrl_in_sent+0x120>
80002970:	91 09       	st.w	r8[0x0],r9
80002972:	e1 b8 00 00 	mfsr	r8,0x0
80002976:	50 08       	stdsp	sp[0x0],r8
80002978:	d3 03       	ssrf	0x10
8000297a:	40 09       	lddsp	r9,sp[0x0]
8000297c:	31 08       	mov	r8,16
8000297e:	fe 6a 11 60 	mov	r10,-126624
80002982:	95 08       	st.w	r10[0x0],r8
80002984:	fe 6a 11 f0 	mov	r10,-126480
80002988:	95 08       	st.w	r10[0x0],r8
8000298a:	12 98       	mov	r8,r9
8000298c:	e6 18 00 01 	andh	r8,0x1,COH
80002990:	c0 21       	brne	80002994 <udd_ctrl_in_sent+0x88>
80002992:	d5 03       	csrf	0x10
80002994:	c4 98       	rjmp	80002a26 <udd_ctrl_in_sent+0x11a>
80002996:	4a a8       	lddpc	r8,80002a3c <udd_ctrl_in_sent+0x130>
80002998:	70 5c       	ld.w	r12,r8[0x14]
8000299a:	58 0c       	cp.w	r12,0
8000299c:	c1 20       	breq	800029c0 <udd_ctrl_in_sent+0xb4>
8000299e:	5d 1c       	icall	r12
800029a0:	c1 00       	breq	800029c0 <udd_ctrl_in_sent+0xb4>
800029a2:	30 09       	mov	r9,0
800029a4:	4a 58       	lddpc	r8,80002a38 <udd_ctrl_in_sent+0x12c>
800029a6:	b0 09       	st.h	r8[0x0],r9
800029a8:	4a 58       	lddpc	r8,80002a3c <udd_ctrl_in_sent+0x130>
800029aa:	90 67       	ld.sh	r7,r8[0xc]
800029ac:	33 f8       	mov	r8,63
800029ae:	f0 07 19 00 	cp.h	r7,r8
800029b2:	e0 88 00 07 	brls	800029c0 <udd_ctrl_in_sent+0xb4>
800029b6:	30 09       	mov	r9,0
800029b8:	4a 38       	lddpc	r8,80002a44 <udd_ctrl_in_sent+0x138>
800029ba:	b0 89       	st.b	r8[0x0],r9
800029bc:	34 07       	mov	r7,64
800029be:	c0 48       	rjmp	800029c6 <udd_ctrl_in_sent+0xba>
800029c0:	30 19       	mov	r9,1
800029c2:	4a 18       	lddpc	r8,80002a44 <udd_ctrl_in_sent+0x138>
800029c4:	b0 89       	st.b	r8[0x0],r9
800029c6:	e1 b8 00 00 	mfsr	r8,0x0
800029ca:	50 08       	stdsp	sp[0x0],r8
800029cc:	d3 03       	ssrf	0x10
800029ce:	40 06       	lddsp	r6,sp[0x0]
800029d0:	fe 68 11 30 	mov	r8,-126672
800029d4:	70 08       	ld.w	r8,r8[0x0]
800029d6:	e2 18 00 02 	andl	r8,0x2,COH
800029da:	c0 90       	breq	800029ec <udd_ctrl_in_sent+0xe0>
800029dc:	e6 16 00 01 	andh	r6,0x1,COH
800029e0:	c0 21       	brne	800029e4 <udd_ctrl_in_sent+0xd8>
800029e2:	d5 03       	csrf	0x10
800029e4:	30 49       	mov	r9,4
800029e6:	49 28       	lddpc	r8,80002a2c <udd_ctrl_in_sent+0x120>
800029e8:	91 09       	st.w	r8[0x0],r9
800029ea:	c1 e8       	rjmp	80002a26 <udd_ctrl_in_sent+0x11a>
800029ec:	49 35       	lddpc	r5,80002a38 <udd_ctrl_in_sent+0x12c>
800029ee:	8a 88       	ld.uh	r8,r5[0x0]
800029f0:	49 39       	lddpc	r9,80002a3c <udd_ctrl_in_sent+0x130>
800029f2:	72 2b       	ld.w	r11,r9[0x8]
800029f4:	0e 9a       	mov	r10,r7
800029f6:	5c 7a       	castu.h	r10
800029f8:	10 0b       	add	r11,r8
800029fa:	49 4c       	lddpc	r12,80002a48 <udd_ctrl_in_sent+0x13c>
800029fc:	f0 1f 00 14 	mcall	80002a4c <udd_ctrl_in_sent+0x140>
80002a00:	8a 08       	ld.sh	r8,r5[0x0]
80002a02:	0e 08       	add	r8,r7
80002a04:	aa 08       	st.h	r5[0x0],r8
80002a06:	49 38       	lddpc	r8,80002a50 <udd_ctrl_in_sent+0x144>
80002a08:	70 19       	ld.w	r9,r8[0x4]
80002a0a:	f3 d7 d0 0f 	bfins	r9,r7,0x0,0xf
80002a0e:	91 19       	st.w	r8[0x4],r9
80002a10:	30 18       	mov	r8,1
80002a12:	fe 69 11 60 	mov	r9,-126624
80002a16:	93 08       	st.w	r9[0x0],r8
80002a18:	fe 69 11 f0 	mov	r9,-126480
80002a1c:	93 08       	st.w	r9[0x0],r8
80002a1e:	e6 16 00 01 	andh	r6,0x1,COH
80002a22:	c0 21       	brne	80002a26 <udd_ctrl_in_sent+0x11a>
80002a24:	d5 03       	csrf	0x10
80002a26:	2f fd       	sub	sp,-4
80002a28:	e3 cd 80 e0 	ldm	sp++,r5-r7,pc
80002a2c:	00 00       	add	r0,r0
80002a2e:	06 a4       	st.w	r3++,r4
80002a30:	80 00       	ld.sh	r0,r0[0x0]
80002a32:	22 c0       	sub	r0,44
80002a34:	80 00       	ld.sh	r0,r0[0x0]
80002a36:	22 80       	sub	r0,40
80002a38:	00 00       	add	r0,r0
80002a3a:	06 a2       	st.w	r3++,r2
80002a3c:	00 00       	add	r0,r0
80002a3e:	0a c8       	st.b	r5++,r8
80002a40:	00 00       	add	r0,r0
80002a42:	05 e2       	ld.ub	r2,r2[0x6]
80002a44:	00 00       	add	r0,r0
80002a46:	05 e0       	ld.ub	r0,r2[0x6]
80002a48:	00 00       	add	r0,r0
80002a4a:	0a e0       	st.h	--r5,r0
80002a4c:	80 00       	ld.sh	r0,r0[0x0]
80002a4e:	44 00       	lddsp	r0,sp[0x100]
80002a50:	00 00       	add	r0,r0
80002a52:	06 20       	rsub	r0,r3

80002a54 <udd_ep_alloc>:
80002a54:	eb cd 40 e0 	pushm	r5-r7,lr
80002a58:	f3 dc c0 04 	bfextu	r9,r12,0x0,0x4
80002a5c:	fe 68 10 00 	mov	r8,-126976
80002a60:	70 7e       	ld.w	lr,r8[0x1c]
80002a62:	30 18       	mov	r8,1
80002a64:	f0 09 09 48 	lsl	r8,r8,r9
80002a68:	f1 ee 00 0e 	and	lr,r8,lr
80002a6c:	c0 30       	breq	80002a72 <udd_ep_alloc+0x1e>
80002a6e:	e3 cf 80 e0 	ldm	sp++,r5-r7,pc,r12=0
80002a72:	a3 69       	lsl	r9,0x2
80002a74:	fe 67 11 00 	mov	r7,-126720
80002a78:	f2 07 00 0e 	add	lr,r9,r7
80002a7c:	7c 06       	ld.w	r6,lr[0x0]
80002a7e:	30 07       	mov	r7,0
80002a80:	e0 65 01 00 	mov	r5,256
80002a84:	f8 07 18 00 	cp.b	r7,r12
80002a88:	ea 07 17 90 	movgt	r7,r5
80002a8c:	f9 b7 0a 00 	movle	r7,0
80002a90:	5c 7a       	castu.h	r10
80002a92:	30 8c       	mov	r12,8
80002a94:	f4 0c 0c 4c 	max	r12,r10,r12
80002a98:	e0 65 04 00 	mov	r5,1024
80002a9c:	f8 05 0d 4c 	min	r12,r12,r5
80002aa0:	a1 7c       	lsl	r12,0x1
80002aa2:	58 1c       	cp.w	r12,1
80002aa4:	c0 31       	brne	80002aaa <udd_ep_alloc+0x56>
80002aa6:	3c 0a       	mov	r10,-64
80002aa8:	c0 f8       	rjmp	80002ac6 <udd_ep_alloc+0x72>
80002aaa:	30 8c       	mov	r12,8
80002aac:	f4 0c 0c 4a 	max	r10,r10,r12
80002ab0:	e0 6c 04 00 	mov	r12,1024
80002ab4:	f4 0c 0d 4a 	min	r10,r10,r12
80002ab8:	a1 7a       	lsl	r10,0x1
80002aba:	20 1a       	sub	r10,1
80002abc:	f4 0a 12 00 	clz	r10,r10
80002ac0:	f4 0a 11 1c 	rsub	r10,r10,28
80002ac4:	a5 6a       	lsl	r10,0x4
80002ac6:	ab 7b       	lsl	r11,0xb
80002ac8:	e2 1b 18 00 	andl	r11,0x1800,COH
80002acc:	ef eb 10 0c 	or	r12,r7,r11
80002ad0:	14 4c       	or	r12,r10
80002ad2:	e2 1c 19 74 	andl	r12,0x1974,COH
80002ad6:	0c 9a       	mov	r10,r6
80002ad8:	e0 1a e6 8b 	andl	r10,0xe68b
80002adc:	f9 ea 10 0a 	or	r10,r12,r10
80002ae0:	9d 0a       	st.w	lr[0x0],r10
80002ae2:	e0 39 ee 10 	sub	r9,126480
80002ae6:	fc 1a 01 00 	movh	r10,0x100
80002aea:	93 0a       	st.w	r9[0x0],r10
80002aec:	fe 69 10 00 	mov	r9,-126976
80002af0:	72 7a       	ld.w	r10,r9[0x1c]
80002af2:	14 48       	or	r8,r10
80002af4:	93 78       	st.w	r9[0x1c],r8
80002af6:	e3 cf 90 e0 	ldm	sp++,r5-r7,pc,r12=1
80002afa:	d7 03       	nop

80002afc <udd_enable>:
80002afc:	eb cd 40 c0 	pushm	r6-r7,lr
80002b00:	20 1d       	sub	sp,4
80002b02:	e1 b8 00 00 	mfsr	r8,0x0
80002b06:	50 08       	stdsp	sp[0x0],r8
80002b08:	d3 03       	ssrf	0x10
80002b0a:	40 06       	lddsp	r6,sp[0x0]
80002b0c:	f0 1f 00 3c 	mcall	80002bfc <udd_enable+0x100>
80002b10:	30 0a       	mov	r10,0
80002b12:	e0 6b 01 00 	mov	r11,256
80002b16:	4b bc       	lddpc	r12,80002c00 <udd_enable+0x104>
80002b18:	f0 1f 00 3b 	mcall	80002c04 <udd_enable+0x108>
80002b1c:	fe 78 04 00 	mov	r8,-64512
80002b20:	f0 f9 01 88 	ld.w	r9,r8[392]
80002b24:	a1 a9       	sbr	r9,0x0
80002b26:	f1 49 01 88 	st.w	r8[392],r9
80002b2a:	fe 68 18 00 	mov	r8,-124928
80002b2e:	70 09       	ld.w	r9,r8[0x0]
80002b30:	b9 c9       	cbr	r9,0x18
80002b32:	91 09       	st.w	r8[0x0],r9
80002b34:	70 09       	ld.w	r9,r8[0x0]
80002b36:	b9 b9       	sbr	r9,0x19
80002b38:	91 09       	st.w	r8[0x0],r9
80002b3a:	70 09       	ld.w	r9,r8[0x0]
80002b3c:	ad a9       	sbr	r9,0xc
80002b3e:	91 09       	st.w	r8[0x0],r9
80002b40:	70 09       	ld.w	r9,r8[0x0]
80002b42:	af b9       	sbr	r9,0xf
80002b44:	91 09       	st.w	r8[0x0],r9
80002b46:	70 09       	ld.w	r9,r8[0x0]
80002b48:	af c9       	cbr	r9,0xe
80002b4a:	91 09       	st.w	r8[0x0],r9
80002b4c:	70 08       	ld.w	r8,r8[0x0]
80002b4e:	4a f7       	lddpc	r7,80002c08 <udd_enable+0x10c>
80002b50:	e0 6a 00 80 	mov	r10,128
80002b54:	30 0b       	mov	r11,0
80002b56:	0e 9c       	mov	r12,r7
80002b58:	f0 1f 00 2d 	mcall	80002c0c <udd_enable+0x110>
80002b5c:	fe 68 10 00 	mov	r8,-126976
80002b60:	f0 f9 08 30 	ld.w	r9,r8[2096]
80002b64:	f1 47 08 30 	st.w	r8[2096],r7
80002b68:	4a a9       	lddpc	r9,80002c10 <udd_enable+0x114>
80002b6a:	72 0b       	ld.w	r11,r9[0x0]
80002b6c:	30 0a       	mov	r10,0
80002b6e:	f7 da d3 e1 	bfins	r11,r10,0x1f,0x1
80002b72:	93 0b       	st.w	r9[0x0],r11
80002b74:	72 5b       	ld.w	r11,r9[0x14]
80002b76:	f7 da d3 e1 	bfins	r11,r10,0x1f,0x1
80002b7a:	93 5b       	st.w	r9[0x14],r11
80002b7c:	72 ab       	ld.w	r11,r9[0x28]
80002b7e:	f7 da d3 e1 	bfins	r11,r10,0x1f,0x1
80002b82:	93 ab       	st.w	r9[0x28],r11
80002b84:	70 09       	ld.w	r9,r8[0x0]
80002b86:	ad c9       	cbr	r9,0xc
80002b88:	91 09       	st.w	r8[0x0],r9
80002b8a:	70 09       	ld.w	r9,r8[0x0]
80002b8c:	e8 19 0c 00 	orl	r9,0xc00
80002b90:	91 09       	st.w	r8[0x0],r9
80002b92:	30 29       	mov	r9,2
80002b94:	fe 68 18 08 	mov	r8,-124920
80002b98:	91 09       	st.w	r8[0x0],r9
80002b9a:	fe 68 18 04 	mov	r8,-124924
80002b9e:	70 08       	ld.w	r8,r8[0x0]
80002ba0:	e2 18 08 00 	andl	r8,0x800,COH
80002ba4:	c0 40       	breq	80002bac <udd_enable+0xb0>
80002ba6:	fe 68 18 0c 	mov	r8,-124916
80002baa:	91 09       	st.w	r8[0x0],r9
80002bac:	fe 68 18 00 	mov	r8,-124928
80002bb0:	70 09       	ld.w	r9,r8[0x0]
80002bb2:	a1 b9       	sbr	r9,0x1
80002bb4:	91 09       	st.w	r8[0x0],r9
80002bb6:	70 09       	ld.w	r9,r8[0x0]
80002bb8:	af a9       	sbr	r9,0xe
80002bba:	91 09       	st.w	r8[0x0],r9
80002bbc:	30 09       	mov	r9,0
80002bbe:	49 68       	lddpc	r8,80002c14 <udd_enable+0x118>
80002bc0:	b0 89       	st.b	r8[0x0],r9
80002bc2:	49 68       	lddpc	r8,80002c18 <udd_enable+0x11c>
80002bc4:	11 c9       	ld.ub	r9,r8[0x4]
80002bc6:	3f f8       	mov	r8,-1
80002bc8:	f0 09 18 00 	cp.b	r9,r8
80002bcc:	c0 21       	brne	80002bd0 <udd_enable+0xd4>
80002bce:	c0 08       	rjmp	80002bce <udd_enable+0xd2>
80002bd0:	e1 b8 00 00 	mfsr	r8,0x0
80002bd4:	50 08       	stdsp	sp[0x0],r8
80002bd6:	d3 03       	ssrf	0x10
80002bd8:	40 09       	lddsp	r9,sp[0x0]
80002bda:	49 08       	lddpc	r8,80002c18 <udd_enable+0x11c>
80002bdc:	11 ca       	ld.ub	r10,r8[0x4]
80002bde:	2f fa       	sub	r10,-1
80002be0:	b0 ca       	st.b	r8[0x4],r10
80002be2:	12 98       	mov	r8,r9
80002be4:	e6 18 00 01 	andh	r8,0x1,COH
80002be8:	c0 21       	brne	80002bec <udd_enable+0xf0>
80002bea:	d5 03       	csrf	0x10
80002bec:	e6 16 00 01 	andh	r6,0x1,COH
80002bf0:	c0 21       	brne	80002bf4 <udd_enable+0xf8>
80002bf2:	d5 03       	csrf	0x10
80002bf4:	2f fd       	sub	sp,-4
80002bf6:	e3 cd 80 c0 	ldm	sp++,r6-r7,pc
80002bfa:	00 00       	add	r0,r0
80002bfc:	80 00       	ld.sh	r0,r0[0x0]
80002bfe:	32 04       	mov	r4,32
80002c00:	80 00       	ld.sh	r0,r0[0x0]
80002c02:	2c 1c       	sub	r12,-63
80002c04:	80 00       	ld.sh	r0,r0[0x0]
80002c06:	32 b4       	mov	r4,43
80002c08:	00 00       	add	r0,r0
80002c0a:	06 20       	rsub	r0,r3
80002c0c:	80 00       	ld.sh	r0,r0[0x0]
80002c0e:	45 48       	lddsp	r8,sp[0x150]
80002c10:	00 00       	add	r0,r0
80002c12:	05 e4       	ld.ub	r4,r2[0x6]
80002c14:	00 00       	add	r0,r0
80002c16:	06 a0       	st.w	r3++,r0
80002c18:	00 00       	add	r0,r0
80002c1a:	0b 20       	ld.uh	r0,r5++

80002c1c <udd_interrupt>:
80002c1c:	eb cd 40 80 	pushm	r7,lr
80002c20:	20 1d       	sub	sp,4
80002c22:	fe 68 10 04 	mov	r8,-126972
80002c26:	70 08       	ld.w	r8,r8[0x0]
80002c28:	e2 18 00 04 	andl	r8,0x4,COH
80002c2c:	c0 90       	breq	80002c3e <udd_interrupt+0x22>
80002c2e:	30 49       	mov	r9,4
80002c30:	fe 68 10 08 	mov	r8,-126968
80002c34:	91 09       	st.w	r8[0x0],r9
80002c36:	f0 1f 01 3e 	mcall	8000312c <udd_interrupt+0x510>
80002c3a:	e0 8f 02 68 	bral	8000310a <udd_interrupt+0x4ee>
80002c3e:	fe 68 10 00 	mov	r8,-126976
80002c42:	70 18       	ld.w	r8,r8[0x4]
80002c44:	e2 18 10 00 	andl	r8,0x1000,COH
80002c48:	e0 80 01 79 	breq	80002f3a <udd_interrupt+0x31e>
80002c4c:	fe 68 12 20 	mov	r8,-126432
80002c50:	31 09       	mov	r9,16
80002c52:	91 09       	st.w	r8[0x0],r9
80002c54:	30 89       	mov	r9,8
80002c56:	91 09       	st.w	r8[0x0],r9
80002c58:	fe 68 11 30 	mov	r8,-126672
80002c5c:	70 08       	ld.w	r8,r8[0x0]
80002c5e:	e2 18 00 04 	andl	r8,0x4,COH
80002c62:	c7 80       	breq	80002d52 <udd_interrupt+0x136>
80002c64:	fe f8 04 cc 	ld.w	r8,pc[1228]
80002c68:	70 08       	ld.w	r8,r8[0x0]
80002c6a:	58 08       	cp.w	r8,0
80002c6c:	c0 50       	breq	80002c76 <udd_interrupt+0x5a>
80002c6e:	f0 1f 01 32 	mcall	80003134 <udd_interrupt+0x518>
80002c72:	f0 1f 01 32 	mcall	80003138 <udd_interrupt+0x51c>
80002c76:	fe f8 04 c6 	ld.w	r8,pc[1222]
80002c7a:	70 18       	ld.w	r8,r8[0x4]
80002c7c:	f1 d8 c0 0f 	bfextu	r8,r8,0x0,0xf
80002c80:	58 88       	cp.w	r8,8
80002c82:	c0 90       	breq	80002c94 <udd_interrupt+0x78>
80002c84:	f0 1f 01 2f 	mcall	80003140 <udd_interrupt+0x524>
80002c88:	30 49       	mov	r9,4
80002c8a:	fe 68 11 60 	mov	r8,-126624
80002c8e:	91 09       	st.w	r8[0x0],r9
80002c90:	e0 8f 02 3d 	bral	8000310a <udd_interrupt+0x4ee>
80002c94:	fe f7 04 b0 	ld.w	r7,pc[1200]
80002c98:	30 8a       	mov	r10,8
80002c9a:	fe fb 04 ae 	ld.w	r11,pc[1198]
80002c9e:	0e 9c       	mov	r12,r7
80002ca0:	f0 1f 01 2b 	mcall	8000314c <udd_interrupt+0x530>
80002ca4:	8e 18       	ld.sh	r8,r7[0x2]
80002ca6:	5c c8       	swap.bh	r8
80002ca8:	ae 18       	st.h	r7[0x2],r8
80002caa:	8e 28       	ld.sh	r8,r7[0x4]
80002cac:	5c c8       	swap.bh	r8
80002cae:	ae 28       	st.h	r7[0x4],r8
80002cb0:	8e 38       	ld.sh	r8,r7[0x6]
80002cb2:	5c c8       	swap.bh	r8
80002cb4:	ae 38       	st.h	r7[0x6],r8
80002cb6:	f0 1f 01 27 	mcall	80003150 <udd_interrupt+0x534>
80002cba:	c0 91       	brne	80002ccc <udd_interrupt+0xb0>
80002cbc:	f0 1f 01 21 	mcall	80003140 <udd_interrupt+0x524>
80002cc0:	30 49       	mov	r9,4
80002cc2:	fe 68 11 60 	mov	r8,-126624
80002cc6:	91 09       	st.w	r8[0x0],r9
80002cc8:	e0 8f 02 21 	bral	8000310a <udd_interrupt+0x4ee>
80002ccc:	30 49       	mov	r9,4
80002cce:	fe 68 11 60 	mov	r8,-126624
80002cd2:	91 09       	st.w	r8[0x0],r9
80002cd4:	fe f8 04 70 	ld.w	r8,pc[1136]
80002cd8:	11 89       	ld.ub	r9,r8[0x0]
80002cda:	30 08       	mov	r8,0
80002cdc:	f0 09 18 00 	cp.b	r9,r8
80002ce0:	c1 04       	brge	80002d00 <udd_interrupt+0xe4>
80002ce2:	30 08       	mov	r8,0
80002ce4:	fe f9 04 70 	ld.w	r9,pc[1136]
80002ce8:	b2 08       	st.h	r9[0x0],r8
80002cea:	fe f9 04 6e 	ld.w	r9,pc[1134]
80002cee:	b2 08       	st.h	r9[0x0],r8
80002cf0:	30 29       	mov	r9,2
80002cf2:	fe f8 04 3e 	ld.w	r8,pc[1086]
80002cf6:	91 09       	st.w	r8[0x0],r9
80002cf8:	f0 1f 01 19 	mcall	8000315c <udd_interrupt+0x540>
80002cfc:	e0 8f 02 07 	bral	8000310a <udd_interrupt+0x4ee>
80002d00:	fe f8 04 44 	ld.w	r8,pc[1092]
80002d04:	90 39       	ld.sh	r9,r8[0x6]
80002d06:	30 08       	mov	r8,0
80002d08:	f0 09 19 00 	cp.h	r9,r8
80002d0c:	c0 51       	brne	80002d16 <udd_interrupt+0xfa>
80002d0e:	f0 1f 01 15 	mcall	80003160 <udd_interrupt+0x544>
80002d12:	e0 8f 01 fc 	bral	8000310a <udd_interrupt+0x4ee>
80002d16:	30 08       	mov	r8,0
80002d18:	fe f9 04 3c 	ld.w	r9,pc[1084]
80002d1c:	b2 08       	st.h	r9[0x0],r8
80002d1e:	fe f9 04 3a 	ld.w	r9,pc[1082]
80002d22:	b2 08       	st.h	r9[0x0],r8
80002d24:	30 19       	mov	r9,1
80002d26:	fe f8 04 0a 	ld.w	r8,pc[1034]
80002d2a:	91 09       	st.w	r8[0x0],r9
80002d2c:	31 08       	mov	r8,16
80002d2e:	fe 69 11 60 	mov	r9,-126624
80002d32:	93 08       	st.w	r9[0x0],r8
80002d34:	e1 b9 00 00 	mfsr	r9,0x0
80002d38:	50 09       	stdsp	sp[0x0],r9
80002d3a:	d3 03       	ssrf	0x10
80002d3c:	40 09       	lddsp	r9,sp[0x0]
80002d3e:	fe 6a 11 f0 	mov	r10,-126480
80002d42:	95 08       	st.w	r10[0x0],r8
80002d44:	12 98       	mov	r8,r9
80002d46:	e6 18 00 01 	andh	r8,0x1,COH
80002d4a:	c0 21       	brne	80002d4e <udd_interrupt+0x132>
80002d4c:	d5 03       	csrf	0x10
80002d4e:	e0 8f 01 de 	bral	8000310a <udd_interrupt+0x4ee>
80002d52:	fe 68 11 30 	mov	r8,-126672
80002d56:	70 08       	ld.w	r8,r8[0x0]
80002d58:	e2 18 00 02 	andl	r8,0x2,COH
80002d5c:	e0 80 00 a1 	breq	80002e9e <udd_interrupt+0x282>
80002d60:	fe f8 03 d0 	ld.w	r8,pc[976]
80002d64:	70 08       	ld.w	r8,r8[0x0]
80002d66:	58 18       	cp.w	r8,1
80002d68:	c1 10       	breq	80002d8a <udd_interrupt+0x16e>
80002d6a:	58 28       	cp.w	r8,2
80002d6c:	5f 09       	sreq	r9
80002d6e:	58 48       	cp.w	r8,4
80002d70:	5f 08       	sreq	r8
80002d72:	f3 e8 10 08 	or	r8,r9,r8
80002d76:	c0 40       	breq	80002d7e <udd_interrupt+0x162>
80002d78:	f0 1f 00 ef 	mcall	80003134 <udd_interrupt+0x518>
80002d7c:	c0 38       	rjmp	80002d82 <udd_interrupt+0x166>
80002d7e:	f0 1f 00 f1 	mcall	80003140 <udd_interrupt+0x524>
80002d82:	f0 1f 00 ee 	mcall	80003138 <udd_interrupt+0x51c>
80002d86:	e0 8f 01 c2 	bral	8000310a <udd_interrupt+0x4ee>
80002d8a:	fe f8 03 b2 	ld.w	r8,pc[946]
80002d8e:	70 17       	ld.w	r7,r8[0x4]
80002d90:	ef d7 c0 0f 	bfextu	r7,r7,0x0,0xf
80002d94:	fe f8 03 b0 	ld.w	r8,pc[944]
80002d98:	90 69       	ld.sh	r9,r8[0xc]
80002d9a:	fe f8 03 be 	ld.w	r8,pc[958]
80002d9e:	90 08       	ld.sh	r8,r8[0x0]
80002da0:	f7 d9 c0 10 	bfextu	r11,r9,0x0,0x10
80002da4:	f5 d8 c0 10 	bfextu	r10,r8,0x0,0x10
80002da8:	ee 0a 00 0a 	add	r10,r7,r10
80002dac:	14 3b       	cp.w	r11,r10
80002dae:	c0 44       	brge	80002db6 <udd_interrupt+0x19a>
80002db0:	10 19       	sub	r9,r8
80002db2:	ef d9 b0 10 	bfexts	r7,r9,0x0,0x10
80002db6:	5c 78       	castu.h	r8
80002db8:	fe f9 03 8c 	ld.w	r9,pc[908]
80002dbc:	72 2c       	ld.w	r12,r9[0x8]
80002dbe:	0e 9a       	mov	r10,r7
80002dc0:	5c 7a       	castu.h	r10
80002dc2:	fe fb 03 86 	ld.w	r11,pc[902]
80002dc6:	10 0c       	add	r12,r8
80002dc8:	f0 1f 00 e1 	mcall	8000314c <udd_interrupt+0x530>
80002dcc:	fe f9 03 8c 	ld.w	r9,pc[908]
80002dd0:	92 08       	ld.sh	r8,r9[0x0]
80002dd2:	0e 08       	add	r8,r7
80002dd4:	5c 88       	casts.h	r8
80002dd6:	b2 08       	st.h	r9[0x0],r8
80002dd8:	34 09       	mov	r9,64
80002dda:	f2 07 19 00 	cp.h	r7,r9
80002dde:	c0 e1       	brne	80002dfa <udd_interrupt+0x1de>
80002de0:	fe f9 03 64 	ld.w	r9,pc[868]
80002de4:	92 ba       	ld.uh	r10,r9[0x6]
80002de6:	f7 d8 c0 10 	bfextu	r11,r8,0x0,0x10
80002dea:	fe f9 03 6a 	ld.w	r9,pc[874]
80002dee:	92 89       	ld.uh	r9,r9[0x0]
80002df0:	f6 09 00 09 	add	r9,r11,r9
80002df4:	12 3a       	cp.w	r10,r9
80002df6:	e0 89 00 1a 	brgt	80002e2a <udd_interrupt+0x20e>
80002dfa:	fe f9 03 4a 	ld.w	r9,pc[842]
80002dfe:	b2 68       	st.h	r9[0xc],r8
80002e00:	72 5c       	ld.w	r12,r9[0x14]
80002e02:	58 0c       	cp.w	r12,0
80002e04:	c0 b0       	breq	80002e1a <udd_interrupt+0x1fe>
80002e06:	5d 1c       	icall	r12
80002e08:	c0 91       	brne	80002e1a <udd_interrupt+0x1fe>
80002e0a:	f0 1f 00 ce 	mcall	80003140 <udd_interrupt+0x524>
80002e0e:	30 29       	mov	r9,2
80002e10:	fe 68 11 60 	mov	r8,-126624
80002e14:	91 09       	st.w	r8[0x0],r9
80002e16:	e0 8f 01 7a 	bral	8000310a <udd_interrupt+0x4ee>
80002e1a:	30 29       	mov	r9,2
80002e1c:	fe 68 11 60 	mov	r8,-126624
80002e20:	91 09       	st.w	r8[0x0],r9
80002e22:	f0 1f 00 d0 	mcall	80003160 <udd_interrupt+0x544>
80002e26:	e0 8f 01 72 	bral	8000310a <udd_interrupt+0x4ee>
80002e2a:	fe f9 03 1a 	ld.w	r9,pc[794]
80002e2e:	92 69       	ld.sh	r9,r9[0xc]
80002e30:	f0 09 19 00 	cp.h	r9,r8
80002e34:	c2 11       	brne	80002e76 <udd_interrupt+0x25a>
80002e36:	fe f8 03 0e 	ld.w	r8,pc[782]
80002e3a:	70 5c       	ld.w	r12,r8[0x14]
80002e3c:	58 0c       	cp.w	r12,0
80002e3e:	c0 81       	brne	80002e4e <udd_interrupt+0x232>
80002e40:	f0 1f 00 c0 	mcall	80003140 <udd_interrupt+0x524>
80002e44:	30 29       	mov	r9,2
80002e46:	fe 68 11 60 	mov	r8,-126624
80002e4a:	91 09       	st.w	r8[0x0],r9
80002e4c:	c5 f9       	rjmp	8000310a <udd_interrupt+0x4ee>
80002e4e:	5d 1c       	icall	r12
80002e50:	c0 81       	brne	80002e60 <udd_interrupt+0x244>
80002e52:	f0 1f 00 bc 	mcall	80003140 <udd_interrupt+0x524>
80002e56:	30 29       	mov	r9,2
80002e58:	fe 68 11 60 	mov	r8,-126624
80002e5c:	91 09       	st.w	r8[0x0],r9
80002e5e:	c5 69       	rjmp	8000310a <udd_interrupt+0x4ee>
80002e60:	fe f9 02 f4 	ld.w	r9,pc[756]
80002e64:	fe f8 02 f4 	ld.w	r8,pc[756]
80002e68:	90 0b       	ld.sh	r11,r8[0x0]
80002e6a:	92 0a       	ld.sh	r10,r9[0x0]
80002e6c:	f6 0a 00 0a 	add	r10,r11,r10
80002e70:	b2 0a       	st.h	r9[0x0],r10
80002e72:	30 09       	mov	r9,0
80002e74:	b0 09       	st.h	r8[0x0],r9
80002e76:	fe 69 11 60 	mov	r9,-126624
80002e7a:	30 28       	mov	r8,2
80002e7c:	93 08       	st.w	r9[0x0],r8
80002e7e:	31 08       	mov	r8,16
80002e80:	93 08       	st.w	r9[0x0],r8
80002e82:	e1 b9 00 00 	mfsr	r9,0x0
80002e86:	50 09       	stdsp	sp[0x0],r9
80002e88:	d3 03       	ssrf	0x10
80002e8a:	40 09       	lddsp	r9,sp[0x0]
80002e8c:	fe 6a 11 f0 	mov	r10,-126480
80002e90:	95 08       	st.w	r10[0x0],r8
80002e92:	12 98       	mov	r8,r9
80002e94:	e6 18 00 01 	andh	r8,0x1,COH
80002e98:	c0 21       	brne	80002e9c <udd_interrupt+0x280>
80002e9a:	d5 03       	csrf	0x10
80002e9c:	c3 79       	rjmp	8000310a <udd_interrupt+0x4ee>
80002e9e:	fe 68 11 30 	mov	r8,-126672
80002ea2:	70 08       	ld.w	r8,r8[0x0]
80002ea4:	f1 d8 c0 01 	bfextu	r8,r8,0x0,0x1
80002ea8:	c0 a0       	breq	80002ebc <udd_interrupt+0x2a0>
80002eaa:	fe 68 11 c0 	mov	r8,-126528
80002eae:	70 08       	ld.w	r8,r8[0x0]
80002eb0:	f1 d8 c0 01 	bfextu	r8,r8,0x0,0x1
80002eb4:	c0 40       	breq	80002ebc <udd_interrupt+0x2a0>
80002eb6:	f0 1f 00 aa 	mcall	8000315c <udd_interrupt+0x540>
80002eba:	c2 89       	rjmp	8000310a <udd_interrupt+0x4ee>
80002ebc:	fe 68 11 30 	mov	r8,-126672
80002ec0:	70 08       	ld.w	r8,r8[0x0]
80002ec2:	e2 18 00 08 	andl	r8,0x8,COH
80002ec6:	c1 80       	breq	80002ef6 <udd_interrupt+0x2da>
80002ec8:	30 89       	mov	r9,8
80002eca:	fe 68 11 60 	mov	r8,-126624
80002ece:	91 09       	st.w	r8[0x0],r9
80002ed0:	fe 68 11 30 	mov	r8,-126672
80002ed4:	70 08       	ld.w	r8,r8[0x0]
80002ed6:	f1 d8 c0 01 	bfextu	r8,r8,0x0,0x1
80002eda:	e0 81 01 18 	brne	8000310a <udd_interrupt+0x4ee>
80002ede:	fe f8 02 52 	ld.w	r8,pc[594]
80002ee2:	70 08       	ld.w	r8,r8[0x0]
80002ee4:	58 38       	cp.w	r8,3
80002ee6:	e0 81 01 12 	brne	8000310a <udd_interrupt+0x4ee>
80002eea:	e8 69 00 00 	mov	r9,524288
80002eee:	fe 68 11 f0 	mov	r8,-126480
80002ef2:	91 09       	st.w	r8[0x0],r9
80002ef4:	c0 b9       	rjmp	8000310a <udd_interrupt+0x4ee>
80002ef6:	fe 68 11 30 	mov	r8,-126672
80002efa:	70 08       	ld.w	r8,r8[0x0]
80002efc:	e2 18 00 10 	andl	r8,0x10,COH
80002f00:	c1 d0       	breq	80002f3a <udd_interrupt+0x31e>
80002f02:	31 09       	mov	r9,16
80002f04:	fe 68 11 60 	mov	r8,-126624
80002f08:	91 09       	st.w	r8[0x0],r9
80002f0a:	fe 68 11 30 	mov	r8,-126672
80002f0e:	70 08       	ld.w	r8,r8[0x0]
80002f10:	e2 18 00 02 	andl	r8,0x2,COH
80002f14:	e0 81 00 fb 	brne	8000310a <udd_interrupt+0x4ee>
80002f18:	fe f8 02 18 	ld.w	r8,pc[536]
80002f1c:	70 08       	ld.w	r8,r8[0x0]
80002f1e:	58 18       	cp.w	r8,1
80002f20:	c0 41       	brne	80002f28 <udd_interrupt+0x30c>
80002f22:	f0 1f 00 90 	mcall	80003160 <udd_interrupt+0x544>
80002f26:	cf 28       	rjmp	8000310a <udd_interrupt+0x4ee>
80002f28:	58 48       	cp.w	r8,4
80002f2a:	e0 81 00 f0 	brne	8000310a <udd_interrupt+0x4ee>
80002f2e:	e8 69 00 00 	mov	r9,524288
80002f32:	fe 68 11 f0 	mov	r8,-126480
80002f36:	91 09       	st.w	r8[0x0],r9
80002f38:	ce 98       	rjmp	8000310a <udd_interrupt+0x4ee>
80002f3a:	30 08       	mov	r8,0
80002f3c:	fe 6b 10 00 	mov	r11,-126976
80002f40:	e0 67 10 00 	mov	r7,4096
80002f44:	f0 cc ff ff 	sub	r12,r8,-1
80002f48:	5c 5c       	castu.b	r12
80002f4a:	76 4a       	ld.w	r10,r11[0x10]
80002f4c:	2f f8       	sub	r8,-1
80002f4e:	ee 08 09 49 	lsl	r9,r7,r8
80002f52:	f3 ea 00 0a 	and	r10,r9,r10
80002f56:	c0 40       	breq	80002f5e <udd_interrupt+0x342>
80002f58:	76 1a       	ld.w	r10,r11[0x4]
80002f5a:	14 69       	and	r9,r10
80002f5c:	c0 41       	brne	80002f64 <udd_interrupt+0x348>
80002f5e:	58 38       	cp.w	r8,3
80002f60:	cf 21       	brne	80002f44 <udd_interrupt+0x328>
80002f62:	cd c8       	rjmp	8000311a <udd_interrupt+0x4fe>
80002f64:	f8 08 15 02 	lsl	r8,r12,0x2
80002f68:	e0 38 ef 00 	sub	r8,126720
80002f6c:	70 08       	ld.w	r8,r8[0x0]
80002f6e:	e2 18 01 00 	andl	r8,0x100,COH
80002f72:	c0 20       	breq	80002f76 <udd_interrupt+0x35a>
80002f74:	a7 bc       	sbr	r12,0x7
80002f76:	f0 1f 00 7c 	mcall	80003164 <udd_interrupt+0x548>
80002f7a:	cc 88       	rjmp	8000310a <udd_interrupt+0x4ee>
80002f7c:	30 87       	mov	r7,8
80002f7e:	fe 68 10 08 	mov	r8,-126968
80002f82:	91 07       	st.w	r8[0x0],r7
80002f84:	30 1c       	mov	r12,1
80002f86:	f0 1f 00 79 	mcall	80003168 <udd_interrupt+0x54c>
80002f8a:	30 2c       	mov	r12,2
80002f8c:	f0 1f 00 77 	mcall	80003168 <udd_interrupt+0x54c>
80002f90:	30 3c       	mov	r12,3
80002f92:	f0 1f 00 76 	mcall	80003168 <udd_interrupt+0x54c>
80002f96:	f0 1f 00 76 	mcall	8000316c <udd_interrupt+0x550>
80002f9a:	fe 68 10 00 	mov	r8,-126976
80002f9e:	70 09       	ld.w	r9,r8[0x0]
80002fa0:	e0 19 ff 80 	andl	r9,0xff80
80002fa4:	91 09       	st.w	r8[0x0],r9
80002fa6:	70 09       	ld.w	r9,r8[0x0]
80002fa8:	a7 b9       	sbr	r9,0x7
80002faa:	91 09       	st.w	r8[0x0],r9
80002fac:	fe 68 11 00 	mov	r8,-126720
80002fb0:	70 09       	ld.w	r9,r8[0x0]
80002fb2:	34 08       	mov	r8,64
80002fb4:	f0 07 0c 47 	max	r7,r8,r7
80002fb8:	e0 68 04 00 	mov	r8,1024
80002fbc:	ee 08 0d 47 	min	r7,r7,r8
80002fc0:	a1 77       	lsl	r7,0x1
80002fc2:	58 17       	cp.w	r7,1
80002fc4:	c0 41       	brne	80002fcc <udd_interrupt+0x3b0>
80002fc6:	e0 68 19 40 	mov	r8,6464
80002fca:	c1 28       	rjmp	80002fee <udd_interrupt+0x3d2>
80002fcc:	30 8a       	mov	r10,8
80002fce:	34 08       	mov	r8,64
80002fd0:	f0 0a 0c 48 	max	r8,r8,r10
80002fd4:	e0 6a 04 00 	mov	r10,1024
80002fd8:	f0 0a 0d 48 	min	r8,r8,r10
80002fdc:	a1 78       	lsl	r8,0x1
80002fde:	20 18       	sub	r8,1
80002fe0:	f0 08 12 00 	clz	r8,r8
80002fe4:	f0 08 11 1c 	rsub	r8,r8,28
80002fe8:	a5 68       	lsl	r8,0x4
80002fea:	e2 18 19 74 	andl	r8,0x1974,COH
80002fee:	e0 19 e6 8b 	andl	r9,0xe68b
80002ff2:	f1 e9 10 09 	or	r9,r8,r9
80002ff6:	fe 68 11 00 	mov	r8,-126720
80002ffa:	91 09       	st.w	r8[0x0],r9
80002ffc:	4d 08       	lddpc	r8,8000313c <udd_interrupt+0x520>
80002ffe:	4d 39       	lddpc	r9,80003148 <udd_interrupt+0x52c>
80003000:	91 09       	st.w	r8[0x0],r9
80003002:	70 19       	ld.w	r9,r8[0x4]
80003004:	30 0a       	mov	r10,0
80003006:	f3 da d2 0f 	bfins	r9,r10,0x10,0xf
8000300a:	91 19       	st.w	r8[0x4],r9
8000300c:	fe 68 10 00 	mov	r8,-126976
80003010:	70 79       	ld.w	r9,r8[0x1c]
80003012:	a1 a9       	sbr	r9,0x0
80003014:	91 79       	st.w	r8[0x1c],r9
80003016:	fc 1a 01 00 	movh	r10,0x100
8000301a:	fe 69 12 20 	mov	r9,-126432
8000301e:	93 0a       	st.w	r9[0x0],r10
80003020:	e1 b9 00 00 	mfsr	r9,0x0
80003024:	50 09       	stdsp	sp[0x0],r9
80003026:	d3 03       	ssrf	0x10
80003028:	40 0a       	lddsp	r10,sp[0x0]
8000302a:	fe 69 11 f0 	mov	r9,-126480
8000302e:	30 4b       	mov	r11,4
80003030:	93 0b       	st.w	r9[0x0],r11
80003032:	30 2b       	mov	r11,2
80003034:	93 0b       	st.w	r9[0x0],r11
80003036:	e0 69 10 00 	mov	r9,4096
8000303a:	91 69       	st.w	r8[0x18],r9
8000303c:	14 98       	mov	r8,r10
8000303e:	e6 18 00 01 	andh	r8,0x1,COH
80003042:	c0 21       	brne	80003046 <udd_interrupt+0x42a>
80003044:	d5 03       	csrf	0x10
80003046:	f0 1f 00 3d 	mcall	80003138 <udd_interrupt+0x51c>
8000304a:	c6 08       	rjmp	8000310a <udd_interrupt+0x4ee>
8000304c:	fe 68 10 10 	mov	r8,-126960
80003050:	70 08       	ld.w	r8,r8[0x0]
80003052:	f1 d8 c0 01 	bfextu	r8,r8,0x0,0x1
80003056:	c1 b0       	breq	8000308c <udd_interrupt+0x470>
80003058:	fe 68 10 04 	mov	r8,-126972
8000305c:	70 08       	ld.w	r8,r8[0x0]
8000305e:	f1 d8 c0 01 	bfextu	r8,r8,0x0,0x1
80003062:	c1 50       	breq	8000308c <udd_interrupt+0x470>
80003064:	fe 68 18 00 	mov	r8,-124928
80003068:	70 09       	ld.w	r9,r8[0x0]
8000306a:	af c9       	cbr	r9,0xe
8000306c:	91 09       	st.w	r8[0x0],r9
8000306e:	30 1a       	mov	r10,1
80003070:	fe 69 10 14 	mov	r9,-126956
80003074:	93 0a       	st.w	r9[0x0],r10
80003076:	31 0a       	mov	r10,16
80003078:	fe 69 10 18 	mov	r9,-126952
8000307c:	93 0a       	st.w	r9[0x0],r10
8000307e:	70 09       	ld.w	r9,r8[0x0]
80003080:	af a9       	sbr	r9,0xe
80003082:	91 09       	st.w	r8[0x0],r9
80003084:	30 0c       	mov	r12,0
80003086:	f0 1f 00 3b 	mcall	80003170 <udd_interrupt+0x554>
8000308a:	c4 08       	rjmp	8000310a <udd_interrupt+0x4ee>
8000308c:	fe 68 10 10 	mov	r8,-126960
80003090:	70 08       	ld.w	r8,r8[0x0]
80003092:	e2 18 00 10 	andl	r8,0x10,COH
80003096:	c1 d0       	breq	800030d0 <udd_interrupt+0x4b4>
80003098:	fe 68 10 04 	mov	r8,-126972
8000309c:	70 08       	ld.w	r8,r8[0x0]
8000309e:	e2 18 00 10 	andl	r8,0x10,COH
800030a2:	c1 70       	breq	800030d0 <udd_interrupt+0x4b4>
800030a4:	fe 68 18 00 	mov	r8,-124928
800030a8:	70 09       	ld.w	r9,r8[0x0]
800030aa:	af c9       	cbr	r9,0xe
800030ac:	91 09       	st.w	r8[0x0],r9
800030ae:	fe 69 18 04 	mov	r9,-124924
800030b2:	72 08       	ld.w	r8,r9[0x0]
800030b4:	e2 18 40 00 	andl	r8,0x4000,COH
800030b8:	cf d0       	breq	800030b2 <udd_interrupt+0x496>
800030ba:	31 09       	mov	r9,16
800030bc:	fe 68 10 14 	mov	r8,-126956
800030c0:	91 09       	st.w	r8[0x0],r9
800030c2:	30 1c       	mov	r12,1
800030c4:	fe 68 10 18 	mov	r8,-126952
800030c8:	91 0c       	st.w	r8[0x0],r12
800030ca:	f0 1f 00 2a 	mcall	80003170 <udd_interrupt+0x554>
800030ce:	c1 e8       	rjmp	8000310a <udd_interrupt+0x4ee>
800030d0:	fe 68 18 04 	mov	r8,-124924
800030d4:	70 08       	ld.w	r8,r8[0x0]
800030d6:	e2 18 00 02 	andl	r8,0x2,COH
800030da:	c1 80       	breq	8000310a <udd_interrupt+0x4ee>
800030dc:	fe 68 18 00 	mov	r8,-124928
800030e0:	70 09       	ld.w	r9,r8[0x0]
800030e2:	af c9       	cbr	r9,0xe
800030e4:	91 09       	st.w	r8[0x0],r9
800030e6:	30 2a       	mov	r10,2
800030e8:	fe 69 18 08 	mov	r9,-124920
800030ec:	93 0a       	st.w	r9[0x0],r10
800030ee:	70 09       	ld.w	r9,r8[0x0]
800030f0:	af a9       	sbr	r9,0xe
800030f2:	91 09       	st.w	r8[0x0],r9
800030f4:	fe 68 18 04 	mov	r8,-124924
800030f8:	70 08       	ld.w	r8,r8[0x0]
800030fa:	e2 18 08 00 	andl	r8,0x800,COH
800030fe:	c0 40       	breq	80003106 <udd_interrupt+0x4ea>
80003100:	f0 1f 00 1d 	mcall	80003174 <udd_interrupt+0x558>
80003104:	c0 38       	rjmp	8000310a <udd_interrupt+0x4ee>
80003106:	f0 1f 00 1d 	mcall	80003178 <udd_interrupt+0x55c>
8000310a:	fe 68 10 00 	mov	r8,-126976
8000310e:	f0 f8 08 18 	ld.w	r8,r8[2072]
80003112:	2f fd       	sub	sp,-4
80003114:	e3 cd 40 80 	ldm	sp++,r7,lr
80003118:	d6 03       	rete
8000311a:	fe 68 10 04 	mov	r8,-126972
8000311e:	70 08       	ld.w	r8,r8[0x0]
80003120:	e2 18 00 08 	andl	r8,0x8,COH
80003124:	fe 91 ff 2c 	brne	80002f7c <udd_interrupt+0x360>
80003128:	c9 2b       	rjmp	8000304c <udd_interrupt+0x430>
8000312a:	00 00       	add	r0,r0
8000312c:	80 00       	ld.sh	r0,r0[0x0]
8000312e:	3a 40       	mov	r0,-92
80003130:	00 00       	add	r0,r0
80003132:	06 a4       	st.w	r3++,r4
80003134:	80 00       	ld.sh	r0,r0[0x0]
80003136:	22 c0       	sub	r0,44
80003138:	80 00       	ld.sh	r0,r0[0x0]
8000313a:	22 80       	sub	r0,40
8000313c:	00 00       	add	r0,r0
8000313e:	06 20       	rsub	r0,r3
80003140:	80 00       	ld.sh	r0,r0[0x0]
80003142:	22 a8       	sub	r8,42
80003144:	00 00       	add	r0,r0
80003146:	0a c8       	st.b	r5++,r8
80003148:	00 00       	add	r0,r0
8000314a:	0a e0       	st.h	--r5,r0
8000314c:	80 00       	ld.sh	r0,r0[0x0]
8000314e:	44 00       	lddsp	r0,sp[0x100]
80003150:	80 00       	ld.sh	r0,r0[0x0]
80003152:	3c c0       	mov	r0,-52
80003154:	00 00       	add	r0,r0
80003156:	05 e2       	ld.ub	r2,r2[0x6]
80003158:	00 00       	add	r0,r0
8000315a:	06 a2       	st.w	r3++,r2
8000315c:	80 00       	ld.sh	r0,r0[0x0]
8000315e:	29 0c       	sub	r12,-112
80003160:	80 00       	ld.sh	r0,r0[0x0]
80003162:	24 bc       	sub	r12,75
80003164:	80 00       	ld.sh	r0,r0[0x0]
80003166:	25 04       	sub	r4,80
80003168:	80 00       	ld.sh	r0,r0[0x0]
8000316a:	22 d4       	sub	r4,45
8000316c:	80 00       	ld.sh	r0,r0[0x0]
8000316e:	3c 60       	mov	r0,-58
80003170:	80 00       	ld.sh	r0,r0[0x0]
80003172:	23 98       	sub	r8,57
80003174:	80 00       	ld.sh	r0,r0[0x0]
80003176:	24 44       	sub	r4,68
80003178:	80 00       	ld.sh	r0,r0[0x0]
8000317a:	24 1c       	sub	r12,65

8000317c <osc_priv_enable_osc0>:
8000317c:	20 1d       	sub	sp,4
8000317e:	e1 b8 00 00 	mfsr	r8,0x0
80003182:	50 08       	stdsp	sp[0x0],r8
80003184:	d3 03       	ssrf	0x10
80003186:	40 09       	lddsp	r9,sp[0x0]
80003188:	fe 78 08 00 	mov	r8,-63488
8000318c:	32 4a       	mov	r10,36
8000318e:	ea 1a aa 00 	orh	r10,0xaa00
80003192:	91 6a       	st.w	r8[0x18],r10
80003194:	e0 7a 0c 07 	mov	r10,68615
80003198:	91 9a       	st.w	r8[0x24],r10
8000319a:	12 98       	mov	r8,r9
8000319c:	e6 18 00 01 	andh	r8,0x1,COH
800031a0:	c0 21       	brne	800031a4 <osc_priv_enable_osc0+0x28>
800031a2:	d5 03       	csrf	0x10
800031a4:	2f fd       	sub	sp,-4
800031a6:	5e fc       	retal	r12

800031a8 <pll_enable>:
800031a8:	20 1d       	sub	sp,4
800031aa:	e1 b8 00 00 	mfsr	r8,0x0
800031ae:	50 08       	stdsp	sp[0x0],r8
800031b0:	d3 03       	ssrf	0x10
800031b2:	40 09       	lddsp	r9,sp[0x0]
800031b4:	2f 9b       	sub	r11,-7
800031b6:	f6 0a 15 02 	lsl	r10,r11,0x2
800031ba:	ea 1a aa 00 	orh	r10,0xaa00
800031be:	fe 78 08 00 	mov	r8,-63488
800031c2:	91 6a       	st.w	r8[0x18],r10
800031c4:	78 0a       	ld.w	r10,r12[0x0]
800031c6:	a1 aa       	sbr	r10,0x0
800031c8:	f0 0b 09 2a 	st.w	r8[r11<<0x2],r10
800031cc:	12 98       	mov	r8,r9
800031ce:	e6 18 00 01 	andh	r8,0x1,COH
800031d2:	c0 21       	brne	800031d6 <pll_enable+0x2e>
800031d4:	d5 03       	csrf	0x10
800031d6:	2f fd       	sub	sp,-4
800031d8:	5e fc       	retal	r12

800031da <sysclk_set_source>:
800031da:	20 1d       	sub	sp,4
800031dc:	e1 b8 00 00 	mfsr	r8,0x0
800031e0:	50 08       	stdsp	sp[0x0],r8
800031e2:	d3 03       	ssrf	0x10
800031e4:	40 09       	lddsp	r9,sp[0x0]
800031e6:	fe 78 04 00 	mov	r8,-64512
800031ea:	fc 1a aa 00 	movh	r10,0xaa00
800031ee:	f1 4a 00 58 	st.w	r8[88],r10
800031f2:	91 0c       	st.w	r8[0x0],r12
800031f4:	12 98       	mov	r8,r9
800031f6:	e6 18 00 01 	andh	r8,0x1,COH
800031fa:	c0 21       	brne	800031fe <sysclk_set_source+0x24>
800031fc:	d5 03       	csrf	0x10
800031fe:	2f fd       	sub	sp,-4
80003200:	5e fc       	retal	r12
80003202:	d7 03       	nop

80003204 <sysclk_enable_usb>:
80003204:	d4 01       	pushm	lr
80003206:	20 1d       	sub	sp,4
80003208:	fe 78 08 00 	mov	r8,-63488
8000320c:	70 58       	ld.w	r8,r8[0x14]
8000320e:	e2 18 00 10 	andl	r8,0x10,COH
80003212:	c2 81       	brne	80003262 <sysclk_enable_usb+0x5e>
80003214:	fe 78 08 00 	mov	r8,-63488
80003218:	70 58       	ld.w	r8,r8[0x14]
8000321a:	f1 d8 c0 01 	bfextu	r8,r8,0x0,0x1
8000321e:	c0 91       	brne	80003230 <sysclk_enable_usb+0x2c>
80003220:	f0 1f 00 15 	mcall	80003274 <sysclk_enable_usb+0x70>
80003224:	fe 79 08 00 	mov	r9,-63488
80003228:	72 58       	ld.w	r8,r9[0x14]
8000322a:	f1 d8 c0 01 	bfextu	r8,r8,0x0,0x1
8000322e:	cf d0       	breq	80003228 <sysclk_enable_usb+0x24>
80003230:	31 08       	mov	r8,16
80003232:	a3 b8       	sbr	r8,0x3
80003234:	50 08       	stdsp	sp[0x0],r8
80003236:	10 99       	mov	r9,r8
80003238:	ea 19 3f 00 	orh	r9,0x3f00
8000323c:	e8 19 01 00 	orl	r9,0x100
80003240:	30 88       	mov	r8,8
80003242:	20 18       	sub	r8,1
80003244:	f3 e8 11 08 	or	r8,r9,r8<<0x10
80003248:	fa cc ff fc 	sub	r12,sp,-4
8000324c:	18 d8       	st.w	--r12,r8
8000324e:	30 0b       	mov	r11,0
80003250:	1a 9c       	mov	r12,sp
80003252:	f0 1f 00 0a 	mcall	80003278 <sysclk_enable_usb+0x74>
80003256:	fe 79 08 00 	mov	r9,-63488
8000325a:	72 58       	ld.w	r8,r9[0x14]
8000325c:	e2 18 00 10 	andl	r8,0x10,COH
80003260:	cf d0       	breq	8000325a <sysclk_enable_usb+0x56>
80003262:	e0 69 05 01 	mov	r9,1281
80003266:	fe 78 08 00 	mov	r8,-63488
8000326a:	f1 49 00 64 	st.w	r8[100],r9
8000326e:	2f fd       	sub	sp,-4
80003270:	d8 02       	popm	pc
80003272:	00 00       	add	r0,r0
80003274:	80 00       	ld.sh	r0,r0[0x0]
80003276:	31 7c       	mov	r12,23
80003278:	80 00       	ld.sh	r0,r0[0x0]
8000327a:	31 a8       	mov	r8,26

8000327c <sysclk_init>:
8000327c:	d4 01       	pushm	lr
8000327e:	f0 1f 00 0a 	mcall	800032a4 <sysclk_init+0x28>
80003282:	fe 78 08 00 	mov	r8,-63488
80003286:	70 59       	ld.w	r9,r8[0x14]
80003288:	f3 d9 c0 01 	bfextu	r9,r9,0x0,0x1
8000328c:	cf d0       	breq	80003286 <sysclk_init+0xa>
8000328e:	e0 6c 1b 00 	mov	r12,6912
80003292:	ea 1c 00 b7 	orh	r12,0xb7
80003296:	f0 1f 00 05 	mcall	800032a8 <sysclk_init+0x2c>
8000329a:	30 1c       	mov	r12,1
8000329c:	f0 1f 00 04 	mcall	800032ac <sysclk_init+0x30>
800032a0:	d8 02       	popm	pc
800032a2:	00 00       	add	r0,r0
800032a4:	80 00       	ld.sh	r0,r0[0x0]
800032a6:	31 7c       	mov	r12,23
800032a8:	80 00       	ld.sh	r0,r0[0x0]
800032aa:	20 14       	sub	r4,1
800032ac:	80 00       	ld.sh	r0,r0[0x0]
800032ae:	31 da       	mov	r10,29

800032b0 <_unhandled_interrupt>:
800032b0:	c0 08       	rjmp	800032b0 <_unhandled_interrupt>
800032b2:	d7 03       	nop

800032b4 <INTC_register_interrupt>:
800032b4:	f6 08 16 05 	lsr	r8,r11,0x5
800032b8:	49 99       	lddpc	r9,8000331c <INTC_register_interrupt+0x68>
800032ba:	f2 08 00 39 	add	r9,r9,r8<<0x3
800032be:	f7 db c0 05 	bfextu	r11,r11,0x0,0x5
800032c2:	72 19       	ld.w	r9,r9[0x4]
800032c4:	f2 0b 09 2c 	st.w	r9[r11<<0x2],r12
800032c8:	58 0a       	cp.w	r10,0
800032ca:	c0 91       	brne	800032dc <INTC_register_interrupt+0x28>
800032cc:	49 59       	lddpc	r9,80003320 <INTC_register_interrupt+0x6c>
800032ce:	49 6a       	lddpc	r10,80003324 <INTC_register_interrupt+0x70>
800032d0:	12 1a       	sub	r10,r9
800032d2:	fe 79 00 00 	mov	r9,-65536
800032d6:	f2 08 09 2a 	st.w	r9[r8<<0x2],r10
800032da:	5e fc       	retal	r12
800032dc:	58 1a       	cp.w	r10,1
800032de:	c0 a1       	brne	800032f2 <INTC_register_interrupt+0x3e>
800032e0:	49 09       	lddpc	r9,80003320 <INTC_register_interrupt+0x6c>
800032e2:	49 2a       	lddpc	r10,80003328 <INTC_register_interrupt+0x74>
800032e4:	12 1a       	sub	r10,r9
800032e6:	bf aa       	sbr	r10,0x1e
800032e8:	fe 79 00 00 	mov	r9,-65536
800032ec:	f2 08 09 2a 	st.w	r9[r8<<0x2],r10
800032f0:	5e fc       	retal	r12
800032f2:	58 2a       	cp.w	r10,2
800032f4:	c0 a1       	brne	80003308 <INTC_register_interrupt+0x54>
800032f6:	48 b9       	lddpc	r9,80003320 <INTC_register_interrupt+0x6c>
800032f8:	48 da       	lddpc	r10,8000332c <INTC_register_interrupt+0x78>
800032fa:	12 1a       	sub	r10,r9
800032fc:	bf ba       	sbr	r10,0x1f
800032fe:	fe 79 00 00 	mov	r9,-65536
80003302:	f2 08 09 2a 	st.w	r9[r8<<0x2],r10
80003306:	5e fc       	retal	r12
80003308:	48 69       	lddpc	r9,80003320 <INTC_register_interrupt+0x6c>
8000330a:	48 aa       	lddpc	r10,80003330 <INTC_register_interrupt+0x7c>
8000330c:	12 1a       	sub	r10,r9
8000330e:	ea 1a c0 00 	orh	r10,0xc000
80003312:	fe 79 00 00 	mov	r9,-65536
80003316:	f2 08 09 2a 	st.w	r9[r8<<0x2],r10
8000331a:	5e fc       	retal	r12
8000331c:	80 00       	ld.sh	r0,r0[0x0]
8000331e:	d6 00       	acall	0x60
80003320:	80 00       	ld.sh	r0,r0[0x0]
80003322:	d4 00       	acall	0x40
80003324:	80 00       	ld.sh	r0,r0[0x0]
80003326:	d5 04       	*unknown*
80003328:	80 00       	ld.sh	r0,r0[0x0]
8000332a:	d5 12       	popm	r0-r3,r11,lr
8000332c:	80 00       	ld.sh	r0,r0[0x0]
8000332e:	d5 20       	acall	0x52
80003330:	80 00       	ld.sh	r0,r0[0x0]
80003332:	d5 2e       	*unknown*

80003334 <INTC_init_interrupts>:
80003334:	d4 21       	pushm	r4-r7,lr
80003336:	49 18       	lddpc	r8,80003378 <INTC_init_interrupts+0x44>
80003338:	e3 b8 00 01 	mtsr	0x4,r8
8000333c:	49 0e       	lddpc	lr,8000337c <INTC_init_interrupts+0x48>
8000333e:	30 07       	mov	r7,0
80003340:	0e 94       	mov	r4,r7
80003342:	49 0c       	lddpc	r12,80003380 <INTC_init_interrupts+0x4c>
80003344:	49 05       	lddpc	r5,80003384 <INTC_init_interrupts+0x50>
80003346:	10 15       	sub	r5,r8
80003348:	fe 76 00 00 	mov	r6,-65536
8000334c:	c1 18       	rjmp	8000336e <INTC_init_interrupts+0x3a>
8000334e:	08 98       	mov	r8,r4
80003350:	7c 1b       	ld.w	r11,lr[0x4]
80003352:	7c 0a       	ld.w	r10,lr[0x0]
80003354:	f6 08 09 2c 	st.w	r11[r8<<0x2],r12
80003358:	2f f8       	sub	r8,-1
8000335a:	10 3a       	cp.w	r10,r8
8000335c:	fe 9b ff fc 	brhi	80003354 <INTC_init_interrupts+0x20>
80003360:	ec 07 09 25 	st.w	r6[r7<<0x2],r5
80003364:	2f f7       	sub	r7,-1
80003366:	2f 8e       	sub	lr,-8
80003368:	e0 47 00 2f 	cp.w	r7,47
8000336c:	c0 50       	breq	80003376 <INTC_init_interrupts+0x42>
8000336e:	7c 08       	ld.w	r8,lr[0x0]
80003370:	58 08       	cp.w	r8,0
80003372:	ce e1       	brne	8000334e <INTC_init_interrupts+0x1a>
80003374:	cf 6b       	rjmp	80003360 <INTC_init_interrupts+0x2c>
80003376:	d8 22       	popm	r4-r7,pc
80003378:	80 00       	ld.sh	r0,r0[0x0]
8000337a:	d4 00       	acall	0x40
8000337c:	80 00       	ld.sh	r0,r0[0x0]
8000337e:	d6 00       	acall	0x60
80003380:	80 00       	ld.sh	r0,r0[0x0]
80003382:	32 b0       	mov	r0,43
80003384:	80 00       	ld.sh	r0,r0[0x0]
80003386:	d5 04       	*unknown*

80003388 <_get_interrupt_handler>:
80003388:	fe 78 00 00 	mov	r8,-65536
8000338c:	e0 69 00 83 	mov	r9,131
80003390:	f2 0c 01 0c 	sub	r12,r9,r12
80003394:	f0 0c 03 29 	ld.w	r9,r8[r12<<0x2]
80003398:	f2 ca ff c0 	sub	r10,r9,-64
8000339c:	f0 0a 03 28 	ld.w	r8,r8[r10<<0x2]
800033a0:	58 08       	cp.w	r8,0
800033a2:	c0 21       	brne	800033a6 <_get_interrupt_handler+0x1e>
800033a4:	5e fd       	retal	0
800033a6:	f0 08 12 00 	clz	r8,r8
800033aa:	48 5a       	lddpc	r10,800033bc <_get_interrupt_handler+0x34>
800033ac:	f4 09 00 39 	add	r9,r10,r9<<0x3
800033b0:	f0 08 11 1f 	rsub	r8,r8,31
800033b4:	72 19       	ld.w	r9,r9[0x4]
800033b6:	f2 08 03 2c 	ld.w	r12,r9[r8<<0x2]
800033ba:	5e fc       	retal	r12
800033bc:	80 00       	ld.sh	r0,r0[0x0]
800033be:	d6 00       	acall	0x60

800033c0 <_stext>:
800033c0:	e0 6d 80 00 	mov	sp,32768
800033c4:	48 e0       	lddpc	r0,800033fc <udata_clear_loop_end+0x6>
800033c6:	e3 b0 00 01 	mtsr	0x4,r0
800033ca:	d5 53       	csrf	0x15
800033cc:	30 40       	mov	r0,4
800033ce:	e0 61 05 d8 	mov	r1,1496
800033d2:	02 30       	cp.w	r0,r1
800033d4:	c0 62       	brcc	800033e0 <idata_load_loop_end>
800033d6:	48 b2       	lddpc	r2,80003400 <udata_clear_loop_end+0xa>

800033d8 <idata_load_loop>:
800033d8:	a5 05       	ld.d	r4,r2++
800033da:	a1 24       	st.d	r0++,r4
800033dc:	02 30       	cp.w	r0,r1
800033de:	cf d3       	brcs	800033d8 <idata_load_loop>

800033e0 <idata_load_loop_end>:
800033e0:	e0 60 05 d8 	mov	r0,1496
800033e4:	e0 61 0c 40 	mov	r1,3136
800033e8:	02 30       	cp.w	r0,r1
800033ea:	c0 62       	brcc	800033f6 <udata_clear_loop_end>
800033ec:	30 02       	mov	r2,0
800033ee:	30 03       	mov	r3,0

800033f0 <udata_clear_loop>:
800033f0:	a1 22       	st.d	r0++,r2
800033f2:	02 30       	cp.w	r0,r1
800033f4:	cf e3       	brcs	800033f0 <udata_clear_loop>

800033f6 <udata_clear_loop_end>:
800033f6:	fe cf f0 ce 	sub	pc,pc,-3890
800033fa:	d7 03       	nop
800033fc:	80 00       	ld.sh	r0,r0[0x0]
800033fe:	d4 00       	acall	0x40
80003400:	80 00       	ld.sh	r0,r0[0x0]
80003402:	de b8       	*unknown*

80003404 <board_init>:
80003404:	5e fc       	retal	r12
80003406:	d7 03       	nop

80003408 <udi_cdc_comm_enable>:
80003408:	49 0a       	lddpc	r10,80003448 <udi_cdc_comm_enable+0x40>
8000340a:	30 0b       	mov	r11,0
8000340c:	b4 8b       	st.b	r10[0x0],r11
8000340e:	30 09       	mov	r9,0
80003410:	48 f8       	lddpc	r8,8000344c <udi_cdc_comm_enable+0x44>
80003412:	b0 09       	st.h	r8[0x0],r9
80003414:	48 f8       	lddpc	r8,80003450 <udi_cdc_comm_enable+0x48>
80003416:	3a 1c       	mov	r12,-95
80003418:	b0 8c       	st.b	r8[0x0],r12
8000341a:	32 0c       	mov	r12,32
8000341c:	b0 9c       	st.b	r8[0x1],r12
8000341e:	b0 19       	st.h	r8[0x2],r9
80003420:	b0 29       	st.h	r8[0x4],r9
80003422:	e0 6c 02 00 	mov	r12,512
80003426:	b0 3c       	st.h	r8[0x6],r12
80003428:	b0 49       	st.h	r8[0x8],r9
8000342a:	48 b8       	lddpc	r8,80003454 <udi_cdc_comm_enable+0x4c>
8000342c:	e0 69 01 00 	mov	r9,256
80003430:	ea 19 00 c2 	orh	r9,0xc2
80003434:	91 09       	st.w	r8[0x0],r9
80003436:	b0 cb       	st.b	r8[0x4],r11
80003438:	b0 db       	st.b	r8[0x5],r11
8000343a:	30 89       	mov	r9,8
8000343c:	b0 e9       	st.b	r8[0x6],r9
8000343e:	15 88       	ld.ub	r8,r10[0x0]
80003440:	2f f8       	sub	r8,-1
80003442:	b4 88       	st.b	r10[0x0],r8
80003444:	5e ff       	retal	1
80003446:	00 00       	add	r0,r0
80003448:	00 00       	add	r0,r0
8000344a:	09 0c       	ld.w	r12,r4++
8000344c:	00 00       	add	r0,r0
8000344e:	09 b0       	ld.ub	r0,r4[0x3]
80003450:	00 00       	add	r0,r0
80003452:	09 1c       	ld.sh	r12,r4++
80003454:	00 00       	add	r0,r0
80003456:	08 74       	tst	r4,r4

80003458 <udi_cdc_comm_disable>:
80003458:	48 38       	lddpc	r8,80003464 <udi_cdc_comm_disable+0xc>
8000345a:	11 89       	ld.ub	r9,r8[0x0]
8000345c:	20 19       	sub	r9,1
8000345e:	b0 89       	st.b	r8[0x0],r9
80003460:	5e fc       	retal	r12
80003462:	00 00       	add	r0,r0
80003464:	00 00       	add	r0,r0
80003466:	09 0c       	ld.w	r12,r4++

80003468 <udi_cdc_data_disable>:
80003468:	48 58       	lddpc	r8,8000347c <udi_cdc_data_disable+0x14>
8000346a:	11 89       	ld.ub	r9,r8[0x0]
8000346c:	20 19       	sub	r9,1
8000346e:	b0 89       	st.b	r8[0x0],r9
80003470:	11 88       	ld.ub	r8,r8[0x0]
80003472:	30 09       	mov	r9,0
80003474:	48 38       	lddpc	r8,80003480 <udi_cdc_data_disable+0x18>
80003476:	b0 89       	st.b	r8[0x0],r9
80003478:	5e fc       	retal	r12
8000347a:	00 00       	add	r0,r0
8000347c:	00 00       	add	r0,r0
8000347e:	08 7c       	tst	r12,r4
80003480:	00 00       	add	r0,r0
80003482:	09 12       	ld.sh	r2,r4++

80003484 <udi_cdc_data_setup>:
80003484:	5e fd       	retal	0

80003486 <udi_cdc_getsetting>:
80003486:	5e fd       	retal	0

80003488 <udi_cdc_setup_to_port>:
80003488:	5e fd       	retal	0
8000348a:	d7 03       	nop

8000348c <udi_cdc_comm_setup>:
8000348c:	d4 01       	pushm	lr
8000348e:	f0 1f 00 25 	mcall	80003520 <udi_cdc_comm_setup+0x94>
80003492:	4a 58       	lddpc	r8,80003524 <udi_cdc_comm_setup+0x98>
80003494:	11 88       	ld.ub	r8,r8[0x0]
80003496:	30 09       	mov	r9,0
80003498:	f2 08 18 00 	cp.b	r8,r9
8000349c:	c1 d4       	brge	800034d6 <udi_cdc_comm_setup+0x4a>
8000349e:	e2 18 00 60 	andl	r8,0x60,COH
800034a2:	e0 48 00 20 	cp.w	r8,32
800034a6:	c3 c1       	brne	8000351e <udi_cdc_comm_setup+0x92>
800034a8:	49 f8       	lddpc	r8,80003524 <udi_cdc_comm_setup+0x98>
800034aa:	11 99       	ld.ub	r9,r8[0x1]
800034ac:	32 18       	mov	r8,33
800034ae:	f0 09 18 00 	cp.b	r9,r8
800034b2:	c3 61       	brne	8000351e <udi_cdc_comm_setup+0x92>
800034b4:	49 c8       	lddpc	r8,80003524 <udi_cdc_comm_setup+0x98>
800034b6:	90 39       	ld.sh	r9,r8[0x6]
800034b8:	30 78       	mov	r8,7
800034ba:	f0 09 19 00 	cp.h	r9,r8
800034be:	c3 01       	brne	8000351e <udi_cdc_comm_setup+0x92>
800034c0:	49 98       	lddpc	r8,80003524 <udi_cdc_comm_setup+0x98>
800034c2:	f8 09 15 03 	lsl	r9,r12,0x3
800034c6:	f2 0c 01 0c 	sub	r12,r9,r12
800034ca:	49 89       	lddpc	r9,80003528 <udi_cdc_comm_setup+0x9c>
800034cc:	18 09       	add	r9,r12
800034ce:	91 29       	st.w	r8[0x8],r9
800034d0:	30 79       	mov	r9,7
800034d2:	b0 69       	st.h	r8[0xc],r9
800034d4:	da 0a       	popm	pc,r12=1
800034d6:	e2 18 00 60 	andl	r8,0x60,COH
800034da:	e0 48 00 20 	cp.w	r8,32
800034de:	c2 01       	brne	8000351e <udi_cdc_comm_setup+0x92>
800034e0:	49 18       	lddpc	r8,80003524 <udi_cdc_comm_setup+0x98>
800034e2:	11 98       	ld.ub	r8,r8[0x1]
800034e4:	32 09       	mov	r9,32
800034e6:	f2 08 18 00 	cp.b	r8,r9
800034ea:	c0 60       	breq	800034f6 <udi_cdc_comm_setup+0x6a>
800034ec:	32 29       	mov	r9,34
800034ee:	f2 08 18 00 	cp.b	r8,r9
800034f2:	c1 61       	brne	8000351e <udi_cdc_comm_setup+0x92>
800034f4:	da 0a       	popm	pc,r12=1
800034f6:	48 c8       	lddpc	r8,80003524 <udi_cdc_comm_setup+0x98>
800034f8:	90 39       	ld.sh	r9,r8[0x6]
800034fa:	30 78       	mov	r8,7
800034fc:	f0 09 19 00 	cp.h	r9,r8
80003500:	c0 f1       	brne	8000351e <udi_cdc_comm_setup+0x92>
80003502:	48 98       	lddpc	r8,80003524 <udi_cdc_comm_setup+0x98>
80003504:	48 a9       	lddpc	r9,8000352c <udi_cdc_comm_setup+0xa0>
80003506:	91 49       	st.w	r8[0x10],r9
80003508:	f8 09 15 03 	lsl	r9,r12,0x3
8000350c:	f2 0c 01 0c 	sub	r12,r9,r12
80003510:	48 69       	lddpc	r9,80003528 <udi_cdc_comm_setup+0x9c>
80003512:	f2 0c 00 0c 	add	r12,r9,r12
80003516:	91 2c       	st.w	r8[0x8],r12
80003518:	30 79       	mov	r9,7
8000351a:	b0 69       	st.h	r8[0xc],r9
8000351c:	da 0a       	popm	pc,r12=1
8000351e:	d8 0a       	popm	pc,r12=0
80003520:	80 00       	ld.sh	r0,r0[0x0]
80003522:	34 88       	mov	r8,72
80003524:	00 00       	add	r0,r0
80003526:	0a c8       	st.b	r5++,r8
80003528:	00 00       	add	r0,r0
8000352a:	08 74       	tst	r4,r4
8000352c:	80 00       	ld.sh	r0,r0[0x0]
8000352e:	35 30       	mov	r0,83

80003530 <udi_cdc_line_coding_received>:
80003530:	5e fc       	retal	r12
80003532:	d7 03       	nop

80003534 <udi_cdc_multi_get_free_tx_buffer>:
80003534:	20 1d       	sub	sp,4
80003536:	e1 b8 00 00 	mfsr	r8,0x0
8000353a:	50 08       	stdsp	sp[0x0],r8
8000353c:	d3 03       	ssrf	0x10
8000353e:	40 09       	lddsp	r9,sp[0x0]
80003540:	49 18       	lddpc	r8,80003584 <udi_cdc_multi_get_free_tx_buffer+0x50>
80003542:	11 88       	ld.ub	r8,r8[0x0]
80003544:	49 1a       	lddpc	r10,80003588 <udi_cdc_multi_get_free_tx_buffer+0x54>
80003546:	f4 08 05 1c 	ld.uh	r12,r10[r8<<0x1]
8000354a:	e0 4c 00 40 	cp.w	r12,64
8000354e:	c1 11       	brne	80003570 <udi_cdc_multi_get_free_tx_buffer+0x3c>
80003550:	48 fa       	lddpc	r10,8000358c <udi_cdc_multi_get_free_tx_buffer+0x58>
80003552:	15 8a       	ld.ub	r10,r10[0x0]
80003554:	58 0a       	cp.w	r10,0
80003556:	c0 d1       	brne	80003570 <udi_cdc_multi_get_free_tx_buffer+0x3c>
80003558:	48 ea       	lddpc	r10,80003590 <udi_cdc_multi_get_free_tx_buffer+0x5c>
8000355a:	15 8a       	ld.ub	r10,r10[0x0]
8000355c:	58 0a       	cp.w	r10,0
8000355e:	c0 91       	brne	80003570 <udi_cdc_multi_get_free_tx_buffer+0x3c>
80003560:	30 1b       	mov	r11,1
80003562:	48 ca       	lddpc	r10,80003590 <udi_cdc_multi_get_free_tx_buffer+0x5c>
80003564:	b4 8b       	st.b	r10[0x0],r11
80003566:	58 08       	cp.w	r8,0
80003568:	5f 0a       	sreq	r10
8000356a:	48 78       	lddpc	r8,80003584 <udi_cdc_multi_get_free_tx_buffer+0x50>
8000356c:	b0 8a       	st.b	r8[0x0],r10
8000356e:	30 0c       	mov	r12,0
80003570:	12 98       	mov	r8,r9
80003572:	e6 18 00 01 	andh	r8,0x1,COH
80003576:	c0 21       	brne	8000357a <udi_cdc_multi_get_free_tx_buffer+0x46>
80003578:	d5 03       	csrf	0x10
8000357a:	f8 0c 11 40 	rsub	r12,r12,64
8000357e:	2f fd       	sub	sp,-4
80003580:	5e fc       	retal	r12
80003582:	00 00       	add	r0,r0
80003584:	00 00       	add	r0,r0
80003586:	08 80       	andn	r0,r4
80003588:	00 00       	add	r0,r0
8000358a:	08 84       	andn	r4,r4
8000358c:	00 00       	add	r0,r0
8000358e:	09 18       	ld.sh	r8,r4++
80003590:	00 00       	add	r0,r0
80003592:	09 ac       	ld.ub	r12,r4[0x2]

80003594 <udi_cdc_multi_is_tx_ready>:
80003594:	d4 01       	pushm	lr
80003596:	f0 1f 00 03 	mcall	800035a0 <udi_cdc_multi_is_tx_ready+0xc>
8000359a:	5f 1c       	srne	r12
8000359c:	d8 02       	popm	pc
8000359e:	00 00       	add	r0,r0
800035a0:	80 00       	ld.sh	r0,r0[0x0]
800035a2:	35 34       	mov	r4,83

800035a4 <udi_cdc_multi_putc>:
800035a4:	eb cd 40 fe 	pushm	r1-r7,lr
800035a8:	20 1d       	sub	sp,4
800035aa:	16 96       	mov	r6,r11
800035ac:	49 b8       	lddpc	r8,80003618 <udi_cdc_multi_putc+0x74>
800035ae:	11 e9       	ld.ub	r9,r8[0x6]
800035b0:	30 98       	mov	r8,9
800035b2:	f0 09 18 00 	cp.b	r9,r8
800035b6:	5f 03       	sreq	r3
800035b8:	30 07       	mov	r7,0
800035ba:	49 95       	lddpc	r5,8000361c <udi_cdc_multi_putc+0x78>
800035bc:	49 92       	lddpc	r2,80003620 <udi_cdc_multi_putc+0x7c>
800035be:	49 a4       	lddpc	r4,80003624 <udi_cdc_multi_putc+0x80>
800035c0:	49 a1       	lddpc	r1,80003628 <udi_cdc_multi_putc+0x84>
800035c2:	0e 9c       	mov	r12,r7
800035c4:	f0 1f 00 1a 	mcall	8000362c <udi_cdc_multi_putc+0x88>
800035c8:	c0 51       	brne	800035d2 <udi_cdc_multi_putc+0x2e>
800035ca:	0b 88       	ld.ub	r8,r5[0x0]
800035cc:	58 08       	cp.w	r8,0
800035ce:	cf a1       	brne	800035c2 <udi_cdc_multi_putc+0x1e>
800035d0:	c2 08       	rjmp	80003610 <udi_cdc_multi_putc+0x6c>
800035d2:	e1 b8 00 00 	mfsr	r8,0x0
800035d6:	50 08       	stdsp	sp[0x0],r8
800035d8:	d3 03       	ssrf	0x10
800035da:	40 0a       	lddsp	r10,sp[0x0]
800035dc:	05 88       	ld.ub	r8,r2[0x0]
800035de:	e8 08 04 19 	ld.sh	r9,r4[r8<<0x1]
800035e2:	f7 d9 c0 10 	bfextu	r11,r9,0x0,0x10
800035e6:	f0 0c 15 06 	lsl	r12,r8,0x6
800035ea:	f8 0b 00 0b 	add	r11,r12,r11
800035ee:	e2 0b 0b 06 	st.b	r1[r11],r6
800035f2:	2f f9       	sub	r9,-1
800035f4:	e8 08 0a 19 	st.h	r4[r8<<0x1],r9
800035f8:	14 98       	mov	r8,r10
800035fa:	e6 18 00 01 	andh	r8,0x1,COH
800035fe:	c0 21       	brne	80003602 <udi_cdc_multi_putc+0x5e>
80003600:	d5 03       	csrf	0x10
80003602:	58 03       	cp.w	r3,0
80003604:	c0 31       	brne	8000360a <udi_cdc_multi_putc+0x66>
80003606:	30 1c       	mov	r12,1
80003608:	c0 58       	rjmp	80003612 <udi_cdc_multi_putc+0x6e>
8000360a:	a9 46       	asr	r6,0x8
8000360c:	0e 93       	mov	r3,r7
8000360e:	cd ab       	rjmp	800035c2 <udi_cdc_multi_putc+0x1e>
80003610:	30 0c       	mov	r12,0
80003612:	2f fd       	sub	sp,-4
80003614:	e3 cd 80 fe 	ldm	sp++,r1-r7,pc
80003618:	00 00       	add	r0,r0
8000361a:	08 74       	tst	r4,r4
8000361c:	00 00       	add	r0,r0
8000361e:	09 12       	ld.sh	r2,r4++
80003620:	00 00       	add	r0,r0
80003622:	08 80       	andn	r0,r4
80003624:	00 00       	add	r0,r0
80003626:	08 84       	andn	r4,r4
80003628:	00 00       	add	r0,r0
8000362a:	08 88       	andn	r8,r4
8000362c:	80 00       	ld.sh	r0,r0[0x0]
8000362e:	35 94       	mov	r4,89

80003630 <udi_cdc_putc>:
80003630:	d4 01       	pushm	lr
80003632:	18 9b       	mov	r11,r12
80003634:	30 0c       	mov	r12,0
80003636:	f0 1f 00 02 	mcall	8000363c <udi_cdc_putc+0xc>
8000363a:	d8 02       	popm	pc
8000363c:	80 00       	ld.sh	r0,r0[0x0]
8000363e:	35 a4       	mov	r4,90

80003640 <udi_cdc_multi_get_nb_received_data>:
80003640:	20 1d       	sub	sp,4
80003642:	e1 b8 00 00 	mfsr	r8,0x0
80003646:	50 08       	stdsp	sp[0x0],r8
80003648:	d3 03       	ssrf	0x10
8000364a:	40 09       	lddsp	r9,sp[0x0]
8000364c:	48 88       	lddpc	r8,8000366c <udi_cdc_multi_get_nb_received_data+0x2c>
8000364e:	90 08       	ld.sh	r8,r8[0x0]
80003650:	48 8a       	lddpc	r10,80003670 <udi_cdc_multi_get_nb_received_data+0x30>
80003652:	15 8b       	ld.ub	r11,r10[0x0]
80003654:	48 8a       	lddpc	r10,80003674 <udi_cdc_multi_get_nb_received_data+0x34>
80003656:	f4 0b 04 1c 	ld.sh	r12,r10[r11<<0x1]
8000365a:	e6 19 00 01 	andh	r9,0x1,COH
8000365e:	c0 21       	brne	80003662 <udi_cdc_multi_get_nb_received_data+0x22>
80003660:	d5 03       	csrf	0x10
80003662:	5c 7c       	castu.h	r12
80003664:	5c 78       	castu.h	r8
80003666:	10 1c       	sub	r12,r8
80003668:	2f fd       	sub	sp,-4
8000366a:	5e fc       	retal	r12
8000366c:	00 00       	add	r0,r0
8000366e:	09 0e       	ld.w	lr,r4++
80003670:	00 00       	add	r0,r0
80003672:	09 14       	ld.sh	r4,r4++
80003674:	00 00       	add	r0,r0
80003676:	09 08       	ld.w	r8,r4++

80003678 <udi_cdc_multi_is_rx_ready>:
80003678:	d4 01       	pushm	lr
8000367a:	f0 1f 00 03 	mcall	80003684 <udi_cdc_multi_is_rx_ready+0xc>
8000367e:	5f 1c       	srne	r12
80003680:	d8 02       	popm	pc
80003682:	00 00       	add	r0,r0
80003684:	80 00       	ld.sh	r0,r0[0x0]
80003686:	36 40       	mov	r0,100

80003688 <udi_cdc_is_rx_ready>:
80003688:	d4 01       	pushm	lr
8000368a:	30 0c       	mov	r12,0
8000368c:	f0 1f 00 02 	mcall	80003694 <udi_cdc_is_rx_ready+0xc>
80003690:	d8 02       	popm	pc
80003692:	00 00       	add	r0,r0
80003694:	80 00       	ld.sh	r0,r0[0x0]
80003696:	36 78       	mov	r8,103

80003698 <udi_cdc_rx_start>:
80003698:	eb cd 40 80 	pushm	r7,lr
8000369c:	20 1d       	sub	sp,4
8000369e:	e1 b8 00 00 	mfsr	r8,0x0
800036a2:	50 08       	stdsp	sp[0x0],r8
800036a4:	d3 03       	ssrf	0x10
800036a6:	40 08       	lddsp	r8,sp[0x0]
800036a8:	49 99       	lddpc	r9,8000370c <udi_cdc_rx_start+0x74>
800036aa:	13 87       	ld.ub	r7,r9[0x0]
800036ac:	49 99       	lddpc	r9,80003710 <udi_cdc_rx_start+0x78>
800036ae:	13 89       	ld.ub	r9,r9[0x0]
800036b0:	58 09       	cp.w	r9,0
800036b2:	c0 91       	brne	800036c4 <udi_cdc_rx_start+0x2c>
800036b4:	49 89       	lddpc	r9,80003714 <udi_cdc_rx_start+0x7c>
800036b6:	92 0a       	ld.sh	r10,r9[0x0]
800036b8:	49 89       	lddpc	r9,80003718 <udi_cdc_rx_start+0x80>
800036ba:	f2 07 04 19 	ld.sh	r9,r9[r7<<0x1]
800036be:	f2 0a 19 00 	cp.h	r10,r9
800036c2:	c0 72       	brcc	800036d0 <udi_cdc_rx_start+0x38>
800036c4:	e6 18 00 01 	andh	r8,0x1,COH
800036c8:	c0 21       	brne	800036cc <udi_cdc_rx_start+0x34>
800036ca:	d5 03       	csrf	0x10
800036cc:	30 0c       	mov	r12,0
800036ce:	c1 b8       	rjmp	80003704 <udi_cdc_rx_start+0x6c>
800036d0:	30 0a       	mov	r10,0
800036d2:	49 19       	lddpc	r9,80003714 <udi_cdc_rx_start+0x7c>
800036d4:	b2 0a       	st.h	r9[0x0],r10
800036d6:	58 07       	cp.w	r7,0
800036d8:	5f 0a       	sreq	r10
800036da:	48 d9       	lddpc	r9,8000370c <udi_cdc_rx_start+0x74>
800036dc:	b2 8a       	st.b	r9[0x0],r10
800036de:	30 1a       	mov	r10,1
800036e0:	48 c9       	lddpc	r9,80003710 <udi_cdc_rx_start+0x78>
800036e2:	b2 8a       	st.b	r9[0x0],r10
800036e4:	e6 18 00 01 	andh	r8,0x1,COH
800036e8:	c0 21       	brne	800036ec <udi_cdc_rx_start+0x54>
800036ea:	d5 03       	csrf	0x10
800036ec:	30 0c       	mov	r12,0
800036ee:	f0 1f 00 0c 	mcall	8000371c <udi_cdc_rx_start+0x84>
800036f2:	a7 67       	lsl	r7,0x6
800036f4:	48 b8       	lddpc	r8,80003720 <udi_cdc_rx_start+0x88>
800036f6:	34 09       	mov	r9,64
800036f8:	48 ba       	lddpc	r10,80003724 <udi_cdc_rx_start+0x8c>
800036fa:	0e 0a       	add	r10,r7
800036fc:	30 1b       	mov	r11,1
800036fe:	30 2c       	mov	r12,2
80003700:	f0 1f 00 0a 	mcall	80003728 <udi_cdc_rx_start+0x90>
80003704:	2f fd       	sub	sp,-4
80003706:	e3 cd 80 80 	ldm	sp++,r7,pc
8000370a:	00 00       	add	r0,r0
8000370c:	00 00       	add	r0,r0
8000370e:	09 14       	ld.sh	r4,r4++
80003710:	00 00       	add	r0,r0
80003712:	09 a8       	ld.ub	r8,r4[0x2]
80003714:	00 00       	add	r0,r0
80003716:	09 0e       	ld.w	lr,r4++
80003718:	00 00       	add	r0,r0
8000371a:	09 08       	ld.w	r8,r4++
8000371c:	80 00       	ld.sh	r0,r0[0x0]
8000371e:	36 78       	mov	r8,103
80003720:	80 00       	ld.sh	r0,r0[0x0]
80003722:	37 c8       	mov	r8,124
80003724:	00 00       	add	r0,r0
80003726:	09 28       	ld.uh	r8,r4++
80003728:	80 00       	ld.sh	r0,r0[0x0]
8000372a:	28 10       	sub	r0,-127

8000372c <udi_cdc_multi_getc>:
8000372c:	d4 31       	pushm	r0-r7,lr
8000372e:	20 1d       	sub	sp,4
80003730:	49 b8       	lddpc	r8,8000379c <udi_cdc_multi_getc+0x70>
80003732:	11 e9       	ld.ub	r9,r8[0x6]
80003734:	30 98       	mov	r8,9
80003736:	f0 09 18 00 	cp.b	r9,r8
8000373a:	5f 02       	sreq	r2
8000373c:	30 03       	mov	r3,0
8000373e:	49 97       	lddpc	r7,800037a0 <udi_cdc_multi_getc+0x74>
80003740:	49 96       	lddpc	r6,800037a4 <udi_cdc_multi_getc+0x78>
80003742:	49 a5       	lddpc	r5,800037a8 <udi_cdc_multi_getc+0x7c>
80003744:	49 a0       	lddpc	r0,800037ac <udi_cdc_multi_getc+0x80>
80003746:	06 91       	mov	r1,r3
80003748:	49 a4       	lddpc	r4,800037b0 <udi_cdc_multi_getc+0x84>
8000374a:	e1 b8 00 00 	mfsr	r8,0x0
8000374e:	50 08       	stdsp	sp[0x0],r8
80003750:	d3 03       	ssrf	0x10
80003752:	40 0b       	lddsp	r11,sp[0x0]
80003754:	8e 08       	ld.sh	r8,r7[0x0]
80003756:	0d 89       	ld.ub	r9,r6[0x0]
80003758:	ea 09 04 1a 	ld.sh	r10,r5[r9<<0x1]
8000375c:	e6 1b 00 01 	andh	r11,0x1,COH
80003760:	c0 21       	brne	80003764 <udi_cdc_multi_getc+0x38>
80003762:	d5 03       	csrf	0x10
80003764:	f4 08 19 00 	cp.h	r8,r10
80003768:	c0 53       	brcs	80003772 <udi_cdc_multi_getc+0x46>
8000376a:	09 88       	ld.ub	r8,r4[0x0]
8000376c:	58 08       	cp.w	r8,0
8000376e:	ce e1       	brne	8000374a <udi_cdc_multi_getc+0x1e>
80003770:	c1 28       	rjmp	80003794 <udi_cdc_multi_getc+0x68>
80003772:	f5 d8 c0 10 	bfextu	r10,r8,0x0,0x10
80003776:	a7 69       	lsl	r9,0x6
80003778:	14 09       	add	r9,r10
8000377a:	e0 09 07 09 	ld.ub	r9,r0[r9]
8000377e:	12 43       	or	r3,r9
80003780:	2f f8       	sub	r8,-1
80003782:	ae 08       	st.h	r7[0x0],r8
80003784:	02 9c       	mov	r12,r1
80003786:	f0 1f 00 0c 	mcall	800037b4 <udi_cdc_multi_getc+0x88>
8000378a:	58 02       	cp.w	r2,0
8000378c:	c0 50       	breq	80003796 <udi_cdc_multi_getc+0x6a>
8000378e:	a9 63       	lsl	r3,0x8
80003790:	02 92       	mov	r2,r1
80003792:	cd cb       	rjmp	8000374a <udi_cdc_multi_getc+0x1e>
80003794:	30 03       	mov	r3,0
80003796:	06 9c       	mov	r12,r3
80003798:	2f fd       	sub	sp,-4
8000379a:	d8 32       	popm	r0-r7,pc
8000379c:	00 00       	add	r0,r0
8000379e:	08 74       	tst	r4,r4
800037a0:	00 00       	add	r0,r0
800037a2:	09 0e       	ld.w	lr,r4++
800037a4:	00 00       	add	r0,r0
800037a6:	09 14       	ld.sh	r4,r4++
800037a8:	00 00       	add	r0,r0
800037aa:	09 08       	ld.w	r8,r4++
800037ac:	00 00       	add	r0,r0
800037ae:	09 28       	ld.uh	r8,r4++
800037b0:	00 00       	add	r0,r0
800037b2:	09 12       	ld.sh	r2,r4++
800037b4:	80 00       	ld.sh	r0,r0[0x0]
800037b6:	36 98       	mov	r8,105

800037b8 <udi_cdc_getc>:
800037b8:	d4 01       	pushm	lr
800037ba:	30 0c       	mov	r12,0
800037bc:	f0 1f 00 02 	mcall	800037c4 <udi_cdc_getc+0xc>
800037c0:	d8 02       	popm	pc
800037c2:	00 00       	add	r0,r0
800037c4:	80 00       	ld.sh	r0,r0[0x0]
800037c6:	37 2c       	mov	r12,114

800037c8 <udi_cdc_data_received>:
800037c8:	d4 01       	pushm	lr
800037ca:	14 9e       	mov	lr,r10
800037cc:	58 0c       	cp.w	r12,0
800037ce:	c1 c1       	brne	80003806 <udi_cdc_data_received+0x3e>
800037d0:	48 e8       	lddpc	r8,80003808 <udi_cdc_data_received+0x40>
800037d2:	11 88       	ld.ub	r8,r8[0x0]
800037d4:	58 08       	cp.w	r8,0
800037d6:	5f 0a       	sreq	r10
800037d8:	58 0b       	cp.w	r11,0
800037da:	c0 d1       	brne	800037f4 <udi_cdc_data_received+0x2c>
800037dc:	a7 6a       	lsl	r10,0x6
800037de:	fe c8 00 16 	sub	r8,pc,22
800037e2:	34 09       	mov	r9,64
800037e4:	48 ab       	lddpc	r11,8000380c <udi_cdc_data_received+0x44>
800037e6:	f6 0a 00 0a 	add	r10,r11,r10
800037ea:	30 1b       	mov	r11,1
800037ec:	1c 9c       	mov	r12,lr
800037ee:	f0 1f 00 09 	mcall	80003810 <udi_cdc_data_received+0x48>
800037f2:	d8 02       	popm	pc
800037f4:	48 88       	lddpc	r8,80003814 <udi_cdc_data_received+0x4c>
800037f6:	f0 0a 0a 1b 	st.h	r8[r10<<0x1],r11
800037fa:	30 09       	mov	r9,0
800037fc:	48 78       	lddpc	r8,80003818 <udi_cdc_data_received+0x50>
800037fe:	b0 89       	st.b	r8[0x0],r9
80003800:	30 0c       	mov	r12,0
80003802:	f0 1f 00 07 	mcall	8000381c <udi_cdc_data_received+0x54>
80003806:	d8 02       	popm	pc
80003808:	00 00       	add	r0,r0
8000380a:	09 14       	ld.sh	r4,r4++
8000380c:	00 00       	add	r0,r0
8000380e:	09 28       	ld.uh	r8,r4++
80003810:	80 00       	ld.sh	r0,r0[0x0]
80003812:	28 10       	sub	r0,-127
80003814:	00 00       	add	r0,r0
80003816:	09 08       	ld.w	r8,r4++
80003818:	00 00       	add	r0,r0
8000381a:	09 a8       	ld.ub	r8,r4[0x2]
8000381c:	80 00       	ld.sh	r0,r0[0x0]
8000381e:	36 98       	mov	r8,105

80003820 <udi_cdc_tx_send>:
80003820:	eb cd 40 e0 	pushm	r5-r7,lr
80003824:	20 1d       	sub	sp,4
80003826:	4c 18       	lddpc	r8,80003928 <udi_cdc_tx_send+0x108>
80003828:	11 88       	ld.ub	r8,r8[0x0]
8000382a:	58 08       	cp.w	r8,0
8000382c:	e0 81 00 7b 	brne	80003922 <udi_cdc_tx_send+0x102>
80003830:	f0 1f 00 3f 	mcall	8000392c <udi_cdc_tx_send+0x10c>
80003834:	c0 90       	breq	80003846 <udi_cdc_tx_send+0x26>
80003836:	4b f8       	lddpc	r8,80003930 <udi_cdc_tx_send+0x110>
80003838:	90 07       	ld.sh	r7,r8[0x0]
8000383a:	f0 1f 00 3f 	mcall	80003934 <udi_cdc_tx_send+0x114>
8000383e:	f8 07 19 00 	cp.h	r7,r12
80003842:	c0 91       	brne	80003854 <udi_cdc_tx_send+0x34>
80003844:	c6 f8       	rjmp	80003922 <udi_cdc_tx_send+0x102>
80003846:	4b b8       	lddpc	r8,80003930 <udi_cdc_tx_send+0x110>
80003848:	90 07       	ld.sh	r7,r8[0x0]
8000384a:	f0 1f 00 3c 	mcall	80003938 <udi_cdc_tx_send+0x118>
8000384e:	f8 07 19 00 	cp.h	r7,r12
80003852:	c6 80       	breq	80003922 <udi_cdc_tx_send+0x102>
80003854:	e1 b8 00 00 	mfsr	r8,0x0
80003858:	50 08       	stdsp	sp[0x0],r8
8000385a:	d3 03       	ssrf	0x10
8000385c:	40 06       	lddsp	r6,sp[0x0]
8000385e:	4b 88       	lddpc	r8,8000393c <udi_cdc_tx_send+0x11c>
80003860:	11 87       	ld.ub	r7,r8[0x0]
80003862:	4b 88       	lddpc	r8,80003940 <udi_cdc_tx_send+0x120>
80003864:	f0 07 04 19 	ld.sh	r9,r8[r7<<0x1]
80003868:	30 08       	mov	r8,0
8000386a:	f0 09 19 00 	cp.h	r9,r8
8000386e:	c1 f1       	brne	800038ac <udi_cdc_tx_send+0x8c>
80003870:	4b 58       	lddpc	r8,80003944 <udi_cdc_tx_send+0x124>
80003872:	90 09       	ld.sh	r9,r8[0x0]
80003874:	2f f9       	sub	r9,-1
80003876:	b0 09       	st.h	r8[0x0],r9
80003878:	f0 1f 00 2d 	mcall	8000392c <udi_cdc_tx_send+0x10c>
8000387c:	c0 81       	brne	8000388c <udi_cdc_tx_send+0x6c>
8000387e:	4b 28       	lddpc	r8,80003944 <udi_cdc_tx_send+0x124>
80003880:	90 09       	ld.sh	r9,r8[0x0]
80003882:	36 38       	mov	r8,99
80003884:	f0 09 19 00 	cp.h	r9,r8
80003888:	e0 88 00 0d 	brls	800038a2 <udi_cdc_tx_send+0x82>
8000388c:	f0 1f 00 28 	mcall	8000392c <udi_cdc_tx_send+0x10c>
80003890:	c0 e0       	breq	800038ac <udi_cdc_tx_send+0x8c>
80003892:	4a d8       	lddpc	r8,80003944 <udi_cdc_tx_send+0x124>
80003894:	90 09       	ld.sh	r9,r8[0x0]
80003896:	e0 68 03 1f 	mov	r8,799
8000389a:	f0 09 19 00 	cp.h	r9,r8
8000389e:	e0 8b 00 07 	brhi	800038ac <udi_cdc_tx_send+0x8c>
800038a2:	e6 16 00 01 	andh	r6,0x1,COH
800038a6:	c0 21       	brne	800038aa <udi_cdc_tx_send+0x8a>
800038a8:	d5 03       	csrf	0x10
800038aa:	c3 c8       	rjmp	80003922 <udi_cdc_tx_send+0x102>
800038ac:	30 09       	mov	r9,0
800038ae:	4a 68       	lddpc	r8,80003944 <udi_cdc_tx_send+0x124>
800038b0:	b0 09       	st.h	r8[0x0],r9
800038b2:	4a 68       	lddpc	r8,80003948 <udi_cdc_tx_send+0x128>
800038b4:	11 88       	ld.ub	r8,r8[0x0]
800038b6:	58 08       	cp.w	r8,0
800038b8:	c0 61       	brne	800038c4 <udi_cdc_tx_send+0xa4>
800038ba:	58 07       	cp.w	r7,0
800038bc:	5f 09       	sreq	r9
800038be:	4a 08       	lddpc	r8,8000393c <udi_cdc_tx_send+0x11c>
800038c0:	b0 89       	st.b	r8[0x0],r9
800038c2:	c0 38       	rjmp	800038c8 <udi_cdc_tx_send+0xa8>
800038c4:	58 07       	cp.w	r7,0
800038c6:	5f 07       	sreq	r7
800038c8:	30 19       	mov	r9,1
800038ca:	49 88       	lddpc	r8,80003928 <udi_cdc_tx_send+0x108>
800038cc:	b0 89       	st.b	r8[0x0],r9
800038ce:	e6 16 00 01 	andh	r6,0x1,COH
800038d2:	c0 21       	brne	800038d6 <udi_cdc_tx_send+0xb6>
800038d4:	d5 03       	csrf	0x10
800038d6:	0e 95       	mov	r5,r7
800038d8:	49 a8       	lddpc	r8,80003940 <udi_cdc_tx_send+0x120>
800038da:	f0 07 04 19 	ld.sh	r9,r8[r7<<0x1]
800038de:	34 08       	mov	r8,64
800038e0:	f0 09 19 00 	cp.h	r9,r8
800038e4:	5f 16       	srne	r6
800038e6:	58 06       	cp.w	r6,0
800038e8:	c0 e0       	breq	80003904 <udi_cdc_tx_send+0xe4>
800038ea:	f0 1f 00 11 	mcall	8000392c <udi_cdc_tx_send+0x10c>
800038ee:	c0 60       	breq	800038fa <udi_cdc_tx_send+0xda>
800038f0:	f0 1f 00 11 	mcall	80003934 <udi_cdc_tx_send+0x114>
800038f4:	48 f8       	lddpc	r8,80003930 <udi_cdc_tx_send+0x110>
800038f6:	b0 0c       	st.h	r8[0x0],r12
800038f8:	c0 98       	rjmp	8000390a <udi_cdc_tx_send+0xea>
800038fa:	f0 1f 00 10 	mcall	80003938 <udi_cdc_tx_send+0x118>
800038fe:	48 d8       	lddpc	r8,80003930 <udi_cdc_tx_send+0x110>
80003900:	b0 0c       	st.h	r8[0x0],r12
80003902:	c0 48       	rjmp	8000390a <udi_cdc_tx_send+0xea>
80003904:	30 09       	mov	r9,0
80003906:	48 b8       	lddpc	r8,80003930 <udi_cdc_tx_send+0x110>
80003908:	b0 09       	st.h	r8[0x0],r9
8000390a:	a7 67       	lsl	r7,0x6
8000390c:	49 08       	lddpc	r8,8000394c <udi_cdc_tx_send+0x12c>
8000390e:	48 d9       	lddpc	r9,80003940 <udi_cdc_tx_send+0x120>
80003910:	f2 05 05 19 	ld.uh	r9,r9[r5<<0x1]
80003914:	48 fa       	lddpc	r10,80003950 <udi_cdc_tx_send+0x130>
80003916:	0e 0a       	add	r10,r7
80003918:	0c 9b       	mov	r11,r6
8000391a:	e0 6c 00 81 	mov	r12,129
8000391e:	f0 1f 00 0e 	mcall	80003954 <udi_cdc_tx_send+0x134>
80003922:	2f fd       	sub	sp,-4
80003924:	e3 cd 80 e0 	ldm	sp++,r5-r7,pc
80003928:	00 00       	add	r0,r0
8000392a:	09 18       	ld.sh	r8,r4++
8000392c:	80 00       	ld.sh	r0,r0[0x0]
8000392e:	21 a0       	sub	r0,26
80003930:	00 00       	add	r0,r0
80003932:	09 10       	ld.sh	r0,r4++
80003934:	80 00       	ld.sh	r0,r0[0x0]
80003936:	21 dc       	sub	r12,29
80003938:	80 00       	ld.sh	r0,r0[0x0]
8000393a:	21 d0       	sub	r0,29
8000393c:	00 00       	add	r0,r0
8000393e:	08 80       	andn	r0,r4
80003940:	00 00       	add	r0,r0
80003942:	08 84       	andn	r4,r4
80003944:	00 00       	add	r0,r0
80003946:	08 70       	tst	r0,r4
80003948:	00 00       	add	r0,r0
8000394a:	09 ac       	ld.ub	r12,r4[0x2]
8000394c:	80 00       	ld.sh	r0,r0[0x0]
8000394e:	39 68       	mov	r8,-106
80003950:	00 00       	add	r0,r0
80003952:	08 88       	andn	r8,r4
80003954:	80 00       	ld.sh	r0,r0[0x0]
80003956:	28 10       	sub	r0,-127

80003958 <udi_cdc_data_sof_notify>:
80003958:	d4 01       	pushm	lr
8000395a:	30 0c       	mov	r12,0
8000395c:	f0 1f 00 02 	mcall	80003964 <udi_cdc_data_sof_notify+0xc>
80003960:	d8 02       	popm	pc
80003962:	00 00       	add	r0,r0
80003964:	80 00       	ld.sh	r0,r0[0x0]
80003966:	38 20       	mov	r0,-126

80003968 <udi_cdc_data_sent>:
80003968:	d4 01       	pushm	lr
8000396a:	58 0c       	cp.w	r12,0
8000396c:	c1 21       	brne	80003990 <udi_cdc_data_sent+0x28>
8000396e:	48 a8       	lddpc	r8,80003994 <udi_cdc_data_sent+0x2c>
80003970:	11 88       	ld.ub	r8,r8[0x0]
80003972:	58 08       	cp.w	r8,0
80003974:	f9 b9 01 00 	movne	r9,0
80003978:	f9 b9 00 02 	moveq	r9,2
8000397c:	30 08       	mov	r8,0
8000397e:	48 7a       	lddpc	r10,80003998 <udi_cdc_data_sent+0x30>
80003980:	f4 09 0a 08 	st.h	r10[r9],r8
80003984:	48 69       	lddpc	r9,8000399c <udi_cdc_data_sent+0x34>
80003986:	b2 88       	st.b	r9[0x0],r8
80003988:	48 69       	lddpc	r9,800039a0 <udi_cdc_data_sent+0x38>
8000398a:	b2 88       	st.b	r9[0x0],r8
8000398c:	f0 1f 00 06 	mcall	800039a4 <udi_cdc_data_sent+0x3c>
80003990:	d8 02       	popm	pc
80003992:	00 00       	add	r0,r0
80003994:	00 00       	add	r0,r0
80003996:	08 80       	andn	r0,r4
80003998:	00 00       	add	r0,r0
8000399a:	08 84       	andn	r4,r4
8000399c:	00 00       	add	r0,r0
8000399e:	09 ac       	ld.ub	r12,r4[0x2]
800039a0:	00 00       	add	r0,r0
800039a2:	09 18       	ld.sh	r8,r4++
800039a4:	80 00       	ld.sh	r0,r0[0x0]
800039a6:	38 20       	mov	r0,-126

800039a8 <udi_cdc_data_enable>:
800039a8:	eb cd 40 c0 	pushm	r6-r7,lr
800039ac:	30 06       	mov	r6,0
800039ae:	49 88       	lddpc	r8,80003a0c <udi_cdc_data_enable+0x64>
800039b0:	b0 86       	st.b	r8[0x0],r6
800039b2:	49 88       	lddpc	r8,80003a10 <udi_cdc_data_enable+0x68>
800039b4:	b0 86       	st.b	r8[0x0],r6
800039b6:	49 88       	lddpc	r8,80003a14 <udi_cdc_data_enable+0x6c>
800039b8:	b0 86       	st.b	r8[0x0],r6
800039ba:	49 88       	lddpc	r8,80003a18 <udi_cdc_data_enable+0x70>
800039bc:	b0 86       	st.b	r8[0x0],r6
800039be:	49 88       	lddpc	r8,80003a1c <udi_cdc_data_enable+0x74>
800039c0:	30 07       	mov	r7,0
800039c2:	b0 07       	st.h	r8[0x0],r7
800039c4:	b0 17       	st.h	r8[0x2],r7
800039c6:	49 78       	lddpc	r8,80003a20 <udi_cdc_data_enable+0x78>
800039c8:	b0 07       	st.h	r8[0x0],r7
800039ca:	30 0c       	mov	r12,0
800039cc:	f0 1f 00 16 	mcall	80003a24 <udi_cdc_data_enable+0x7c>
800039d0:	49 68       	lddpc	r8,80003a28 <udi_cdc_data_enable+0x80>
800039d2:	b0 86       	st.b	r8[0x0],r6
800039d4:	49 68       	lddpc	r8,80003a2c <udi_cdc_data_enable+0x84>
800039d6:	b0 86       	st.b	r8[0x0],r6
800039d8:	49 68       	lddpc	r8,80003a30 <udi_cdc_data_enable+0x88>
800039da:	b0 07       	st.h	r8[0x0],r7
800039dc:	b0 17       	st.h	r8[0x2],r7
800039de:	49 68       	lddpc	r8,80003a34 <udi_cdc_data_enable+0x8c>
800039e0:	b0 07       	st.h	r8[0x0],r7
800039e2:	30 0c       	mov	r12,0
800039e4:	f0 1f 00 15 	mcall	80003a38 <udi_cdc_data_enable+0x90>
800039e8:	c1 00       	breq	80003a08 <udi_cdc_data_enable+0x60>
800039ea:	48 98       	lddpc	r8,80003a0c <udi_cdc_data_enable+0x64>
800039ec:	11 89       	ld.ub	r9,r8[0x0]
800039ee:	2f f9       	sub	r9,-1
800039f0:	b0 89       	st.b	r8[0x0],r9
800039f2:	11 89       	ld.ub	r9,r8[0x0]
800039f4:	30 18       	mov	r8,1
800039f6:	f0 09 18 00 	cp.b	r9,r8
800039fa:	c0 30       	breq	80003a00 <udi_cdc_data_enable+0x58>
800039fc:	e3 cf 90 c0 	ldm	sp++,r6-r7,pc,r12=1
80003a00:	30 19       	mov	r9,1
80003a02:	48 f8       	lddpc	r8,80003a3c <udi_cdc_data_enable+0x94>
80003a04:	b0 89       	st.b	r8[0x0],r9
80003a06:	30 1c       	mov	r12,1
80003a08:	e3 cd 80 c0 	ldm	sp++,r6-r7,pc
80003a0c:	00 00       	add	r0,r0
80003a0e:	08 7c       	tst	r12,r4
80003a10:	00 00       	add	r0,r0
80003a12:	09 18       	ld.sh	r8,r4++
80003a14:	00 00       	add	r0,r0
80003a16:	09 ac       	ld.ub	r12,r4[0x2]
80003a18:	00 00       	add	r0,r0
80003a1a:	08 80       	andn	r0,r4
80003a1c:	00 00       	add	r0,r0
80003a1e:	08 84       	andn	r4,r4
80003a20:	00 00       	add	r0,r0
80003a22:	09 10       	ld.sh	r0,r4++
80003a24:	80 00       	ld.sh	r0,r0[0x0]
80003a26:	38 20       	mov	r0,-126
80003a28:	00 00       	add	r0,r0
80003a2a:	09 a8       	ld.ub	r8,r4[0x2]
80003a2c:	00 00       	add	r0,r0
80003a2e:	09 14       	ld.sh	r4,r4++
80003a30:	00 00       	add	r0,r0
80003a32:	09 08       	ld.w	r8,r4++
80003a34:	00 00       	add	r0,r0
80003a36:	09 0e       	ld.w	lr,r4++
80003a38:	80 00       	ld.sh	r0,r0[0x0]
80003a3a:	36 98       	mov	r8,105
80003a3c:	00 00       	add	r0,r0
80003a3e:	09 12       	ld.sh	r2,r4++

80003a40 <udc_sof_notify>:
80003a40:	eb cd 40 c0 	pushm	r6-r7,lr
80003a44:	49 18       	lddpc	r8,80003a88 <udc_sof_notify+0x48>
80003a46:	11 89       	ld.ub	r9,r8[0x0]
80003a48:	30 08       	mov	r8,0
80003a4a:	f0 09 18 00 	cp.b	r9,r8
80003a4e:	c1 b0       	breq	80003a84 <udc_sof_notify+0x44>
80003a50:	48 f8       	lddpc	r8,80003a8c <udc_sof_notify+0x4c>
80003a52:	70 08       	ld.w	r8,r8[0x0]
80003a54:	70 09       	ld.w	r9,r8[0x0]
80003a56:	13 ca       	ld.ub	r10,r9[0x4]
80003a58:	30 09       	mov	r9,0
80003a5a:	f2 0a 18 00 	cp.b	r10,r9
80003a5e:	c1 30       	breq	80003a84 <udc_sof_notify+0x44>
80003a60:	30 07       	mov	r7,0
80003a62:	48 b6       	lddpc	r6,80003a8c <udc_sof_notify+0x4c>
80003a64:	70 18       	ld.w	r8,r8[0x4]
80003a66:	f0 07 03 28 	ld.w	r8,r8[r7<<0x2]
80003a6a:	70 48       	ld.w	r8,r8[0x10]
80003a6c:	58 08       	cp.w	r8,0
80003a6e:	c0 20       	breq	80003a72 <udc_sof_notify+0x32>
80003a70:	5d 18       	icall	r8
80003a72:	2f f7       	sub	r7,-1
80003a74:	5c 57       	castu.b	r7
80003a76:	6c 08       	ld.w	r8,r6[0x0]
80003a78:	70 09       	ld.w	r9,r8[0x0]
80003a7a:	13 c9       	ld.ub	r9,r9[0x4]
80003a7c:	ee 09 18 00 	cp.b	r9,r7
80003a80:	fe 9b ff f2 	brhi	80003a64 <udc_sof_notify+0x24>
80003a84:	e3 cd 80 c0 	ldm	sp++,r6-r7,pc
80003a88:	00 00       	add	r0,r0
80003a8a:	09 c4       	ld.ub	r4,r4[0x4]
80003a8c:	00 00       	add	r0,r0
80003a8e:	09 b4       	ld.ub	r4,r4[0x3]

80003a90 <udc_get_eof_conf>:
80003a90:	48 78       	lddpc	r8,80003aac <udc_get_eof_conf+0x1c>
80003a92:	70 08       	ld.w	r8,r8[0x0]
80003a94:	70 08       	ld.w	r8,r8[0x0]
80003a96:	11 aa       	ld.ub	r10,r8[0x2]
80003a98:	11 b9       	ld.ub	r9,r8[0x3]
80003a9a:	f3 ea 10 89 	or	r9,r9,r10<<0x8
80003a9e:	5c c9       	swap.bh	r9
80003aa0:	f9 d9 c0 10 	bfextu	r12,r9,0x0,0x10
80003aa4:	f0 0c 00 0c 	add	r12,r8,r12
80003aa8:	5e fc       	retal	r12
80003aaa:	00 00       	add	r0,r0
80003aac:	00 00       	add	r0,r0
80003aae:	09 b4       	ld.ub	r4,r4[0x3]

80003ab0 <udc_update_iface_desc>:
80003ab0:	eb cd 40 e0 	pushm	r5-r7,lr
80003ab4:	18 97       	mov	r7,r12
80003ab6:	16 96       	mov	r6,r11
80003ab8:	49 b8       	lddpc	r8,80003b24 <udc_update_iface_desc+0x74>
80003aba:	11 89       	ld.ub	r9,r8[0x0]
80003abc:	30 08       	mov	r8,0
80003abe:	f0 09 18 00 	cp.b	r9,r8
80003ac2:	c2 f0       	breq	80003b20 <udc_update_iface_desc+0x70>
80003ac4:	49 98       	lddpc	r8,80003b28 <udc_update_iface_desc+0x78>
80003ac6:	70 08       	ld.w	r8,r8[0x0]
80003ac8:	70 08       	ld.w	r8,r8[0x0]
80003aca:	11 c9       	ld.ub	r9,r8[0x4]
80003acc:	18 9e       	mov	lr,r12
80003ace:	f8 09 18 00 	cp.b	r9,r12
80003ad2:	e0 88 00 27 	brls	80003b20 <udc_update_iface_desc+0x70>
80003ad6:	49 65       	lddpc	r5,80003b2c <udc_update_iface_desc+0x7c>
80003ad8:	8b 08       	st.w	r5[0x0],r8
80003ada:	f0 1f 00 16 	mcall	80003b30 <udc_update_iface_desc+0x80>
80003ade:	6a 08       	ld.w	r8,r5[0x0]
80003ae0:	10 3c       	cp.w	r12,r8
80003ae2:	e0 88 00 1f 	brls	80003b20 <udc_update_iface_desc+0x70>
80003ae6:	30 4b       	mov	r11,4
80003ae8:	10 99       	mov	r9,r8
80003aea:	11 9a       	ld.ub	r10,r8[0x1]
80003aec:	f6 0a 18 00 	cp.b	r10,r11
80003af0:	c0 a1       	brne	80003b04 <udc_update_iface_desc+0x54>
80003af2:	11 aa       	ld.ub	r10,r8[0x2]
80003af4:	0e 9e       	mov	lr,r7
80003af6:	ee 0a 18 00 	cp.b	r10,r7
80003afa:	c0 51       	brne	80003b04 <udc_update_iface_desc+0x54>
80003afc:	11 ba       	ld.ub	r10,r8[0x3]
80003afe:	ec 0a 18 00 	cp.b	r10,r6
80003b02:	c0 b0       	breq	80003b18 <udc_update_iface_desc+0x68>
80003b04:	13 88       	ld.ub	r8,r9[0x0]
80003b06:	f2 08 00 08 	add	r8,r9,r8
80003b0a:	10 3c       	cp.w	r12,r8
80003b0c:	fe 9b ff ee 	brhi	80003ae8 <udc_update_iface_desc+0x38>
80003b10:	48 79       	lddpc	r9,80003b2c <udc_update_iface_desc+0x7c>
80003b12:	93 08       	st.w	r9[0x0],r8
80003b14:	e3 cf 80 e0 	ldm	sp++,r5-r7,pc,r12=0
80003b18:	48 59       	lddpc	r9,80003b2c <udc_update_iface_desc+0x7c>
80003b1a:	93 08       	st.w	r9[0x0],r8
80003b1c:	e3 cf 90 e0 	ldm	sp++,r5-r7,pc,r12=1
80003b20:	e3 cf 80 e0 	ldm	sp++,r5-r7,pc,r12=0
80003b24:	00 00       	add	r0,r0
80003b26:	09 c4       	ld.ub	r4,r4[0x4]
80003b28:	00 00       	add	r0,r0
80003b2a:	09 b4       	ld.ub	r4,r4[0x3]
80003b2c:	00 00       	add	r0,r0
80003b2e:	09 c8       	ld.ub	r8,r4[0x4]
80003b30:	80 00       	ld.sh	r0,r0[0x0]
80003b32:	3a 90       	mov	r0,-87

80003b34 <udc_next_desc_in_iface>:
80003b34:	eb cd 40 c0 	pushm	r6-r7,lr
80003b38:	18 96       	mov	r6,r12
80003b3a:	16 97       	mov	r7,r11
80003b3c:	f0 1f 00 11 	mcall	80003b80 <udc_next_desc_in_iface+0x4c>
80003b40:	0d 88       	ld.ub	r8,r6[0x0]
80003b42:	10 06       	add	r6,r8
80003b44:	0c 3c       	cp.w	r12,r6
80003b46:	e0 88 00 19 	brls	80003b78 <udc_next_desc_in_iface+0x44>
80003b4a:	0d 98       	ld.ub	r8,r6[0x1]
80003b4c:	30 49       	mov	r9,4
80003b4e:	f2 08 18 00 	cp.b	r8,r9
80003b52:	c1 30       	breq	80003b78 <udc_next_desc_in_iface+0x44>
80003b54:	ee 08 18 00 	cp.b	r8,r7
80003b58:	c0 a1       	brne	80003b6c <udc_next_desc_in_iface+0x38>
80003b5a:	c1 08       	rjmp	80003b7a <udc_next_desc_in_iface+0x46>
80003b5c:	0d 98       	ld.ub	r8,r6[0x1]
80003b5e:	f2 08 18 00 	cp.b	r8,r9
80003b62:	c0 b0       	breq	80003b78 <udc_next_desc_in_iface+0x44>
80003b64:	ee 08 18 00 	cp.b	r8,r7
80003b68:	c0 31       	brne	80003b6e <udc_next_desc_in_iface+0x3a>
80003b6a:	c0 88       	rjmp	80003b7a <udc_next_desc_in_iface+0x46>
80003b6c:	30 49       	mov	r9,4
80003b6e:	0d 88       	ld.ub	r8,r6[0x0]
80003b70:	10 06       	add	r6,r8
80003b72:	0c 3c       	cp.w	r12,r6
80003b74:	fe 9b ff f4 	brhi	80003b5c <udc_next_desc_in_iface+0x28>
80003b78:	30 06       	mov	r6,0
80003b7a:	0c 9c       	mov	r12,r6
80003b7c:	e3 cd 80 c0 	ldm	sp++,r6-r7,pc
80003b80:	80 00       	ld.sh	r0,r0[0x0]
80003b82:	3a 90       	mov	r0,-87

80003b84 <udc_valid_address>:
80003b84:	d4 01       	pushm	lr
80003b86:	48 48       	lddpc	r8,80003b94 <udc_valid_address+0x10>
80003b88:	11 bc       	ld.ub	r12,r8[0x3]
80003b8a:	f9 dc c0 07 	bfextu	r12,r12,0x0,0x7
80003b8e:	f0 1f 00 03 	mcall	80003b98 <udc_valid_address+0x14>
80003b92:	d8 02       	popm	pc
80003b94:	00 00       	add	r0,r0
80003b96:	0a c8       	st.b	r5++,r8
80003b98:	80 00       	ld.sh	r0,r0[0x0]
80003b9a:	21 a2       	sub	r2,26

80003b9c <udc_iface_enable>:
80003b9c:	eb cd 40 e0 	pushm	r5-r7,lr
80003ba0:	18 95       	mov	r5,r12
80003ba2:	f0 1f 00 12 	mcall	80003be8 <udc_iface_enable+0x4c>
80003ba6:	c1 f0       	breq	80003be4 <udc_iface_enable+0x48>
80003ba8:	49 18       	lddpc	r8,80003bec <udc_iface_enable+0x50>
80003baa:	70 07       	ld.w	r7,r8[0x0]
80003bac:	30 56       	mov	r6,5
80003bae:	0c 9b       	mov	r11,r6
80003bb0:	0e 9c       	mov	r12,r7
80003bb2:	f0 1f 00 10 	mcall	80003bf0 <udc_iface_enable+0x54>
80003bb6:	18 97       	mov	r7,r12
80003bb8:	c0 d0       	breq	80003bd2 <udc_iface_enable+0x36>
80003bba:	19 ca       	ld.ub	r10,r12[0x4]
80003bbc:	19 d8       	ld.ub	r8,r12[0x5]
80003bbe:	f1 ea 10 8a 	or	r10,r8,r10<<0x8
80003bc2:	5c ca       	swap.bh	r10
80003bc4:	5c 7a       	castu.h	r10
80003bc6:	19 bb       	ld.ub	r11,r12[0x3]
80003bc8:	19 ac       	ld.ub	r12,r12[0x2]
80003bca:	f0 1f 00 0b 	mcall	80003bf4 <udc_iface_enable+0x58>
80003bce:	cf 01       	brne	80003bae <udc_iface_enable+0x12>
80003bd0:	c0 a8       	rjmp	80003be4 <udc_iface_enable+0x48>
80003bd2:	48 a8       	lddpc	r8,80003bf8 <udc_iface_enable+0x5c>
80003bd4:	70 08       	ld.w	r8,r8[0x0]
80003bd6:	70 18       	ld.w	r8,r8[0x4]
80003bd8:	f0 05 03 28 	ld.w	r8,r8[r5<<0x2]
80003bdc:	70 0c       	ld.w	r12,r8[0x0]
80003bde:	5d 1c       	icall	r12
80003be0:	e3 cd 80 e0 	ldm	sp++,r5-r7,pc
80003be4:	e3 cf 80 e0 	ldm	sp++,r5-r7,pc,r12=0
80003be8:	80 00       	ld.sh	r0,r0[0x0]
80003bea:	3a b0       	mov	r0,-85
80003bec:	00 00       	add	r0,r0
80003bee:	09 c8       	ld.ub	r8,r4[0x4]
80003bf0:	80 00       	ld.sh	r0,r0[0x0]
80003bf2:	3b 34       	mov	r4,-77
80003bf4:	80 00       	ld.sh	r0,r0[0x0]
80003bf6:	2a 54       	sub	r4,-91
80003bf8:	00 00       	add	r0,r0
80003bfa:	09 b4       	ld.ub	r4,r4[0x3]

80003bfc <udc_iface_disable>:
80003bfc:	eb cd 40 e0 	pushm	r5-r7,lr
80003c00:	18 96       	mov	r6,r12
80003c02:	18 97       	mov	r7,r12
80003c04:	30 0b       	mov	r11,0
80003c06:	f0 1f 00 12 	mcall	80003c4c <udc_iface_disable+0x50>
80003c0a:	c1 e0       	breq	80003c46 <udc_iface_disable+0x4a>
80003c0c:	49 18       	lddpc	r8,80003c50 <udc_iface_disable+0x54>
80003c0e:	70 08       	ld.w	r8,r8[0x0]
80003c10:	70 18       	ld.w	r8,r8[0x4]
80003c12:	f0 06 03 25 	ld.w	r5,r8[r6<<0x2]
80003c16:	6a 3c       	ld.w	r12,r5[0xc]
80003c18:	5d 1c       	icall	r12
80003c1a:	18 9b       	mov	r11,r12
80003c1c:	0c 9c       	mov	r12,r6
80003c1e:	f0 1f 00 0c 	mcall	80003c4c <udc_iface_disable+0x50>
80003c22:	c1 20       	breq	80003c46 <udc_iface_disable+0x4a>
80003c24:	48 c8       	lddpc	r8,80003c54 <udc_iface_disable+0x58>
80003c26:	70 07       	ld.w	r7,r8[0x0]
80003c28:	30 56       	mov	r6,5
80003c2a:	0c 9b       	mov	r11,r6
80003c2c:	0e 9c       	mov	r12,r7
80003c2e:	f0 1f 00 0b 	mcall	80003c58 <udc_iface_disable+0x5c>
80003c32:	18 97       	mov	r7,r12
80003c34:	c0 50       	breq	80003c3e <udc_iface_disable+0x42>
80003c36:	19 ac       	ld.ub	r12,r12[0x2]
80003c38:	f0 1f 00 09 	mcall	80003c5c <udc_iface_disable+0x60>
80003c3c:	cf 7b       	rjmp	80003c2a <udc_iface_disable+0x2e>
80003c3e:	6a 18       	ld.w	r8,r5[0x4]
80003c40:	5d 18       	icall	r8
80003c42:	e3 cf 90 e0 	ldm	sp++,r5-r7,pc,r12=1
80003c46:	e3 cf 80 e0 	ldm	sp++,r5-r7,pc,r12=0
80003c4a:	00 00       	add	r0,r0
80003c4c:	80 00       	ld.sh	r0,r0[0x0]
80003c4e:	3a b0       	mov	r0,-85
80003c50:	00 00       	add	r0,r0
80003c52:	09 b4       	ld.ub	r4,r4[0x3]
80003c54:	00 00       	add	r0,r0
80003c56:	09 c8       	ld.ub	r8,r4[0x4]
80003c58:	80 00       	ld.sh	r0,r0[0x0]
80003c5a:	3b 34       	mov	r4,-77
80003c5c:	80 00       	ld.sh	r0,r0[0x0]
80003c5e:	23 74       	sub	r4,55

80003c60 <udc_reset>:
80003c60:	eb cd 40 c0 	pushm	r6-r7,lr
80003c64:	49 38       	lddpc	r8,80003cb0 <udc_reset+0x50>
80003c66:	11 89       	ld.ub	r9,r8[0x0]
80003c68:	30 08       	mov	r8,0
80003c6a:	f0 09 18 00 	cp.b	r9,r8
80003c6e:	c1 70       	breq	80003c9c <udc_reset+0x3c>
80003c70:	49 18       	lddpc	r8,80003cb4 <udc_reset+0x54>
80003c72:	70 08       	ld.w	r8,r8[0x0]
80003c74:	70 08       	ld.w	r8,r8[0x0]
80003c76:	11 c9       	ld.ub	r9,r8[0x4]
80003c78:	30 08       	mov	r8,0
80003c7a:	f0 09 18 00 	cp.b	r9,r8
80003c7e:	c0 f0       	breq	80003c9c <udc_reset+0x3c>
80003c80:	30 07       	mov	r7,0
80003c82:	48 d6       	lddpc	r6,80003cb4 <udc_reset+0x54>
80003c84:	0e 9c       	mov	r12,r7
80003c86:	f0 1f 00 0d 	mcall	80003cb8 <udc_reset+0x58>
80003c8a:	2f f7       	sub	r7,-1
80003c8c:	5c 57       	castu.b	r7
80003c8e:	6c 08       	ld.w	r8,r6[0x0]
80003c90:	70 08       	ld.w	r8,r8[0x0]
80003c92:	11 c8       	ld.ub	r8,r8[0x4]
80003c94:	ee 08 18 00 	cp.b	r8,r7
80003c98:	fe 9b ff f6 	brhi	80003c84 <udc_reset+0x24>
80003c9c:	30 09       	mov	r9,0
80003c9e:	48 58       	lddpc	r8,80003cb0 <udc_reset+0x50>
80003ca0:	b0 89       	st.b	r8[0x0],r9
80003ca2:	e0 69 01 00 	mov	r9,256
80003ca6:	48 68       	lddpc	r8,80003cbc <udc_reset+0x5c>
80003ca8:	b0 09       	st.h	r8[0x0],r9
80003caa:	e3 cd 80 c0 	ldm	sp++,r6-r7,pc
80003cae:	00 00       	add	r0,r0
80003cb0:	00 00       	add	r0,r0
80003cb2:	09 c4       	ld.ub	r4,r4[0x4]
80003cb4:	00 00       	add	r0,r0
80003cb6:	09 b4       	ld.ub	r4,r4[0x3]
80003cb8:	80 00       	ld.sh	r0,r0[0x0]
80003cba:	3b fc       	mov	r12,-65
80003cbc:	00 00       	add	r0,r0
80003cbe:	09 c0       	ld.ub	r0,r4[0x4]

80003cc0 <udc_process_setup>:
80003cc0:	eb cd 40 e0 	pushm	r5-r7,lr
80003cc4:	fe f8 04 90 	ld.w	r8,pc[1168]
80003cc8:	30 09       	mov	r9,0
80003cca:	b0 69       	st.h	r8[0xc],r9
80003ccc:	30 0a       	mov	r10,0
80003cce:	91 4a       	st.w	r8[0x10],r10
80003cd0:	91 5a       	st.w	r8[0x14],r10
80003cd2:	11 88       	ld.ub	r8,r8[0x0]
80003cd4:	10 9a       	mov	r10,r8
80003cd6:	f2 08 18 00 	cp.b	r8,r9
80003cda:	c0 94       	brge	80003cec <udc_process_setup+0x2c>
80003cdc:	fe f9 04 78 	ld.w	r9,pc[1144]
80003ce0:	92 3b       	ld.sh	r11,r9[0x6]
80003ce2:	30 09       	mov	r9,0
80003ce4:	f2 0b 19 00 	cp.h	r11,r9
80003ce8:	e0 80 02 31 	breq	8000414a <udc_process_setup+0x48a>
80003cec:	10 99       	mov	r9,r8
80003cee:	e2 19 00 60 	andl	r9,0x60,COH
80003cf2:	e0 81 01 d5 	brne	8000409c <udc_process_setup+0x3dc>
80003cf6:	f2 0a 18 00 	cp.b	r10,r9
80003cfa:	e0 84 00 f6 	brge	80003ee6 <udc_process_setup+0x226>
80003cfe:	fe f9 04 56 	ld.w	r9,pc[1110]
80003d02:	92 39       	ld.sh	r9,r9[0x6]
80003d04:	58 09       	cp.w	r9,0
80003d06:	e0 80 01 cb 	breq	8000409c <udc_process_setup+0x3dc>
80003d0a:	f1 d8 c0 05 	bfextu	r8,r8,0x0,0x5
80003d0e:	e0 81 00 93 	brne	80003e34 <udc_process_setup+0x174>
80003d12:	fe fa 04 42 	ld.w	r10,pc[1090]
80003d16:	15 9a       	ld.ub	r10,r10[0x1]
80003d18:	30 6b       	mov	r11,6
80003d1a:	f6 0a 18 00 	cp.b	r10,r11
80003d1e:	c1 90       	breq	80003d50 <udc_process_setup+0x90>
80003d20:	30 8b       	mov	r11,8
80003d22:	f6 0a 18 00 	cp.b	r10,r11
80003d26:	c7 a0       	breq	80003e1a <udc_process_setup+0x15a>
80003d28:	30 0b       	mov	r11,0
80003d2a:	f6 0a 18 00 	cp.b	r10,r11
80003d2e:	e0 81 00 83 	brne	80003e34 <udc_process_setup+0x174>
80003d32:	30 28       	mov	r8,2
80003d34:	f0 09 19 00 	cp.h	r9,r8
80003d38:	c0 40       	breq	80003d40 <udc_process_setup+0x80>
80003d3a:	30 0c       	mov	r12,0
80003d3c:	e0 8f 01 ae 	bral	80004098 <udc_process_setup+0x3d8>
80003d40:	30 2b       	mov	r11,2
80003d42:	fe fc 04 16 	ld.w	r12,pc[1046]
80003d46:	f0 1f 01 06 	mcall	8000415c <udc_process_setup+0x49c>
80003d4a:	30 1c       	mov	r12,1
80003d4c:	e0 8f 01 a6 	bral	80004098 <udc_process_setup+0x3d8>
80003d50:	fe f8 04 04 	ld.w	r8,pc[1028]
80003d54:	90 19       	ld.sh	r9,r8[0x2]
80003d56:	f2 08 16 08 	lsr	r8,r9,0x8
80003d5a:	30 2a       	mov	r10,2
80003d5c:	f4 08 18 00 	cp.b	r8,r10
80003d60:	c1 80       	breq	80003d90 <udc_process_setup+0xd0>
80003d62:	e0 8b 00 07 	brhi	80003d70 <udc_process_setup+0xb0>
80003d66:	30 19       	mov	r9,1
80003d68:	f2 08 18 00 	cp.b	r8,r9
80003d6c:	c5 41       	brne	80003e14 <udc_process_setup+0x154>
80003d6e:	c0 a8       	rjmp	80003d82 <udc_process_setup+0xc2>
80003d70:	30 3a       	mov	r10,3
80003d72:	f4 08 18 00 	cp.b	r8,r10
80003d76:	c3 70       	breq	80003de4 <udc_process_setup+0x124>
80003d78:	30 f9       	mov	r9,15
80003d7a:	f2 08 18 00 	cp.b	r8,r9
80003d7e:	c4 b1       	brne	80003e14 <udc_process_setup+0x154>
80003d80:	c2 68       	rjmp	80003dcc <udc_process_setup+0x10c>
80003d82:	fe f8 03 de 	ld.w	r8,pc[990]
80003d86:	70 0c       	ld.w	r12,r8[0x0]
80003d88:	19 8b       	ld.ub	r11,r12[0x0]
80003d8a:	f0 1f 00 f5 	mcall	8000415c <udc_process_setup+0x49c>
80003d8e:	c3 28       	rjmp	80003df2 <udc_process_setup+0x132>
80003d90:	5c 59       	castu.b	r9
80003d92:	fe f8 03 ce 	ld.w	r8,pc[974]
80003d96:	70 08       	ld.w	r8,r8[0x0]
80003d98:	f1 38 00 11 	ld.ub	r8,r8[17]
80003d9c:	f2 08 18 00 	cp.b	r8,r9
80003da0:	e0 88 00 3a 	brls	80003e14 <udc_process_setup+0x154>
80003da4:	fe f8 03 bc 	ld.w	r8,pc[956]
80003da8:	70 18       	ld.w	r8,r8[0x4]
80003daa:	f0 09 03 3c 	ld.w	r12,r8[r9<<0x3]
80003dae:	19 a9       	ld.ub	r9,r12[0x2]
80003db0:	19 b8       	ld.ub	r8,r12[0x3]
80003db2:	f1 e9 10 88 	or	r8,r8,r9<<0x8
80003db6:	5c c8       	swap.bh	r8
80003db8:	f7 d8 c0 10 	bfextu	r11,r8,0x0,0x10
80003dbc:	f0 1f 00 e8 	mcall	8000415c <udc_process_setup+0x49c>
80003dc0:	fe f8 03 94 	ld.w	r8,pc[916]
80003dc4:	70 28       	ld.w	r8,r8[0x8]
80003dc6:	30 29       	mov	r9,2
80003dc8:	b0 99       	st.b	r8[0x1],r9
80003dca:	c1 48       	rjmp	80003df2 <udc_process_setup+0x132>
80003dcc:	fe f8 03 94 	ld.w	r8,pc[916]
80003dd0:	70 2c       	ld.w	r12,r8[0x8]
80003dd2:	58 0c       	cp.w	r12,0
80003dd4:	c2 00       	breq	80003e14 <udc_process_setup+0x154>
80003dd6:	19 ab       	ld.ub	r11,r12[0x2]
80003dd8:	19 b8       	ld.ub	r8,r12[0x3]
80003dda:	f1 eb 10 8b 	or	r11,r8,r11<<0x8
80003dde:	f0 1f 00 e0 	mcall	8000415c <udc_process_setup+0x49c>
80003de2:	c0 88       	rjmp	80003df2 <udc_process_setup+0x132>
80003de4:	5c 59       	castu.b	r9
80003de6:	c1 71       	brne	80003e14 <udc_process_setup+0x154>
80003de8:	30 4b       	mov	r11,4
80003dea:	fe fc 03 7a 	ld.w	r12,pc[890]
80003dee:	f0 1f 00 dc 	mcall	8000415c <udc_process_setup+0x49c>
80003df2:	fe f8 03 62 	ld.w	r8,pc[866]
80003df6:	90 39       	ld.sh	r9,r8[0x6]
80003df8:	90 68       	ld.sh	r8,r8[0xc]
80003dfa:	f2 08 19 00 	cp.h	r8,r9
80003dfe:	e0 8b 00 05 	brhi	80003e08 <udc_process_setup+0x148>
80003e02:	30 1c       	mov	r12,1
80003e04:	e0 8f 01 4a 	bral	80004098 <udc_process_setup+0x3d8>
80003e08:	fe f8 03 4c 	ld.w	r8,pc[844]
80003e0c:	b0 69       	st.h	r8[0xc],r9
80003e0e:	30 1c       	mov	r12,1
80003e10:	e0 8f 01 44 	bral	80004098 <udc_process_setup+0x3d8>
80003e14:	30 0c       	mov	r12,0
80003e16:	e0 8f 01 41 	bral	80004098 <udc_process_setup+0x3d8>
80003e1a:	30 18       	mov	r8,1
80003e1c:	f0 09 19 00 	cp.h	r9,r8
80003e20:	c0 30       	breq	80003e26 <udc_process_setup+0x166>
80003e22:	30 0c       	mov	r12,0
80003e24:	c3 a9       	rjmp	80004098 <udc_process_setup+0x3d8>
80003e26:	30 1b       	mov	r11,1
80003e28:	fe fc 03 40 	ld.w	r12,pc[832]
80003e2c:	f0 1f 00 cc 	mcall	8000415c <udc_process_setup+0x49c>
80003e30:	30 1c       	mov	r12,1
80003e32:	c3 39       	rjmp	80004098 <udc_process_setup+0x3d8>
80003e34:	58 18       	cp.w	r8,1
80003e36:	c3 61       	brne	80003ea2 <udc_process_setup+0x1e2>
80003e38:	fe fa 03 1c 	ld.w	r10,pc[796]
80003e3c:	15 9b       	ld.ub	r11,r10[0x1]
80003e3e:	30 aa       	mov	r10,10
80003e40:	f4 0b 18 00 	cp.b	r11,r10
80003e44:	c2 f1       	brne	80003ea2 <udc_process_setup+0x1e2>
80003e46:	f0 09 19 00 	cp.h	r9,r8
80003e4a:	c2 a1       	brne	80003e9e <udc_process_setup+0x1de>
80003e4c:	fe f8 03 1c 	ld.w	r8,pc[796]
80003e50:	11 89       	ld.ub	r9,r8[0x0]
80003e52:	30 08       	mov	r8,0
80003e54:	f0 09 18 00 	cp.b	r9,r8
80003e58:	c2 30       	breq	80003e9e <udc_process_setup+0x1de>
80003e5a:	fe f8 02 fa 	ld.w	r8,pc[762]
80003e5e:	11 d7       	ld.ub	r7,r8[0x5]
80003e60:	fe f8 03 0c 	ld.w	r8,pc[780]
80003e64:	70 08       	ld.w	r8,r8[0x0]
80003e66:	70 08       	ld.w	r8,r8[0x0]
80003e68:	11 c8       	ld.ub	r8,r8[0x4]
80003e6a:	ee 08 18 00 	cp.b	r8,r7
80003e6e:	e0 88 00 18 	brls	80003e9e <udc_process_setup+0x1de>
80003e72:	30 0b       	mov	r11,0
80003e74:	0e 9c       	mov	r12,r7
80003e76:	f0 1f 00 bf 	mcall	80004170 <udc_process_setup+0x4b0>
80003e7a:	c1 20       	breq	80003e9e <udc_process_setup+0x1de>
80003e7c:	fe f8 02 f0 	ld.w	r8,pc[752]
80003e80:	70 08       	ld.w	r8,r8[0x0]
80003e82:	70 18       	ld.w	r8,r8[0x4]
80003e84:	f0 07 03 28 	ld.w	r8,r8[r7<<0x2]
80003e88:	70 3c       	ld.w	r12,r8[0xc]
80003e8a:	5d 1c       	icall	r12
80003e8c:	fe f8 02 e8 	ld.w	r8,pc[744]
80003e90:	b0 8c       	st.b	r8[0x0],r12
80003e92:	30 1b       	mov	r11,1
80003e94:	10 9c       	mov	r12,r8
80003e96:	f0 1f 00 b2 	mcall	8000415c <udc_process_setup+0x49c>
80003e9a:	30 1c       	mov	r12,1
80003e9c:	cf e8       	rjmp	80004098 <udc_process_setup+0x3d8>
80003e9e:	30 0c       	mov	r12,0
80003ea0:	cf c8       	rjmp	80004098 <udc_process_setup+0x3d8>
80003ea2:	58 28       	cp.w	r8,2
80003ea4:	e0 81 00 fc 	brne	8000409c <udc_process_setup+0x3dc>
80003ea8:	fe f8 02 ac 	ld.w	r8,pc[684]
80003eac:	11 9a       	ld.ub	r10,r8[0x1]
80003eae:	30 08       	mov	r8,0
80003eb0:	f0 0a 18 00 	cp.b	r10,r8
80003eb4:	e0 81 00 f1 	brne	80004096 <udc_process_setup+0x3d6>
80003eb8:	30 28       	mov	r8,2
80003eba:	f0 09 19 00 	cp.h	r9,r8
80003ebe:	c0 30       	breq	80003ec4 <udc_process_setup+0x204>
80003ec0:	30 0c       	mov	r12,0
80003ec2:	ce b8       	rjmp	80004098 <udc_process_setup+0x3d8>
80003ec4:	fe f8 02 90 	ld.w	r8,pc[656]
80003ec8:	11 dc       	ld.ub	r12,r8[0x5]
80003eca:	f0 1f 00 ac 	mcall	80004178 <udc_process_setup+0x4b8>
80003ece:	e0 68 01 00 	mov	r8,256
80003ed2:	f9 b8 00 00 	moveq	r8,0
80003ed6:	fe fc 02 a6 	ld.w	r12,pc[678]
80003eda:	b8 08       	st.h	r12[0x0],r8
80003edc:	30 2b       	mov	r11,2
80003ede:	f0 1f 00 a0 	mcall	8000415c <udc_process_setup+0x49c>
80003ee2:	30 1c       	mov	r12,1
80003ee4:	cd a8       	rjmp	80004098 <udc_process_setup+0x3d8>
80003ee6:	f1 d8 c0 05 	bfextu	r8,r8,0x0,0x5
80003eea:	c7 d1       	brne	80003fe4 <udc_process_setup+0x324>
80003eec:	fe f9 02 68 	ld.w	r9,pc[616]
80003ef0:	13 99       	ld.ub	r9,r9[0x1]
80003ef2:	30 3a       	mov	r10,3
80003ef4:	f4 09 18 00 	cp.b	r9,r10
80003ef8:	e0 80 00 cf 	breq	80004096 <udc_process_setup+0x3d6>
80003efc:	e0 8b 00 07 	brhi	80003f0a <udc_process_setup+0x24a>
80003f00:	30 1a       	mov	r10,1
80003f02:	f4 09 18 00 	cp.b	r9,r10
80003f06:	c6 f1       	brne	80003fe4 <udc_process_setup+0x324>
80003f08:	c1 a8       	rjmp	80003f3c <udc_process_setup+0x27c>
80003f0a:	30 5a       	mov	r10,5
80003f0c:	f4 09 18 00 	cp.b	r9,r10
80003f10:	c0 60       	breq	80003f1c <udc_process_setup+0x25c>
80003f12:	30 9a       	mov	r10,9
80003f14:	f4 09 18 00 	cp.b	r9,r10
80003f18:	c6 61       	brne	80003fe4 <udc_process_setup+0x324>
80003f1a:	c2 88       	rjmp	80003f6a <udc_process_setup+0x2aa>
80003f1c:	fe f8 02 38 	ld.w	r8,pc[568]
80003f20:	90 39       	ld.sh	r9,r8[0x6]
80003f22:	30 08       	mov	r8,0
80003f24:	f0 09 19 00 	cp.h	r9,r8
80003f28:	c0 30       	breq	80003f2e <udc_process_setup+0x26e>
80003f2a:	30 0c       	mov	r12,0
80003f2c:	cb 68       	rjmp	80004098 <udc_process_setup+0x3d8>
80003f2e:	fe f9 02 52 	ld.w	r9,pc[594]
80003f32:	fe f8 02 22 	ld.w	r8,pc[546]
80003f36:	91 49       	st.w	r8[0x10],r9
80003f38:	30 1c       	mov	r12,1
80003f3a:	ca f8       	rjmp	80004098 <udc_process_setup+0x3d8>
80003f3c:	fe f8 02 18 	ld.w	r8,pc[536]
80003f40:	90 39       	ld.sh	r9,r8[0x6]
80003f42:	30 08       	mov	r8,0
80003f44:	f0 09 19 00 	cp.h	r9,r8
80003f48:	c0 f1       	brne	80003f66 <udc_process_setup+0x2a6>
80003f4a:	fe f8 02 0a 	ld.w	r8,pc[522]
80003f4e:	90 19       	ld.sh	r9,r8[0x2]
80003f50:	30 18       	mov	r8,1
80003f52:	f0 09 19 00 	cp.h	r9,r8
80003f56:	c0 81       	brne	80003f66 <udc_process_setup+0x2a6>
80003f58:	fe f8 02 00 	ld.w	r8,pc[512]
80003f5c:	90 09       	ld.sh	r9,r8[0x0]
80003f5e:	a9 d9       	cbr	r9,0x9
80003f60:	b0 09       	st.h	r8[0x0],r9
80003f62:	30 1c       	mov	r12,1
80003f64:	c9 a8       	rjmp	80004098 <udc_process_setup+0x3d8>
80003f66:	30 0c       	mov	r12,0
80003f68:	c9 88       	rjmp	80004098 <udc_process_setup+0x3d8>
80003f6a:	4f b8       	lddpc	r8,80004154 <udc_process_setup+0x494>
80003f6c:	90 39       	ld.sh	r9,r8[0x6]
80003f6e:	30 08       	mov	r8,0
80003f70:	f0 09 19 00 	cp.h	r9,r8
80003f74:	c3 41       	brne	80003fdc <udc_process_setup+0x31c>
80003f76:	f0 1f 00 84 	mcall	80004184 <udc_process_setup+0x4c4>
80003f7a:	c3 10       	breq	80003fdc <udc_process_setup+0x31c>
80003f7c:	4f 68       	lddpc	r8,80004154 <udc_process_setup+0x494>
80003f7e:	11 b9       	ld.ub	r9,r8[0x3]
80003f80:	4f 88       	lddpc	r8,80004160 <udc_process_setup+0x4a0>
80003f82:	70 08       	ld.w	r8,r8[0x0]
80003f84:	f1 38 00 11 	ld.ub	r8,r8[17]
80003f88:	10 39       	cp.w	r9,r8
80003f8a:	e0 89 00 29 	brgt	80003fdc <udc_process_setup+0x31c>
80003f8e:	f0 1f 00 7f 	mcall	80004188 <udc_process_setup+0x4c8>
80003f92:	4f 18       	lddpc	r8,80004154 <udc_process_setup+0x494>
80003f94:	11 b8       	ld.ub	r8,r8[0x3]
80003f96:	4f 59       	lddpc	r9,80004168 <udc_process_setup+0x4a8>
80003f98:	b2 88       	st.b	r9[0x0],r8
80003f9a:	58 08       	cp.w	r8,0
80003f9c:	c2 20       	breq	80003fe0 <udc_process_setup+0x320>
80003f9e:	20 18       	sub	r8,1
80003fa0:	4f 09       	lddpc	r9,80004160 <udc_process_setup+0x4a0>
80003fa2:	72 19       	ld.w	r9,r9[0x4]
80003fa4:	f2 08 00 38 	add	r8,r9,r8<<0x3
80003fa8:	4f 19       	lddpc	r9,8000416c <udc_process_setup+0x4ac>
80003faa:	93 08       	st.w	r9[0x0],r8
80003fac:	70 08       	ld.w	r8,r8[0x0]
80003fae:	11 c9       	ld.ub	r9,r8[0x4]
80003fb0:	30 08       	mov	r8,0
80003fb2:	f0 09 18 00 	cp.b	r9,r8
80003fb6:	c1 50       	breq	80003fe0 <udc_process_setup+0x320>
80003fb8:	30 07       	mov	r7,0
80003fba:	0e 95       	mov	r5,r7
80003fbc:	4e c6       	lddpc	r6,8000416c <udc_process_setup+0x4ac>
80003fbe:	0a 9b       	mov	r11,r5
80003fc0:	0e 9c       	mov	r12,r7
80003fc2:	f0 1f 00 73 	mcall	8000418c <udc_process_setup+0x4cc>
80003fc6:	c0 b0       	breq	80003fdc <udc_process_setup+0x31c>
80003fc8:	2f f7       	sub	r7,-1
80003fca:	5c 57       	castu.b	r7
80003fcc:	6c 08       	ld.w	r8,r6[0x0]
80003fce:	70 08       	ld.w	r8,r8[0x0]
80003fd0:	11 c8       	ld.ub	r8,r8[0x4]
80003fd2:	ee 08 18 00 	cp.b	r8,r7
80003fd6:	fe 9b ff f4 	brhi	80003fbe <udc_process_setup+0x2fe>
80003fda:	c0 38       	rjmp	80003fe0 <udc_process_setup+0x320>
80003fdc:	30 0c       	mov	r12,0
80003fde:	c5 d8       	rjmp	80004098 <udc_process_setup+0x3d8>
80003fe0:	30 1c       	mov	r12,1
80003fe2:	c5 b8       	rjmp	80004098 <udc_process_setup+0x3d8>
80003fe4:	58 18       	cp.w	r8,1
80003fe6:	c2 21       	brne	8000402a <udc_process_setup+0x36a>
80003fe8:	4d b9       	lddpc	r9,80004154 <udc_process_setup+0x494>
80003fea:	13 9a       	ld.ub	r10,r9[0x1]
80003fec:	30 b9       	mov	r9,11
80003fee:	f2 0a 18 00 	cp.b	r10,r9
80003ff2:	c1 c1       	brne	8000402a <udc_process_setup+0x36a>
80003ff4:	4d 88       	lddpc	r8,80004154 <udc_process_setup+0x494>
80003ff6:	90 39       	ld.sh	r9,r8[0x6]
80003ff8:	30 08       	mov	r8,0
80003ffa:	f0 09 19 00 	cp.h	r9,r8
80003ffe:	c1 41       	brne	80004026 <udc_process_setup+0x366>
80004000:	4d a8       	lddpc	r8,80004168 <udc_process_setup+0x4a8>
80004002:	11 89       	ld.ub	r9,r8[0x0]
80004004:	30 08       	mov	r8,0
80004006:	f0 09 18 00 	cp.b	r9,r8
8000400a:	c0 e0       	breq	80004026 <udc_process_setup+0x366>
8000400c:	4d 28       	lddpc	r8,80004154 <udc_process_setup+0x494>
8000400e:	90 16       	ld.sh	r6,r8[0x2]
80004010:	11 d7       	ld.ub	r7,r8[0x5]
80004012:	0e 9c       	mov	r12,r7
80004014:	f0 1f 00 5f 	mcall	80004190 <udc_process_setup+0x4d0>
80004018:	c0 70       	breq	80004026 <udc_process_setup+0x366>
8000401a:	f7 d6 c0 08 	bfextu	r11,r6,0x0,0x8
8000401e:	0e 9c       	mov	r12,r7
80004020:	f0 1f 00 5b 	mcall	8000418c <udc_process_setup+0x4cc>
80004024:	c3 a8       	rjmp	80004098 <udc_process_setup+0x3d8>
80004026:	30 0c       	mov	r12,0
80004028:	c3 88       	rjmp	80004098 <udc_process_setup+0x3d8>
8000402a:	58 28       	cp.w	r8,2
8000402c:	c3 81       	brne	8000409c <udc_process_setup+0x3dc>
8000402e:	4c a8       	lddpc	r8,80004154 <udc_process_setup+0x494>
80004030:	11 98       	ld.ub	r8,r8[0x1]
80004032:	30 19       	mov	r9,1
80004034:	f2 08 18 00 	cp.b	r8,r9
80004038:	c0 60       	breq	80004044 <udc_process_setup+0x384>
8000403a:	30 39       	mov	r9,3
8000403c:	f2 08 18 00 	cp.b	r8,r9
80004040:	c2 b1       	brne	80004096 <udc_process_setup+0x3d6>
80004042:	c1 48       	rjmp	8000406a <udc_process_setup+0x3aa>
80004044:	4c 48       	lddpc	r8,80004154 <udc_process_setup+0x494>
80004046:	90 39       	ld.sh	r9,r8[0x6]
80004048:	30 08       	mov	r8,0
8000404a:	f0 09 19 00 	cp.h	r9,r8
8000404e:	c0 c1       	brne	80004066 <udc_process_setup+0x3a6>
80004050:	4c 18       	lddpc	r8,80004154 <udc_process_setup+0x494>
80004052:	90 19       	ld.sh	r9,r8[0x2]
80004054:	30 08       	mov	r8,0
80004056:	f0 09 19 00 	cp.h	r9,r8
8000405a:	c0 61       	brne	80004066 <udc_process_setup+0x3a6>
8000405c:	4b e8       	lddpc	r8,80004154 <udc_process_setup+0x494>
8000405e:	11 dc       	ld.ub	r12,r8[0x5]
80004060:	f0 1f 00 4d 	mcall	80004194 <udc_process_setup+0x4d4>
80004064:	c1 a8       	rjmp	80004098 <udc_process_setup+0x3d8>
80004066:	30 0c       	mov	r12,0
80004068:	c1 88       	rjmp	80004098 <udc_process_setup+0x3d8>
8000406a:	4b b8       	lddpc	r8,80004154 <udc_process_setup+0x494>
8000406c:	90 39       	ld.sh	r9,r8[0x6]
8000406e:	30 08       	mov	r8,0
80004070:	f0 09 19 00 	cp.h	r9,r8
80004074:	c0 f1       	brne	80004092 <udc_process_setup+0x3d2>
80004076:	4b 88       	lddpc	r8,80004154 <udc_process_setup+0x494>
80004078:	90 19       	ld.sh	r9,r8[0x2]
8000407a:	30 08       	mov	r8,0
8000407c:	f0 09 19 00 	cp.h	r9,r8
80004080:	c0 91       	brne	80004092 <udc_process_setup+0x3d2>
80004082:	4b 57       	lddpc	r7,80004154 <udc_process_setup+0x494>
80004084:	0f dc       	ld.ub	r12,r7[0x5]
80004086:	f0 1f 00 45 	mcall	80004198 <udc_process_setup+0x4d8>
8000408a:	0f dc       	ld.ub	r12,r7[0x5]
8000408c:	f0 1f 00 44 	mcall	8000419c <udc_process_setup+0x4dc>
80004090:	c0 48       	rjmp	80004098 <udc_process_setup+0x3d8>
80004092:	30 0c       	mov	r12,0
80004094:	c0 28       	rjmp	80004098 <udc_process_setup+0x3d8>
80004096:	30 0c       	mov	r12,0
80004098:	58 0c       	cp.w	r12,0
8000409a:	c5 a1       	brne	8000414e <udc_process_setup+0x48e>
8000409c:	4a e8       	lddpc	r8,80004154 <udc_process_setup+0x494>
8000409e:	11 88       	ld.ub	r8,r8[0x0]
800040a0:	f1 d8 c0 05 	bfextu	r8,r8,0x0,0x5
800040a4:	58 18       	cp.w	r8,1
800040a6:	c2 61       	brne	800040f2 <udc_process_setup+0x432>
800040a8:	4b 08       	lddpc	r8,80004168 <udc_process_setup+0x4a8>
800040aa:	11 89       	ld.ub	r9,r8[0x0]
800040ac:	30 08       	mov	r8,0
800040ae:	f0 09 18 00 	cp.b	r9,r8
800040b2:	c2 00       	breq	800040f2 <udc_process_setup+0x432>
800040b4:	4a 88       	lddpc	r8,80004154 <udc_process_setup+0x494>
800040b6:	11 d7       	ld.ub	r7,r8[0x5]
800040b8:	4a d8       	lddpc	r8,8000416c <udc_process_setup+0x4ac>
800040ba:	70 08       	ld.w	r8,r8[0x0]
800040bc:	70 08       	ld.w	r8,r8[0x0]
800040be:	11 c8       	ld.ub	r8,r8[0x4]
800040c0:	ee 08 18 00 	cp.b	r8,r7
800040c4:	e0 88 00 17 	brls	800040f2 <udc_process_setup+0x432>
800040c8:	0e 96       	mov	r6,r7
800040ca:	30 0b       	mov	r11,0
800040cc:	0e 9c       	mov	r12,r7
800040ce:	f0 1f 00 29 	mcall	80004170 <udc_process_setup+0x4b0>
800040d2:	c1 00       	breq	800040f2 <udc_process_setup+0x432>
800040d4:	4a 68       	lddpc	r8,8000416c <udc_process_setup+0x4ac>
800040d6:	70 08       	ld.w	r8,r8[0x0]
800040d8:	70 18       	ld.w	r8,r8[0x4]
800040da:	f0 07 03 27 	ld.w	r7,r8[r7<<0x2]
800040de:	6e 3c       	ld.w	r12,r7[0xc]
800040e0:	5d 1c       	icall	r12
800040e2:	18 9b       	mov	r11,r12
800040e4:	0c 9c       	mov	r12,r6
800040e6:	f0 1f 00 23 	mcall	80004170 <udc_process_setup+0x4b0>
800040ea:	c0 40       	breq	800040f2 <udc_process_setup+0x432>
800040ec:	6e 2c       	ld.w	r12,r7[0x8]
800040ee:	5d 1c       	icall	r12
800040f0:	c2 f1       	brne	8000414e <udc_process_setup+0x48e>
800040f2:	49 98       	lddpc	r8,80004154 <udc_process_setup+0x494>
800040f4:	11 88       	ld.ub	r8,r8[0x0]
800040f6:	f1 d8 c0 05 	bfextu	r8,r8,0x0,0x5
800040fa:	58 28       	cp.w	r8,2
800040fc:	c2 71       	brne	8000414a <udc_process_setup+0x48a>
800040fe:	49 b8       	lddpc	r8,80004168 <udc_process_setup+0x4a8>
80004100:	11 89       	ld.ub	r9,r8[0x0]
80004102:	30 08       	mov	r8,0
80004104:	f0 09 18 00 	cp.b	r9,r8
80004108:	c2 10       	breq	8000414a <udc_process_setup+0x48a>
8000410a:	49 98       	lddpc	r8,8000416c <udc_process_setup+0x4ac>
8000410c:	70 08       	ld.w	r8,r8[0x0]
8000410e:	70 09       	ld.w	r9,r8[0x0]
80004110:	13 ca       	ld.ub	r10,r9[0x4]
80004112:	30 09       	mov	r9,0
80004114:	f2 0a 18 00 	cp.b	r10,r9
80004118:	c1 90       	breq	8000414a <udc_process_setup+0x48a>
8000411a:	30 07       	mov	r7,0
8000411c:	49 45       	lddpc	r5,8000416c <udc_process_setup+0x4ac>
8000411e:	70 18       	ld.w	r8,r8[0x4]
80004120:	f0 07 03 26 	ld.w	r6,r8[r7<<0x2]
80004124:	6c 3c       	ld.w	r12,r6[0xc]
80004126:	5d 1c       	icall	r12
80004128:	18 9b       	mov	r11,r12
8000412a:	0e 9c       	mov	r12,r7
8000412c:	f0 1f 00 11 	mcall	80004170 <udc_process_setup+0x4b0>
80004130:	c0 d0       	breq	8000414a <udc_process_setup+0x48a>
80004132:	6c 2c       	ld.w	r12,r6[0x8]
80004134:	5d 1c       	icall	r12
80004136:	c0 c1       	brne	8000414e <udc_process_setup+0x48e>
80004138:	2f f7       	sub	r7,-1
8000413a:	5c 57       	castu.b	r7
8000413c:	6a 08       	ld.w	r8,r5[0x0]
8000413e:	70 09       	ld.w	r9,r8[0x0]
80004140:	13 c9       	ld.ub	r9,r9[0x4]
80004142:	ee 09 18 00 	cp.b	r9,r7
80004146:	fe 9b ff ec 	brhi	8000411e <udc_process_setup+0x45e>
8000414a:	e3 cf 80 e0 	ldm	sp++,r5-r7,pc,r12=0
8000414e:	e3 cf 90 e0 	ldm	sp++,r5-r7,pc,r12=1
80004152:	00 00       	add	r0,r0
80004154:	00 00       	add	r0,r0
80004156:	0a c8       	st.b	r5++,r8
80004158:	00 00       	add	r0,r0
8000415a:	09 c0       	ld.ub	r0,r4[0x4]
8000415c:	80 00       	ld.sh	r0,r0[0x0]
8000415e:	21 e0       	sub	r0,30
80004160:	00 00       	add	r0,r0
80004162:	00 34       	cp.w	r4,r0
80004164:	00 00       	add	r0,r0
80004166:	00 a0       	st.w	r0++,r0
80004168:	00 00       	add	r0,r0
8000416a:	09 c4       	ld.ub	r4,r4[0x4]
8000416c:	00 00       	add	r0,r0
8000416e:	09 b4       	ld.ub	r4,r4[0x3]
80004170:	80 00       	ld.sh	r0,r0[0x0]
80004172:	3a b0       	mov	r0,-85
80004174:	00 00       	add	r0,r0
80004176:	09 bc       	ld.ub	r12,r4[0x3]
80004178:	80 00       	ld.sh	r0,r0[0x0]
8000417a:	21 ec       	sub	r12,30
8000417c:	00 00       	add	r0,r0
8000417e:	09 b8       	ld.ub	r8,r4[0x3]
80004180:	80 00       	ld.sh	r0,r0[0x0]
80004182:	3b 84       	mov	r4,-72
80004184:	80 00       	ld.sh	r0,r0[0x0]
80004186:	21 c4       	sub	r4,28
80004188:	80 00       	ld.sh	r0,r0[0x0]
8000418a:	3c 60       	mov	r0,-58
8000418c:	80 00       	ld.sh	r0,r0[0x0]
8000418e:	3b 9c       	mov	r12,-71
80004190:	80 00       	ld.sh	r0,r0[0x0]
80004192:	3b fc       	mov	r12,-65
80004194:	80 00       	ld.sh	r0,r0[0x0]
80004196:	22 00       	sub	r0,32
80004198:	80 00       	ld.sh	r0,r0[0x0]
8000419a:	22 d4       	sub	r4,45
8000419c:	80 00       	ld.sh	r0,r0[0x0]
8000419e:	23 4c       	sub	r12,52

800041a0 <udc_start>:
800041a0:	d4 01       	pushm	lr
800041a2:	f0 1f 00 02 	mcall	800041a8 <udc_start+0x8>
800041a6:	d8 02       	popm	pc
800041a8:	80 00       	ld.sh	r0,r0[0x0]
800041aa:	2a fc       	sub	r12,-81

800041ac <_read>:
800041ac:	eb cd 40 f8 	pushm	r3-r7,lr
800041b0:	16 94       	mov	r4,r11
800041b2:	14 95       	mov	r5,r10
800041b4:	58 0c       	cp.w	r12,0
800041b6:	c0 30       	breq	800041bc <_read+0x10>
800041b8:	e3 cf c0 f8 	ldm	sp++,r3-r7,pc,r12=-1
800041bc:	58 0a       	cp.w	r10,0
800041be:	e0 89 00 04 	brgt	800041c6 <_read+0x1a>
800041c2:	e3 cf 80 f8 	ldm	sp++,r3-r7,pc,r12=0
800041c6:	30 07       	mov	r7,0
800041c8:	48 83       	lddpc	r3,800041e8 <_read+0x3c>
800041ca:	48 96       	lddpc	r6,800041ec <_read+0x40>
800041cc:	66 0c       	ld.w	r12,r3[0x0]
800041ce:	6c 08       	ld.w	r8,r6[0x0]
800041d0:	e8 07 00 0b 	add	r11,r4,r7
800041d4:	5d 18       	icall	r8
800041d6:	2f f7       	sub	r7,-1
800041d8:	ea 07 01 08 	sub	r8,r5,r7
800041dc:	58 08       	cp.w	r8,0
800041de:	fe 99 ff f7 	brgt	800041cc <_read+0x20>
800041e2:	0a 9c       	mov	r12,r5
800041e4:	e3 cd 80 f8 	ldm	sp++,r3-r7,pc
800041e8:	00 00       	add	r0,r0
800041ea:	0b 30       	ld.ub	r0,r5++
800041ec:	00 00       	add	r0,r0
800041ee:	0b 28       	ld.uh	r8,r5++

800041f0 <stdio_usb_enable>:
800041f0:	30 19       	mov	r9,1
800041f2:	48 28       	lddpc	r8,800041f8 <stdio_usb_enable+0x8>
800041f4:	b0 89       	st.b	r8[0x0],r9
800041f6:	5e ff       	retal	1
800041f8:	00 00       	add	r0,r0
800041fa:	09 cc       	ld.ub	r12,r4[0x4]

800041fc <stdio_usb_init>:
800041fc:	eb cd 40 c0 	pushm	r6-r7,lr
80004200:	30 07       	mov	r7,0
80004202:	48 c8       	lddpc	r8,80004230 <stdio_usb_init+0x34>
80004204:	91 07       	st.w	r8[0x0],r7
80004206:	48 c9       	lddpc	r9,80004234 <stdio_usb_init+0x38>
80004208:	48 c8       	lddpc	r8,80004238 <stdio_usb_init+0x3c>
8000420a:	91 09       	st.w	r8[0x0],r9
8000420c:	48 c9       	lddpc	r9,8000423c <stdio_usb_init+0x40>
8000420e:	48 d8       	lddpc	r8,80004240 <stdio_usb_init+0x44>
80004210:	91 09       	st.w	r8[0x0],r9
80004212:	f0 1f 00 0d 	mcall	80004244 <stdio_usb_init+0x48>
80004216:	48 d6       	lddpc	r6,80004248 <stdio_usb_init+0x4c>
80004218:	6c 08       	ld.w	r8,r6[0x0]
8000421a:	0e 9b       	mov	r11,r7
8000421c:	70 1c       	ld.w	r12,r8[0x4]
8000421e:	f0 1f 00 0c 	mcall	8000424c <stdio_usb_init+0x50>
80004222:	6c 08       	ld.w	r8,r6[0x0]
80004224:	0e 9b       	mov	r11,r7
80004226:	70 0c       	ld.w	r12,r8[0x0]
80004228:	f0 1f 00 09 	mcall	8000424c <stdio_usb_init+0x50>
8000422c:	e3 cd 80 c0 	ldm	sp++,r6-r7,pc
80004230:	00 00       	add	r0,r0
80004232:	0b 30       	ld.ub	r0,r5++
80004234:	80 00       	ld.sh	r0,r0[0x0]
80004236:	42 7c       	lddsp	r12,sp[0x9c]
80004238:	00 00       	add	r0,r0
8000423a:	0b 2c       	ld.uh	r12,r5++
8000423c:	80 00       	ld.sh	r0,r0[0x0]
8000423e:	42 50       	lddsp	r0,sp[0x94]
80004240:	00 00       	add	r0,r0
80004242:	0b 28       	ld.uh	r8,r5++
80004244:	80 00       	ld.sh	r0,r0[0x0]
80004246:	41 a0       	lddsp	r0,sp[0x68]
80004248:	00 00       	add	r0,r0
8000424a:	01 94       	ld.ub	r4,r0[0x1]
8000424c:	80 00       	ld.sh	r0,r0[0x0]
8000424e:	45 b4       	lddsp	r4,sp[0x16c]

80004250 <stdio_usb_getchar>:
80004250:	eb cd 40 80 	pushm	r7,lr
80004254:	16 97       	mov	r7,r11
80004256:	48 88       	lddpc	r8,80004274 <stdio_usb_getchar+0x24>
80004258:	11 89       	ld.ub	r9,r8[0x0]
8000425a:	30 08       	mov	r8,0
8000425c:	f0 09 18 00 	cp.b	r9,r8
80004260:	c0 41       	brne	80004268 <stdio_usb_getchar+0x18>
80004262:	b6 88       	st.b	r11[0x0],r8
80004264:	e3 cd 80 80 	ldm	sp++,r7,pc
80004268:	f0 1f 00 04 	mcall	80004278 <stdio_usb_getchar+0x28>
8000426c:	ae 8c       	st.b	r7[0x0],r12
8000426e:	e3 cd 80 80 	ldm	sp++,r7,pc
80004272:	00 00       	add	r0,r0
80004274:	00 00       	add	r0,r0
80004276:	09 cc       	ld.ub	r12,r4[0x4]
80004278:	80 00       	ld.sh	r0,r0[0x0]
8000427a:	37 b8       	mov	r8,123

8000427c <stdio_usb_putchar>:
8000427c:	d4 01       	pushm	lr
8000427e:	48 78       	lddpc	r8,80004298 <stdio_usb_putchar+0x1c>
80004280:	11 89       	ld.ub	r9,r8[0x0]
80004282:	30 08       	mov	r8,0
80004284:	f0 09 18 00 	cp.b	r9,r8
80004288:	c0 60       	breq	80004294 <stdio_usb_putchar+0x18>
8000428a:	16 9c       	mov	r12,r11
8000428c:	f0 1f 00 04 	mcall	8000429c <stdio_usb_putchar+0x20>
80004290:	c0 21       	brne	80004294 <stdio_usb_putchar+0x18>
80004292:	dc 0a       	popm	pc,r12=-1
80004294:	d8 0a       	popm	pc,r12=0
80004296:	00 00       	add	r0,r0
80004298:	00 00       	add	r0,r0
8000429a:	09 cc       	ld.ub	r12,r4[0x4]
8000429c:	80 00       	ld.sh	r0,r0[0x0]
8000429e:	36 30       	mov	r0,99

800042a0 <_write>:
800042a0:	eb cd 40 f8 	pushm	r3-r7,lr
800042a4:	16 94       	mov	r4,r11
800042a6:	14 95       	mov	r5,r10
800042a8:	20 1c       	sub	r12,1
800042aa:	58 2c       	cp.w	r12,2
800042ac:	e0 8b 00 13 	brhi	800042d2 <_write+0x32>
800042b0:	58 0a       	cp.w	r10,0
800042b2:	c0 31       	brne	800042b8 <_write+0x18>
800042b4:	30 07       	mov	r7,0
800042b6:	c0 f8       	rjmp	800042d4 <_write+0x34>
800042b8:	30 07       	mov	r7,0
800042ba:	48 93       	lddpc	r3,800042dc <_write+0x3c>
800042bc:	48 96       	lddpc	r6,800042e0 <_write+0x40>
800042be:	66 0c       	ld.w	r12,r3[0x0]
800042c0:	6c 08       	ld.w	r8,r6[0x0]
800042c2:	e8 07 07 0b 	ld.ub	r11,r4[r7]
800042c6:	5d 18       	icall	r8
800042c8:	c0 55       	brlt	800042d2 <_write+0x32>
800042ca:	2f f7       	sub	r7,-1
800042cc:	0e 35       	cp.w	r5,r7
800042ce:	cf 81       	brne	800042be <_write+0x1e>
800042d0:	c0 28       	rjmp	800042d4 <_write+0x34>
800042d2:	3f f7       	mov	r7,-1
800042d4:	0e 9c       	mov	r12,r7
800042d6:	e3 cd 80 f8 	ldm	sp++,r3-r7,pc
800042da:	00 00       	add	r0,r0
800042dc:	00 00       	add	r0,r0
800042de:	0b 30       	ld.ub	r0,r5++
800042e0:	00 00       	add	r0,r0
800042e2:	0b 2c       	ld.uh	r12,r5++

800042e4 <read_usb_chars>:
 */
#include <asf.h>

uint8_t ch;

void read_usb_chars(void) {
800042e4:	d4 01       	pushm	lr
	// Read in USB chars and act on them, if there are any
	/*
		* r: Reset to bootloader
		*/
	if (udi_cdc_is_rx_ready()) {
800042e6:	f0 1f 00 0b 	mcall	80004310 <read_usb_chars+0x2c>
800042ea:	c1 10       	breq	8000430c <read_usb_chars+0x28>
		if(scanf("%c",&ch) > 0) {
800042ec:	48 a8       	lddpc	r8,80004314 <read_usb_chars+0x30>
800042ee:	1a d8       	st.w	--sp,r8
800042f0:	48 ac       	lddpc	r12,80004318 <read_usb_chars+0x34>
800042f2:	f0 1f 00 0b 	mcall	8000431c <read_usb_chars+0x38>
800042f6:	2f fd       	sub	sp,-4
800042f8:	58 0c       	cp.w	r12,0
800042fa:	e0 8a 00 09 	brle	8000430c <read_usb_chars+0x28>
			printf("user typed \t%c\n\r", ch);	
800042fe:	48 68       	lddpc	r8,80004314 <read_usb_chars+0x30>
80004300:	11 88       	ld.ub	r8,r8[0x0]
80004302:	1a d8       	st.w	--sp,r8
80004304:	48 7c       	lddpc	r12,80004320 <read_usb_chars+0x3c>
80004306:	f0 1f 00 08 	mcall	80004324 <read_usb_chars+0x40>
8000430a:	2f fd       	sub	sp,-4
8000430c:	d8 02       	popm	pc
8000430e:	00 00       	add	r0,r0
80004310:	80 00       	ld.sh	r0,r0[0x0]
80004312:	36 88       	mov	r8,104
80004314:	00 00       	add	r0,r0
80004316:	0b 34       	ld.ub	r4,r5++
80004318:	80 00       	ld.sh	r0,r0[0x0]
8000431a:	d7 78       	*unknown*
8000431c:	80 00       	ld.sh	r0,r0[0x0]
8000431e:	45 84       	lddsp	r4,sp[0x160]
80004320:	80 00       	ld.sh	r0,r0[0x0]
80004322:	d7 7c       	*unknown*
80004324:	80 00       	ld.sh	r0,r0[0x0]
80004326:	45 58       	lddsp	r8,sp[0x154]

80004328 <main>:
		}
	}
}

int main (void)
{
80004328:	eb cd 40 80 	pushm	r7,lr
	/* Insert system clock initialization code here (sysclk_init()). */

	board_init();
8000432c:	f0 1f 00 2a 	mcall	800043d4 <main+0xac>
	irq_initialize_vectors();
80004330:	f0 1f 00 2a 	mcall	800043d8 <main+0xb0>
	cpu_irq_enable();
80004334:	d5 03       	csrf	0x10
{
#ifdef CONFIG_SLEEPMGR_ENABLE
	uint8_t i;

	for (i = 0; i < SLEEPMGR_NR_OF_MODES - 1; i++) {
		sleepmgr_locks[i] = 0;
80004336:	4a a8       	lddpc	r8,800043dc <main+0xb4>
80004338:	30 09       	mov	r9,0
8000433a:	b0 89       	st.b	r8[0x0],r9
8000433c:	b0 99       	st.b	r8[0x1],r9
8000433e:	b0 a9       	st.b	r8[0x2],r9
80004340:	b0 b9       	st.b	r8[0x3],r9
80004342:	b0 c9       	st.b	r8[0x4],r9
80004344:	b0 d9       	st.b	r8[0x5],r9
	}
	sleepmgr_locks[SLEEPMGR_NR_OF_MODES - 1] = 1;
80004346:	30 19       	mov	r9,1
80004348:	b0 e9       	st.b	r8[0x6],r9
	//INTC_init_interrupts();
	sleepmgr_init();
	sysclk_init();
8000434a:	f0 1f 00 26 	mcall	800043e0 <main+0xb8>
	
	udc_start();
8000434e:	f0 1f 00 26 	mcall	800043e4 <main+0xbc>
	stdio_usb_init();
80004352:	f0 1f 00 26 	mcall	800043e8 <main+0xc0>
	stdio_usb_enable();
80004356:	f0 1f 00 26 	mcall	800043ec <main+0xc4>
	
	gpio_configure_pin(AVR32_PIN_PA19, GPIO_DIR_OUTPUT);
8000435a:	30 1b       	mov	r11,1
8000435c:	31 3c       	mov	r12,19
8000435e:	f0 1f 00 25 	mcall	800043f0 <main+0xc8>

	/* Insert application code here, after the board has been initialized. */
	
	while(1) {
		gpio_set_gpio_pin(AVR32_PIN_PA19);
80004362:	31 37       	mov	r7,19
80004364:	0e 9c       	mov	r12,r7
80004366:	f0 1f 00 24 	mcall	800043f4 <main+0xcc>
 * \param  delay:   (input) delay in CPU cycles before timeout.
 * \param  cpu_time: (output) internal information used by the timer API.
 */
__always_inline static void cpu_set_timeout(unsigned long delay, t_cpu_time *cpu_time)
{
  cpu_time->delay_start_cycle = Get_system_register(AVR32_COUNT);
8000436a:	e1 b8 00 42 	mfsr	r8,0x108
  cpu_time->delay_end_cycle   = cpu_time->delay_start_cycle + delay;
8000436e:	e8 79 27 c0 	mov	r9,600000
80004372:	f0 09 00 0a 	add	r10,r8,r9
 *
 * \return true if timeout occurred, otherwise false.
 */
__always_inline static unsigned long cpu_is_timeout(t_cpu_time *cpu_time)
{
  unsigned long current_cycle_count = Get_system_register(AVR32_COUNT);
80004376:	e1 b9 00 42 	mfsr	r9,0x108
  // Test if the timeout as already occurred.
  else if (cpu_time->timer_state == CPU_TIMER_STATE_REACHED)
    return true;

  // If the ending cycle count of this timeout is wrapped, ...
  else if (cpu_time->delay_start_cycle > cpu_time->delay_end_cycle)
8000437a:	14 38       	cp.w	r8,r10
8000437c:	e0 88 00 08 	brls	8000438c <main+0x64>
  {
    if (current_cycle_count < cpu_time->delay_start_cycle && current_cycle_count > cpu_time->delay_end_cycle)
80004380:	12 38       	cp.w	r8,r9
80004382:	fe 98 ff fa 	brls	80004376 <main+0x4e>
80004386:	12 3a       	cp.w	r10,r9
80004388:	c1 93       	brcs	800043ba <main+0x92>
8000438a:	cf 6b       	rjmp	80004376 <main+0x4e>
    }
    return false;
  }
  else
  {
    if (current_cycle_count < cpu_time->delay_start_cycle || current_cycle_count > cpu_time->delay_end_cycle)
8000438c:	12 38       	cp.w	r8,r9
8000438e:	e0 8b 00 16 	brhi	800043ba <main+0x92>
80004392:	12 3a       	cp.w	r10,r9
80004394:	c1 33       	brcs	800043ba <main+0x92>
80004396:	cf 0b       	rjmp	80004376 <main+0x4e>
 *
 * \return true if timeout occurred, otherwise false.
 */
__always_inline static unsigned long cpu_is_timeout(t_cpu_time *cpu_time)
{
  unsigned long current_cycle_count = Get_system_register(AVR32_COUNT);
80004398:	e1 b9 00 42 	mfsr	r9,0x108
  // Test if the timeout as already occurred.
  else if (cpu_time->timer_state == CPU_TIMER_STATE_REACHED)
    return true;

  // If the ending cycle count of this timeout is wrapped, ...
  else if (cpu_time->delay_start_cycle > cpu_time->delay_end_cycle)
8000439c:	14 38       	cp.w	r8,r10
8000439e:	e0 88 00 08 	brls	800043ae <main+0x86>
  {
    if (current_cycle_count < cpu_time->delay_start_cycle && current_cycle_count > cpu_time->delay_end_cycle)
800043a2:	12 38       	cp.w	r8,r9
800043a4:	fe 98 ff fa 	brls	80004398 <main+0x70>
800043a8:	12 3a       	cp.w	r10,r9
800043aa:	c1 23       	brcs	800043ce <main+0xa6>
800043ac:	cf 6b       	rjmp	80004398 <main+0x70>
    }
    return false;
  }
  else
  {
    if (current_cycle_count < cpu_time->delay_start_cycle || current_cycle_count > cpu_time->delay_end_cycle)
800043ae:	12 38       	cp.w	r8,r9
800043b0:	e0 8b 00 0f 	brhi	800043ce <main+0xa6>
800043b4:	12 3a       	cp.w	r10,r9
800043b6:	c0 c3       	brcs	800043ce <main+0xa6>
800043b8:	cf 0b       	rjmp	80004398 <main+0x70>
		delay_ms(50);
		gpio_clr_gpio_pin(AVR32_PIN_PA19);
800043ba:	0e 9c       	mov	r12,r7
800043bc:	f0 1f 00 0f 	mcall	800043f8 <main+0xd0>
 * \param  delay:   (input) delay in CPU cycles before timeout.
 * \param  cpu_time: (output) internal information used by the timer API.
 */
__always_inline static void cpu_set_timeout(unsigned long delay, t_cpu_time *cpu_time)
{
  cpu_time->delay_start_cycle = Get_system_register(AVR32_COUNT);
800043c0:	e1 b8 00 42 	mfsr	r8,0x108
  cpu_time->delay_end_cycle   = cpu_time->delay_start_cycle + delay;
800043c4:	e8 79 27 c0 	mov	r9,600000
800043c8:	f0 09 00 0a 	add	r10,r8,r9
800043cc:	ce 6b       	rjmp	80004398 <main+0x70>
		delay_ms(50);	
		read_usb_chars();
800043ce:	f0 1f 00 0c 	mcall	800043fc <main+0xd4>
	}
800043d2:	cc 9b       	rjmp	80004364 <main+0x3c>
800043d4:	80 00       	ld.sh	r0,r0[0x0]
800043d6:	34 04       	mov	r4,64
800043d8:	80 00       	ld.sh	r0,r0[0x0]
800043da:	33 34       	mov	r4,51
800043dc:	00 00       	add	r0,r0
800043de:	0b 20       	ld.uh	r0,r5++
800043e0:	80 00       	ld.sh	r0,r0[0x0]
800043e2:	32 7c       	mov	r12,39
800043e4:	80 00       	ld.sh	r0,r0[0x0]
800043e6:	41 a0       	lddsp	r0,sp[0x68]
800043e8:	80 00       	ld.sh	r0,r0[0x0]
800043ea:	41 fc       	lddsp	r12,sp[0x7c]
800043ec:	80 00       	ld.sh	r0,r0[0x0]
800043ee:	41 f0       	lddsp	r0,sp[0x7c]
800043f0:	80 00       	ld.sh	r0,r0[0x0]
800043f2:	20 38       	sub	r8,3
800043f4:	80 00       	ld.sh	r0,r0[0x0]
800043f6:	21 68       	sub	r8,22
800043f8:	80 00       	ld.sh	r0,r0[0x0]
800043fa:	21 84       	sub	r4,24
800043fc:	80 00       	ld.sh	r0,r0[0x0]
800043fe:	42 e4       	lddsp	r4,sp[0xb8]

80004400 <memcpy>:
80004400:	58 8a       	cp.w	r10,8
80004402:	c2 f5       	brlt	80004460 <memcpy+0x60>
80004404:	f9 eb 10 09 	or	r9,r12,r11
80004408:	e2 19 00 03 	andl	r9,0x3,COH
8000440c:	e0 81 00 97 	brne	8000453a <memcpy+0x13a>
80004410:	e0 4a 00 20 	cp.w	r10,32
80004414:	c3 b4       	brge	8000448a <memcpy+0x8a>
80004416:	f4 08 14 02 	asr	r8,r10,0x2
8000441a:	f0 09 11 08 	rsub	r9,r8,8
8000441e:	fe 09 00 2f 	add	pc,pc,r9<<0x2
80004422:	76 69       	ld.w	r9,r11[0x18]
80004424:	99 69       	st.w	r12[0x18],r9
80004426:	76 59       	ld.w	r9,r11[0x14]
80004428:	99 59       	st.w	r12[0x14],r9
8000442a:	76 49       	ld.w	r9,r11[0x10]
8000442c:	99 49       	st.w	r12[0x10],r9
8000442e:	76 39       	ld.w	r9,r11[0xc]
80004430:	99 39       	st.w	r12[0xc],r9
80004432:	76 29       	ld.w	r9,r11[0x8]
80004434:	99 29       	st.w	r12[0x8],r9
80004436:	76 19       	ld.w	r9,r11[0x4]
80004438:	99 19       	st.w	r12[0x4],r9
8000443a:	76 09       	ld.w	r9,r11[0x0]
8000443c:	99 09       	st.w	r12[0x0],r9
8000443e:	f6 08 00 2b 	add	r11,r11,r8<<0x2
80004442:	f8 08 00 28 	add	r8,r12,r8<<0x2
80004446:	e0 1a 00 03 	andl	r10,0x3
8000444a:	f4 0a 11 04 	rsub	r10,r10,4
8000444e:	fe 0a 00 2f 	add	pc,pc,r10<<0x2
80004452:	17 a9       	ld.ub	r9,r11[0x2]
80004454:	b0 a9       	st.b	r8[0x2],r9
80004456:	17 99       	ld.ub	r9,r11[0x1]
80004458:	b0 99       	st.b	r8[0x1],r9
8000445a:	17 89       	ld.ub	r9,r11[0x0]
8000445c:	b0 89       	st.b	r8[0x0],r9
8000445e:	5e fc       	retal	r12
80004460:	f4 0a 11 09 	rsub	r10,r10,9
80004464:	fe 0a 00 2f 	add	pc,pc,r10<<0x2
80004468:	17 f9       	ld.ub	r9,r11[0x7]
8000446a:	b8 f9       	st.b	r12[0x7],r9
8000446c:	17 e9       	ld.ub	r9,r11[0x6]
8000446e:	b8 e9       	st.b	r12[0x6],r9
80004470:	17 d9       	ld.ub	r9,r11[0x5]
80004472:	b8 d9       	st.b	r12[0x5],r9
80004474:	17 c9       	ld.ub	r9,r11[0x4]
80004476:	b8 c9       	st.b	r12[0x4],r9
80004478:	17 b9       	ld.ub	r9,r11[0x3]
8000447a:	b8 b9       	st.b	r12[0x3],r9
8000447c:	17 a9       	ld.ub	r9,r11[0x2]
8000447e:	b8 a9       	st.b	r12[0x2],r9
80004480:	17 99       	ld.ub	r9,r11[0x1]
80004482:	b8 99       	st.b	r12[0x1],r9
80004484:	17 89       	ld.ub	r9,r11[0x0]
80004486:	b8 89       	st.b	r12[0x0],r9
80004488:	5e fc       	retal	r12
8000448a:	eb cd 40 c0 	pushm	r6-r7,lr
8000448e:	18 99       	mov	r9,r12
80004490:	22 0a       	sub	r10,32
80004492:	b7 07       	ld.d	r6,r11++
80004494:	b3 26       	st.d	r9++,r6
80004496:	b7 07       	ld.d	r6,r11++
80004498:	b3 26       	st.d	r9++,r6
8000449a:	b7 07       	ld.d	r6,r11++
8000449c:	b3 26       	st.d	r9++,r6
8000449e:	b7 07       	ld.d	r6,r11++
800044a0:	b3 26       	st.d	r9++,r6
800044a2:	22 0a       	sub	r10,32
800044a4:	cf 74       	brge	80004492 <memcpy+0x92>
800044a6:	2f 0a       	sub	r10,-16
800044a8:	c0 65       	brlt	800044b4 <memcpy+0xb4>
800044aa:	b7 07       	ld.d	r6,r11++
800044ac:	b3 26       	st.d	r9++,r6
800044ae:	b7 07       	ld.d	r6,r11++
800044b0:	b3 26       	st.d	r9++,r6
800044b2:	21 0a       	sub	r10,16
800044b4:	5c 3a       	neg	r10
800044b6:	fe 0a 00 3f 	add	pc,pc,r10<<0x3
800044ba:	d7 03       	nop
800044bc:	d7 03       	nop
800044be:	f7 36 00 0e 	ld.ub	r6,r11[14]
800044c2:	f3 66 00 0e 	st.b	r9[14],r6
800044c6:	f7 36 00 0d 	ld.ub	r6,r11[13]
800044ca:	f3 66 00 0d 	st.b	r9[13],r6
800044ce:	f7 36 00 0c 	ld.ub	r6,r11[12]
800044d2:	f3 66 00 0c 	st.b	r9[12],r6
800044d6:	f7 36 00 0b 	ld.ub	r6,r11[11]
800044da:	f3 66 00 0b 	st.b	r9[11],r6
800044de:	f7 36 00 0a 	ld.ub	r6,r11[10]
800044e2:	f3 66 00 0a 	st.b	r9[10],r6
800044e6:	f7 36 00 09 	ld.ub	r6,r11[9]
800044ea:	f3 66 00 09 	st.b	r9[9],r6
800044ee:	f7 36 00 08 	ld.ub	r6,r11[8]
800044f2:	f3 66 00 08 	st.b	r9[8],r6
800044f6:	f7 36 00 07 	ld.ub	r6,r11[7]
800044fa:	f3 66 00 07 	st.b	r9[7],r6
800044fe:	f7 36 00 06 	ld.ub	r6,r11[6]
80004502:	f3 66 00 06 	st.b	r9[6],r6
80004506:	f7 36 00 05 	ld.ub	r6,r11[5]
8000450a:	f3 66 00 05 	st.b	r9[5],r6
8000450e:	f7 36 00 04 	ld.ub	r6,r11[4]
80004512:	f3 66 00 04 	st.b	r9[4],r6
80004516:	f7 36 00 03 	ld.ub	r6,r11[3]
8000451a:	f3 66 00 03 	st.b	r9[3],r6
8000451e:	f7 36 00 02 	ld.ub	r6,r11[2]
80004522:	f3 66 00 02 	st.b	r9[2],r6
80004526:	f7 36 00 01 	ld.ub	r6,r11[1]
8000452a:	f3 66 00 01 	st.b	r9[1],r6
8000452e:	f7 36 00 00 	ld.ub	r6,r11[0]
80004532:	f3 66 00 00 	st.b	r9[0],r6
80004536:	e3 cd 80 c0 	ldm	sp++,r6-r7,pc
8000453a:	20 1a       	sub	r10,1
8000453c:	f6 0a 07 09 	ld.ub	r9,r11[r10]
80004540:	f8 0a 0b 09 	st.b	r12[r10],r9
80004544:	cf b1       	brne	8000453a <memcpy+0x13a>
80004546:	5e fc       	retal	r12

80004548 <memset>:
80004548:	18 98       	mov	r8,r12
8000454a:	c0 38       	rjmp	80004550 <memset+0x8>
8000454c:	10 cb       	st.b	r8++,r11
8000454e:	20 1a       	sub	r10,1
80004550:	58 0a       	cp.w	r10,0
80004552:	cf d1       	brne	8000454c <memset+0x4>
80004554:	5e fc       	retal	r12
80004556:	d7 03       	nop

80004558 <printf>:
80004558:	d4 21       	pushm	r4-r7,lr
8000455a:	e0 68 01 94 	mov	r8,404
8000455e:	fa c4 ff ec 	sub	r4,sp,-20
80004562:	18 96       	mov	r6,r12
80004564:	70 07       	ld.w	r7,r8[0x0]
80004566:	58 07       	cp.w	r7,0
80004568:	c0 70       	breq	80004576 <printf+0x1e>
8000456a:	6e 68       	ld.w	r8,r7[0x18]
8000456c:	58 08       	cp.w	r8,0
8000456e:	c0 41       	brne	80004576 <printf+0x1e>
80004570:	0e 9c       	mov	r12,r7
80004572:	e0 a0 24 37 	rcall	80008de0 <__sinit>
80004576:	08 99       	mov	r9,r4
80004578:	0c 9a       	mov	r10,r6
8000457a:	0e 9c       	mov	r12,r7
8000457c:	6e 1b       	ld.w	r11,r7[0x4]
8000457e:	e0 a0 02 4b 	rcall	80004a14 <_vfprintf_r>
80004582:	d8 22       	popm	r4-r7,pc

80004584 <scanf>:
80004584:	d4 21       	pushm	r4-r7,lr
80004586:	e0 68 01 94 	mov	r8,404
8000458a:	18 97       	mov	r7,r12
8000458c:	fa c4 ff ec 	sub	r4,sp,-20
80004590:	70 0c       	ld.w	r12,r8[0x0]
80004592:	58 0c       	cp.w	r12,0
80004594:	c0 60       	breq	800045a0 <scanf+0x1c>
80004596:	78 68       	ld.w	r8,r12[0x18]
80004598:	58 08       	cp.w	r8,0
8000459a:	c0 31       	brne	800045a0 <scanf+0x1c>
8000459c:	e0 a0 24 22 	rcall	80008de0 <__sinit>
800045a0:	e0 68 01 94 	mov	r8,404
800045a4:	70 08       	ld.w	r8,r8[0x0]
800045a6:	08 99       	mov	r9,r4
800045a8:	0e 9a       	mov	r10,r7
800045aa:	10 9c       	mov	r12,r8
800045ac:	70 0b       	ld.w	r11,r8[0x0]
800045ae:	e0 a0 11 c7 	rcall	8000693c <__svfscanf_r>
800045b2:	d8 22       	popm	r4-r7,pc

800045b4 <setbuf>:
800045b4:	d4 01       	pushm	lr
800045b6:	e0 69 04 00 	mov	r9,1024
800045ba:	58 0b       	cp.w	r11,0
800045bc:	f9 ba 00 02 	moveq	r10,2
800045c0:	f9 ba 01 00 	movne	r10,0
800045c4:	c0 2c       	rcall	800045c8 <setvbuf>
800045c6:	d8 02       	popm	pc

800045c8 <setvbuf>:
800045c8:	d4 31       	pushm	r0-r7,lr
800045ca:	e0 68 01 94 	mov	r8,404
800045ce:	18 97       	mov	r7,r12
800045d0:	16 96       	mov	r6,r11
800045d2:	14 95       	mov	r5,r10
800045d4:	12 94       	mov	r4,r9
800045d6:	70 0c       	ld.w	r12,r8[0x0]
800045d8:	58 0c       	cp.w	r12,0
800045da:	c0 60       	breq	800045e6 <setvbuf+0x1e>
800045dc:	78 68       	ld.w	r8,r12[0x18]
800045de:	58 08       	cp.w	r8,0
800045e0:	c0 31       	brne	800045e6 <setvbuf+0x1e>
800045e2:	e0 a0 23 ff 	rcall	80008de0 <__sinit>
800045e6:	4b b8       	lddpc	r8,800046d0 <setvbuf+0x108>
800045e8:	10 37       	cp.w	r7,r8
800045ea:	c0 61       	brne	800045f6 <setvbuf+0x2e>
800045ec:	e0 68 01 94 	mov	r8,404
800045f0:	70 08       	ld.w	r8,r8[0x0]
800045f2:	70 07       	ld.w	r7,r8[0x0]
800045f4:	c1 08       	rjmp	80004614 <setvbuf+0x4c>
800045f6:	4b 88       	lddpc	r8,800046d4 <setvbuf+0x10c>
800045f8:	10 37       	cp.w	r7,r8
800045fa:	c0 61       	brne	80004606 <setvbuf+0x3e>
800045fc:	e0 68 01 94 	mov	r8,404
80004600:	70 08       	ld.w	r8,r8[0x0]
80004602:	70 17       	ld.w	r7,r8[0x4]
80004604:	c0 88       	rjmp	80004614 <setvbuf+0x4c>
80004606:	4b 58       	lddpc	r8,800046d8 <setvbuf+0x110>
80004608:	10 37       	cp.w	r7,r8
8000460a:	c0 51       	brne	80004614 <setvbuf+0x4c>
8000460c:	e0 68 01 94 	mov	r8,404
80004610:	70 08       	ld.w	r8,r8[0x0]
80004612:	70 27       	ld.w	r7,r8[0x8]
80004614:	58 25       	cp.w	r5,2
80004616:	5f b8       	srhi	r8
80004618:	f1 e4 13 f8 	or	r8,r8,r4>>0x1f
8000461c:	c0 20       	breq	80004620 <setvbuf+0x58>
8000461e:	dc 3a       	popm	r0-r7,pc,r12=-1
80004620:	e0 63 01 94 	mov	r3,404
80004624:	0e 9b       	mov	r11,r7
80004626:	66 0c       	ld.w	r12,r3[0x0]
80004628:	e0 a0 22 f2 	rcall	80008c0c <_fflush_r>
8000462c:	30 08       	mov	r8,0
8000462e:	8f 68       	st.w	r7[0x18],r8
80004630:	8f 18       	st.w	r7[0x4],r8
80004632:	8e 68       	ld.sh	r8,r7[0xc]
80004634:	ed b8 00 07 	bld	r8,0x7
80004638:	c0 51       	brne	80004642 <setvbuf+0x7a>
8000463a:	66 0c       	ld.w	r12,r3[0x0]
8000463c:	6e 4b       	ld.w	r11,r7[0x10]
8000463e:	e0 a0 24 c5 	rcall	80008fc8 <_free_r>
80004642:	8e 68       	ld.sh	r8,r7[0xc]
80004644:	e0 18 ff 7c 	andl	r8,0xff7c
80004648:	ae 68       	st.h	r7[0xc],r8
8000464a:	58 25       	cp.w	r5,2
8000464c:	c0 31       	brne	80004652 <setvbuf+0x8a>
8000464e:	30 0c       	mov	r12,0
80004650:	c1 38       	rjmp	80004676 <setvbuf+0xae>
80004652:	58 06       	cp.w	r6,0
80004654:	c2 11       	brne	80004696 <setvbuf+0xce>
80004656:	e0 63 04 00 	mov	r3,1024
8000465a:	58 04       	cp.w	r4,0
8000465c:	e6 04 17 00 	moveq	r4,r3
80004660:	08 9c       	mov	r12,r4
80004662:	e0 a0 27 87 	rcall	80009570 <malloc>
80004666:	18 96       	mov	r6,r12
80004668:	c1 41       	brne	80004690 <setvbuf+0xc8>
8000466a:	06 9c       	mov	r12,r3
8000466c:	e0 a0 27 82 	rcall	80009570 <malloc>
80004670:	18 96       	mov	r6,r12
80004672:	c0 e1       	brne	8000468e <setvbuf+0xc6>
80004674:	3f fc       	mov	r12,-1
80004676:	8e 68       	ld.sh	r8,r7[0xc]
80004678:	a1 b8       	sbr	r8,0x1
8000467a:	ae 68       	st.h	r7[0xc],r8
8000467c:	ee c8 ff b9 	sub	r8,r7,-71
80004680:	8f 48       	st.w	r7[0x10],r8
80004682:	8f 08       	st.w	r7[0x0],r8
80004684:	30 08       	mov	r8,0
80004686:	8f 28       	st.w	r7[0x8],r8
80004688:	30 18       	mov	r8,1
8000468a:	8f 58       	st.w	r7[0x14],r8
8000468c:	d8 32       	popm	r0-r7,pc
8000468e:	06 94       	mov	r4,r3
80004690:	8e 68       	ld.sh	r8,r7[0xc]
80004692:	a7 b8       	sbr	r8,0x7
80004694:	ae 68       	st.h	r7[0xc],r8
80004696:	58 15       	cp.w	r5,1
80004698:	c0 71       	brne	800046a6 <setvbuf+0xde>
8000469a:	8e 68       	ld.sh	r8,r7[0xc]
8000469c:	a1 a8       	sbr	r8,0x0
8000469e:	ae 68       	st.h	r7[0xc],r8
800046a0:	e8 08 11 00 	rsub	r8,r4,0
800046a4:	8f 68       	st.w	r7[0x18],r8
800046a6:	e0 68 01 94 	mov	r8,404
800046aa:	fe c9 b9 6a 	sub	r9,pc,-18070
800046ae:	70 08       	ld.w	r8,r8[0x0]
800046b0:	8f 46       	st.w	r7[0x10],r6
800046b2:	91 a9       	st.w	r8[0x28],r9
800046b4:	8f 06       	st.w	r7[0x0],r6
800046b6:	8f 54       	st.w	r7[0x14],r4
800046b8:	8e 68       	ld.sh	r8,r7[0xc]
800046ba:	10 9c       	mov	r12,r8
800046bc:	e2 1c 00 08 	andl	r12,0x8,COH
800046c0:	c0 70       	breq	800046ce <setvbuf+0x106>
800046c2:	f1 d8 c0 02 	bfextu	r8,r8,0x0,0x2
800046c6:	30 0c       	mov	r12,0
800046c8:	f9 b4 01 00 	movne	r4,0
800046cc:	8f 24       	st.w	r7[0x8],r4
800046ce:	d8 32       	popm	r0-r7,pc
800046d0:	80 00       	ld.sh	r0,r0[0x0]
800046d2:	dc ac       	*unknown*
800046d4:	80 00       	ld.sh	r0,r0[0x0]
800046d6:	dc cc       	*unknown*
800046d8:	80 00       	ld.sh	r0,r0[0x0]
800046da:	dc ec       	*unknown*

800046dc <get_arg>:
800046dc:	d4 31       	pushm	r0-r7,lr
800046de:	20 8d       	sub	sp,32
800046e0:	fa c4 ff bc 	sub	r4,sp,-68
800046e4:	50 4b       	stdsp	sp[0x10],r11
800046e6:	68 2e       	ld.w	lr,r4[0x8]
800046e8:	50 58       	stdsp	sp[0x14],r8
800046ea:	12 96       	mov	r6,r9
800046ec:	7c 0b       	ld.w	r11,lr[0x0]
800046ee:	70 05       	ld.w	r5,r8[0x0]
800046f0:	50 6e       	stdsp	sp[0x18],lr
800046f2:	58 0b       	cp.w	r11,0
800046f4:	f4 0b 17 00 	moveq	r11,r10
800046f8:	68 03       	ld.w	r3,r4[0x0]
800046fa:	68 11       	ld.w	r1,r4[0x4]
800046fc:	40 49       	lddsp	r9,sp[0x10]
800046fe:	30 08       	mov	r8,0
80004700:	c2 c9       	rjmp	80004958 <get_arg+0x27c>
80004702:	2f fb       	sub	r11,-1
80004704:	32 5c       	mov	r12,37
80004706:	17 8a       	ld.ub	r10,r11[0x0]
80004708:	f8 0a 18 00 	cp.b	r10,r12
8000470c:	5f 1e       	srne	lr
8000470e:	f0 0a 18 00 	cp.b	r10,r8
80004712:	5f 1c       	srne	r12
80004714:	fd ec 00 0c 	and	r12,lr,r12
80004718:	f0 0c 18 00 	cp.b	r12,r8
8000471c:	cf 31       	brne	80004702 <get_arg+0x26>
8000471e:	58 0a       	cp.w	r10,0
80004720:	e0 80 01 29 	breq	80004972 <get_arg+0x296>
80004724:	30 0c       	mov	r12,0
80004726:	3f fa       	mov	r10,-1
80004728:	18 90       	mov	r0,r12
8000472a:	50 3a       	stdsp	sp[0xc],r10
8000472c:	18 94       	mov	r4,r12
8000472e:	18 92       	mov	r2,r12
80004730:	f8 0c 00 3c 	add	r12,r12,r12<<0x3
80004734:	16 97       	mov	r7,r11
80004736:	50 7c       	stdsp	sp[0x1c],r12
80004738:	4c ec       	lddpc	r12,80004870 <get_arg+0x194>
8000473a:	0f 3a       	ld.ub	r10,r7++
8000473c:	f8 0a 07 0e 	ld.ub	lr,r12[r10]
80004740:	40 7c       	lddsp	r12,sp[0x1c]
80004742:	1c 0c       	add	r12,lr
80004744:	4c ce       	lddpc	lr,80004874 <get_arg+0x198>
80004746:	fc 0c 07 0e 	ld.ub	lr,lr[r12]
8000474a:	20 1e       	sub	lr,1
8000474c:	50 0e       	stdsp	sp[0x0],lr
8000474e:	4c be       	lddpc	lr,80004878 <get_arg+0x19c>
80004750:	fc 0c 07 0c 	ld.ub	r12,lr[r12]
80004754:	50 7c       	stdsp	sp[0x1c],r12
80004756:	40 0c       	lddsp	r12,sp[0x0]
80004758:	58 7c       	cp.w	r12,7
8000475a:	e0 8b 00 f8 	brhi	8000494a <get_arg+0x26e>
8000475e:	4c 8e       	lddpc	lr,8000487c <get_arg+0x1a0>
80004760:	fc 0c 03 2f 	ld.w	pc,lr[r12<<0x2]
80004764:	36 8b       	mov	r11,104
80004766:	f6 0a 18 00 	cp.b	r10,r11
8000476a:	e0 80 00 f0 	breq	8000494a <get_arg+0x26e>
8000476e:	37 1b       	mov	r11,113
80004770:	f6 0a 18 00 	cp.b	r10,r11
80004774:	c0 70       	breq	80004782 <get_arg+0xa6>
80004776:	34 cb       	mov	r11,76
80004778:	f6 0a 18 00 	cp.b	r10,r11
8000477c:	c0 51       	brne	80004786 <get_arg+0xaa>
8000477e:	a3 b4       	sbr	r4,0x3
80004780:	ce 58       	rjmp	8000494a <get_arg+0x26e>
80004782:	a5 b4       	sbr	r4,0x5
80004784:	ce 38       	rjmp	8000494a <get_arg+0x26e>
80004786:	08 9a       	mov	r10,r4
80004788:	0e 9b       	mov	r11,r7
8000478a:	a5 aa       	sbr	r10,0x4
8000478c:	17 3c       	ld.ub	r12,r11++
8000478e:	a5 b4       	sbr	r4,0x5
80004790:	36 ce       	mov	lr,108
80004792:	fc 0c 18 00 	cp.b	r12,lr
80004796:	e0 80 00 db 	breq	8000494c <get_arg+0x270>
8000479a:	14 94       	mov	r4,r10
8000479c:	cd 78       	rjmp	8000494a <get_arg+0x26e>
8000479e:	eb d5 c0 05 	bfextu	r5,r5,0x0,0x5
800047a2:	36 7c       	mov	r12,103
800047a4:	f8 0a 18 00 	cp.b	r10,r12
800047a8:	e0 8b 00 27 	brhi	800047f6 <get_arg+0x11a>
800047ac:	36 5b       	mov	r11,101
800047ae:	f6 0a 18 00 	cp.b	r10,r11
800047b2:	c4 82       	brcc	80004842 <get_arg+0x166>
800047b4:	34 fb       	mov	r11,79
800047b6:	f6 0a 18 00 	cp.b	r10,r11
800047ba:	c4 80       	breq	8000484a <get_arg+0x16e>
800047bc:	e0 8b 00 0c 	brhi	800047d4 <get_arg+0xf8>
800047c0:	34 5b       	mov	r11,69
800047c2:	f6 0a 18 00 	cp.b	r10,r11
800047c6:	c3 e0       	breq	80004842 <get_arg+0x166>
800047c8:	34 7b       	mov	r11,71
800047ca:	f6 0a 18 00 	cp.b	r10,r11
800047ce:	c3 a0       	breq	80004842 <get_arg+0x166>
800047d0:	34 4b       	mov	r11,68
800047d2:	c0 88       	rjmp	800047e2 <get_arg+0x106>
800047d4:	35 8b       	mov	r11,88
800047d6:	f6 0a 18 00 	cp.b	r10,r11
800047da:	c2 c0       	breq	80004832 <get_arg+0x156>
800047dc:	e0 8b 00 07 	brhi	800047ea <get_arg+0x10e>
800047e0:	35 5b       	mov	r11,85
800047e2:	f6 0a 18 00 	cp.b	r10,r11
800047e6:	c3 51       	brne	80004850 <get_arg+0x174>
800047e8:	c3 18       	rjmp	8000484a <get_arg+0x16e>
800047ea:	36 3b       	mov	r11,99
800047ec:	f6 0a 18 00 	cp.b	r10,r11
800047f0:	c2 f0       	breq	8000484e <get_arg+0x172>
800047f2:	36 4b       	mov	r11,100
800047f4:	c0 e8       	rjmp	80004810 <get_arg+0x134>
800047f6:	37 0b       	mov	r11,112
800047f8:	f6 0a 18 00 	cp.b	r10,r11
800047fc:	c2 50       	breq	80004846 <get_arg+0x16a>
800047fe:	e0 8b 00 0d 	brhi	80004818 <get_arg+0x13c>
80004802:	36 eb       	mov	r11,110
80004804:	f6 0a 18 00 	cp.b	r10,r11
80004808:	c1 f0       	breq	80004846 <get_arg+0x16a>
8000480a:	e0 8b 00 14 	brhi	80004832 <get_arg+0x156>
8000480e:	36 9b       	mov	r11,105
80004810:	f6 0a 18 00 	cp.b	r10,r11
80004814:	c1 e1       	brne	80004850 <get_arg+0x174>
80004816:	c0 e8       	rjmp	80004832 <get_arg+0x156>
80004818:	37 5b       	mov	r11,117
8000481a:	f6 0a 18 00 	cp.b	r10,r11
8000481e:	c0 a0       	breq	80004832 <get_arg+0x156>
80004820:	37 8b       	mov	r11,120
80004822:	f6 0a 18 00 	cp.b	r10,r11
80004826:	c0 60       	breq	80004832 <get_arg+0x156>
80004828:	37 3b       	mov	r11,115
8000482a:	f6 0a 18 00 	cp.b	r10,r11
8000482e:	c1 11       	brne	80004850 <get_arg+0x174>
80004830:	c0 b8       	rjmp	80004846 <get_arg+0x16a>
80004832:	ed b4 00 04 	bld	r4,0x4
80004836:	c0 a0       	breq	8000484a <get_arg+0x16e>
80004838:	ed b4 00 05 	bld	r4,0x5
8000483c:	c0 91       	brne	8000484e <get_arg+0x172>
8000483e:	30 20       	mov	r0,2
80004840:	c0 88       	rjmp	80004850 <get_arg+0x174>
80004842:	30 40       	mov	r0,4
80004844:	c0 68       	rjmp	80004850 <get_arg+0x174>
80004846:	30 30       	mov	r0,3
80004848:	c0 48       	rjmp	80004850 <get_arg+0x174>
8000484a:	30 10       	mov	r0,1
8000484c:	c0 28       	rjmp	80004850 <get_arg+0x174>
8000484e:	30 00       	mov	r0,0
80004850:	40 3b       	lddsp	r11,sp[0xc]
80004852:	5b fb       	cp.w	r11,-1
80004854:	c0 40       	breq	8000485c <get_arg+0x180>
80004856:	e2 0b 09 20 	st.w	r1[r11<<0x2],r0
8000485a:	c7 88       	rjmp	8000494a <get_arg+0x26e>
8000485c:	58 60       	cp.w	r0,6
8000485e:	e0 8b 00 76 	brhi	8000494a <get_arg+0x26e>
80004862:	6c 0a       	ld.w	r10,r6[0x0]
80004864:	ea cc ff ff 	sub	r12,r5,-1
80004868:	48 6e       	lddpc	lr,80004880 <get_arg+0x1a4>
8000486a:	fc 00 03 2f 	ld.w	pc,lr[r0<<0x2]
8000486e:	d7 03       	nop
80004870:	80 00       	ld.sh	r0,r0[0x0]
80004872:	da 6c       	*unknown*
80004874:	80 00       	ld.sh	r0,r0[0x0]
80004876:	d9 a4       	*unknown*
80004878:	80 00       	ld.sh	r0,r0[0x0]
8000487a:	d9 38       	*unknown*
8000487c:	80 00       	ld.sh	r0,r0[0x0]
8000487e:	d7 98       	*unknown*
80004880:	80 00       	ld.sh	r0,r0[0x0]
80004882:	d7 b8       	*unknown*
80004884:	f4 cb ff f8 	sub	r11,r10,-8
80004888:	8d 0b       	st.w	r6[0x0],r11
8000488a:	f4 ea 00 00 	ld.d	r10,r10[0]
8000488e:	e6 05 08 3a 	st.d	r3[r5<<0x3],r10
80004892:	c0 f8       	rjmp	800048b0 <get_arg+0x1d4>
80004894:	f4 cb ff fc 	sub	r11,r10,-4
80004898:	8d 0b       	st.w	r6[0x0],r11
8000489a:	74 0a       	ld.w	r10,r10[0x0]
8000489c:	e6 05 09 3a 	st.w	r3[r5<<0x3],r10
800048a0:	c0 88       	rjmp	800048b0 <get_arg+0x1d4>
800048a2:	f4 cb ff f8 	sub	r11,r10,-8
800048a6:	8d 0b       	st.w	r6[0x0],r11
800048a8:	f4 ea 00 00 	ld.d	r10,r10[0]
800048ac:	e6 05 08 3a 	st.d	r3[r5<<0x3],r10
800048b0:	0e 9b       	mov	r11,r7
800048b2:	18 95       	mov	r5,r12
800048b4:	c4 c8       	rjmp	8000494c <get_arg+0x270>
800048b6:	62 0a       	ld.w	r10,r1[0x0]
800048b8:	5b fa       	cp.w	r10,-1
800048ba:	c0 a1       	brne	800048ce <get_arg+0x1f2>
800048bc:	50 19       	stdsp	sp[0x4],r9
800048be:	50 28       	stdsp	sp[0x8],r8
800048c0:	e0 6a 00 80 	mov	r10,128
800048c4:	30 0b       	mov	r11,0
800048c6:	02 9c       	mov	r12,r1
800048c8:	c4 0e       	rcall	80004548 <memset>
800048ca:	40 28       	lddsp	r8,sp[0x8]
800048cc:	40 19       	lddsp	r9,sp[0x4]
800048ce:	e4 cc 00 01 	sub	r12,r2,1
800048d2:	0e 9b       	mov	r11,r7
800048d4:	50 3c       	stdsp	sp[0xc],r12
800048d6:	f2 0c 0c 49 	max	r9,r9,r12
800048da:	c3 98       	rjmp	8000494c <get_arg+0x270>
800048dc:	62 0a       	ld.w	r10,r1[0x0]
800048de:	5b fa       	cp.w	r10,-1
800048e0:	c0 a1       	brne	800048f4 <get_arg+0x218>
800048e2:	50 19       	stdsp	sp[0x4],r9
800048e4:	50 28       	stdsp	sp[0x8],r8
800048e6:	e0 6a 00 80 	mov	r10,128
800048ea:	30 0b       	mov	r11,0
800048ec:	02 9c       	mov	r12,r1
800048ee:	c2 de       	rcall	80004548 <memset>
800048f0:	40 28       	lddsp	r8,sp[0x8]
800048f2:	40 19       	lddsp	r9,sp[0x4]
800048f4:	20 12       	sub	r2,1
800048f6:	30 0a       	mov	r10,0
800048f8:	0e 9b       	mov	r11,r7
800048fa:	e2 02 09 2a 	st.w	r1[r2<<0x2],r10
800048fe:	f2 02 0c 49 	max	r9,r9,r2
80004902:	c2 58       	rjmp	8000494c <get_arg+0x270>
80004904:	16 97       	mov	r7,r11
80004906:	6c 0a       	ld.w	r10,r6[0x0]
80004908:	f4 cb ff fc 	sub	r11,r10,-4
8000490c:	8d 0b       	st.w	r6[0x0],r11
8000490e:	74 0a       	ld.w	r10,r10[0x0]
80004910:	0e 9b       	mov	r11,r7
80004912:	e6 05 09 3a 	st.w	r3[r5<<0x3],r10
80004916:	2f f5       	sub	r5,-1
80004918:	c1 a8       	rjmp	8000494c <get_arg+0x270>
8000491a:	f4 c2 00 30 	sub	r2,r10,48
8000491e:	c0 68       	rjmp	8000492a <get_arg+0x24e>
80004920:	e4 02 00 22 	add	r2,r2,r2<<0x2
80004924:	2f f7       	sub	r7,-1
80004926:	f4 02 00 12 	add	r2,r10,r2<<0x1
8000492a:	0f 8a       	ld.ub	r10,r7[0x0]
8000492c:	58 0a       	cp.w	r10,0
8000492e:	c0 e0       	breq	8000494a <get_arg+0x26e>
80004930:	23 0a       	sub	r10,48
80004932:	58 9a       	cp.w	r10,9
80004934:	fe 98 ff f6 	brls	80004920 <get_arg+0x244>
80004938:	c0 98       	rjmp	8000494a <get_arg+0x26e>
8000493a:	2f f7       	sub	r7,-1
8000493c:	0f 8a       	ld.ub	r10,r7[0x0]
8000493e:	58 0a       	cp.w	r10,0
80004940:	c0 50       	breq	8000494a <get_arg+0x26e>
80004942:	23 0a       	sub	r10,48
80004944:	58 9a       	cp.w	r10,9
80004946:	fe 98 ff fa 	brls	8000493a <get_arg+0x25e>
8000494a:	0e 9b       	mov	r11,r7
8000494c:	40 7c       	lddsp	r12,sp[0x1c]
8000494e:	30 ba       	mov	r10,11
80004950:	f4 0c 18 00 	cp.b	r12,r10
80004954:	fe 91 fe ee 	brne	80004730 <get_arg+0x54>
80004958:	40 42       	lddsp	r2,sp[0x10]
8000495a:	17 8c       	ld.ub	r12,r11[0x0]
8000495c:	0a 32       	cp.w	r2,r5
8000495e:	5f 4a       	srge	r10
80004960:	f0 0c 18 00 	cp.b	r12,r8
80004964:	5f 1c       	srne	r12
80004966:	f9 ea 00 0a 	and	r10,r12,r10
8000496a:	f0 0a 18 00 	cp.b	r10,r8
8000496e:	fe 91 fe cb 	brne	80004704 <get_arg+0x28>
80004972:	30 08       	mov	r8,0
80004974:	40 4e       	lddsp	lr,sp[0x10]
80004976:	17 8a       	ld.ub	r10,r11[0x0]
80004978:	e2 05 00 21 	add	r1,r1,r5<<0x2
8000497c:	f0 0a 18 00 	cp.b	r10,r8
80004980:	fc 09 17 10 	movne	r9,lr
80004984:	e6 05 00 38 	add	r8,r3,r5<<0x3
80004988:	06 9e       	mov	lr,r3
8000498a:	c2 a8       	rjmp	800049de <get_arg+0x302>
8000498c:	62 0a       	ld.w	r10,r1[0x0]
8000498e:	58 3a       	cp.w	r10,3
80004990:	c1 e0       	breq	800049cc <get_arg+0x2f0>
80004992:	e0 89 00 07 	brgt	800049a0 <get_arg+0x2c4>
80004996:	58 1a       	cp.w	r10,1
80004998:	c1 a0       	breq	800049cc <get_arg+0x2f0>
8000499a:	58 2a       	cp.w	r10,2
8000499c:	c1 81       	brne	800049cc <get_arg+0x2f0>
8000499e:	c0 58       	rjmp	800049a8 <get_arg+0x2cc>
800049a0:	58 5a       	cp.w	r10,5
800049a2:	c0 c0       	breq	800049ba <get_arg+0x2de>
800049a4:	c0 b5       	brlt	800049ba <get_arg+0x2de>
800049a6:	c1 38       	rjmp	800049cc <get_arg+0x2f0>
800049a8:	6c 0a       	ld.w	r10,r6[0x0]
800049aa:	f4 cc ff f8 	sub	r12,r10,-8
800049ae:	8d 0c       	st.w	r6[0x0],r12
800049b0:	f4 e2 00 00 	ld.d	r2,r10[0]
800049b4:	f0 e3 00 00 	st.d	r8[0],r2
800049b8:	c1 08       	rjmp	800049d8 <get_arg+0x2fc>
800049ba:	6c 0a       	ld.w	r10,r6[0x0]
800049bc:	f4 cc ff f8 	sub	r12,r10,-8
800049c0:	8d 0c       	st.w	r6[0x0],r12
800049c2:	f4 e2 00 00 	ld.d	r2,r10[0]
800049c6:	f0 e3 00 00 	st.d	r8[0],r2
800049ca:	c0 78       	rjmp	800049d8 <get_arg+0x2fc>
800049cc:	6c 0a       	ld.w	r10,r6[0x0]
800049ce:	f4 cc ff fc 	sub	r12,r10,-4
800049d2:	8d 0c       	st.w	r6[0x0],r12
800049d4:	74 0a       	ld.w	r10,r10[0x0]
800049d6:	91 0a       	st.w	r8[0x0],r10
800049d8:	2f f5       	sub	r5,-1
800049da:	2f 88       	sub	r8,-8
800049dc:	2f c1       	sub	r1,-4
800049de:	12 35       	cp.w	r5,r9
800049e0:	fe 9a ff d6 	brle	8000498c <get_arg+0x2b0>
800049e4:	1c 93       	mov	r3,lr
800049e6:	40 52       	lddsp	r2,sp[0x14]
800049e8:	40 6e       	lddsp	lr,sp[0x18]
800049ea:	85 05       	st.w	r2[0x0],r5
800049ec:	9d 0b       	st.w	lr[0x0],r11
800049ee:	40 4b       	lddsp	r11,sp[0x10]
800049f0:	e6 0b 00 3c 	add	r12,r3,r11<<0x3
800049f4:	2f 8d       	sub	sp,-32
800049f6:	d8 32       	popm	r0-r7,pc

800049f8 <__sprint_r>:
800049f8:	d4 21       	pushm	r4-r7,lr
800049fa:	14 97       	mov	r7,r10
800049fc:	74 28       	ld.w	r8,r10[0x8]
800049fe:	58 08       	cp.w	r8,0
80004a00:	c0 41       	brne	80004a08 <__sprint_r+0x10>
80004a02:	95 18       	st.w	r10[0x4],r8
80004a04:	10 9c       	mov	r12,r8
80004a06:	d8 22       	popm	r4-r7,pc
80004a08:	e0 a0 23 a6 	rcall	80009154 <__sfvwrite_r>
80004a0c:	30 08       	mov	r8,0
80004a0e:	8f 18       	st.w	r7[0x4],r8
80004a10:	8f 28       	st.w	r7[0x8],r8
80004a12:	d8 22       	popm	r4-r7,pc

80004a14 <_vfprintf_r>:
80004a14:	d4 31       	pushm	r0-r7,lr
80004a16:	fa cd 06 bc 	sub	sp,sp,1724
80004a1a:	51 09       	stdsp	sp[0x40],r9
80004a1c:	16 91       	mov	r1,r11
80004a1e:	14 97       	mov	r7,r10
80004a20:	18 95       	mov	r5,r12
80004a22:	e0 a0 25 45 	rcall	800094ac <_localeconv_r>
80004a26:	78 0c       	ld.w	r12,r12[0x0]
80004a28:	50 cc       	stdsp	sp[0x30],r12
80004a2a:	58 05       	cp.w	r5,0
80004a2c:	c0 70       	breq	80004a3a <_vfprintf_r+0x26>
80004a2e:	6a 68       	ld.w	r8,r5[0x18]
80004a30:	58 08       	cp.w	r8,0
80004a32:	c0 41       	brne	80004a3a <_vfprintf_r+0x26>
80004a34:	0a 9c       	mov	r12,r5
80004a36:	e0 a0 21 d5 	rcall	80008de0 <__sinit>
80004a3a:	4d 08       	lddpc	r8,80004b78 <_vfprintf_r+0x164>
80004a3c:	10 31       	cp.w	r1,r8
80004a3e:	c0 31       	brne	80004a44 <_vfprintf_r+0x30>
80004a40:	6a 01       	ld.w	r1,r5[0x0]
80004a42:	c0 a8       	rjmp	80004a56 <_vfprintf_r+0x42>
80004a44:	4c e8       	lddpc	r8,80004b7c <_vfprintf_r+0x168>
80004a46:	10 31       	cp.w	r1,r8
80004a48:	c0 31       	brne	80004a4e <_vfprintf_r+0x3a>
80004a4a:	6a 11       	ld.w	r1,r5[0x4]
80004a4c:	c0 58       	rjmp	80004a56 <_vfprintf_r+0x42>
80004a4e:	4c d8       	lddpc	r8,80004b80 <_vfprintf_r+0x16c>
80004a50:	10 31       	cp.w	r1,r8
80004a52:	eb f1 00 02 	ld.weq	r1,r5[0x8]
80004a56:	82 68       	ld.sh	r8,r1[0xc]
80004a58:	ed b8 00 03 	bld	r8,0x3
80004a5c:	c0 41       	brne	80004a64 <_vfprintf_r+0x50>
80004a5e:	62 48       	ld.w	r8,r1[0x10]
80004a60:	58 08       	cp.w	r8,0
80004a62:	c0 71       	brne	80004a70 <_vfprintf_r+0x5c>
80004a64:	02 9b       	mov	r11,r1
80004a66:	0a 9c       	mov	r12,r5
80004a68:	e0 a0 19 e6 	rcall	80007e34 <__swsetup_r>
80004a6c:	e0 81 0f 61 	brne	8000692e <_vfprintf_r+0x1f1a>
80004a70:	82 68       	ld.sh	r8,r1[0xc]
80004a72:	10 99       	mov	r9,r8
80004a74:	e2 19 00 1a 	andl	r9,0x1a,COH
80004a78:	58 a9       	cp.w	r9,10
80004a7a:	c3 c1       	brne	80004af2 <_vfprintf_r+0xde>
80004a7c:	82 79       	ld.sh	r9,r1[0xe]
80004a7e:	30 0a       	mov	r10,0
80004a80:	f4 09 19 00 	cp.h	r9,r10
80004a84:	c3 75       	brlt	80004af2 <_vfprintf_r+0xde>
80004a86:	a1 d8       	cbr	r8,0x1
80004a88:	fb 58 05 d0 	st.h	sp[1488],r8
80004a8c:	62 88       	ld.w	r8,r1[0x20]
80004a8e:	fb 48 05 e4 	st.w	sp[1508],r8
80004a92:	62 a8       	ld.w	r8,r1[0x28]
80004a94:	fb 48 05 ec 	st.w	sp[1516],r8
80004a98:	fa c8 ff bc 	sub	r8,sp,-68
80004a9c:	fb 48 05 d4 	st.w	sp[1492],r8
80004aa0:	fb 48 05 c4 	st.w	sp[1476],r8
80004aa4:	e0 68 04 00 	mov	r8,1024
80004aa8:	fb 48 05 d8 	st.w	sp[1496],r8
80004aac:	fb 48 05 cc 	st.w	sp[1484],r8
80004ab0:	30 08       	mov	r8,0
80004ab2:	fb 59 05 d2 	st.h	sp[1490],r9
80004ab6:	0e 9a       	mov	r10,r7
80004ab8:	41 09       	lddsp	r9,sp[0x40]
80004aba:	fa c7 fa 3c 	sub	r7,sp,-1476
80004abe:	fb 48 05 dc 	st.w	sp[1500],r8
80004ac2:	0a 9c       	mov	r12,r5
80004ac4:	0e 9b       	mov	r11,r7
80004ac6:	ca 7f       	rcall	80004a14 <_vfprintf_r>
80004ac8:	50 bc       	stdsp	sp[0x2c],r12
80004aca:	c0 95       	brlt	80004adc <_vfprintf_r+0xc8>
80004acc:	0e 9b       	mov	r11,r7
80004ace:	0a 9c       	mov	r12,r5
80004ad0:	e0 a0 20 9e 	rcall	80008c0c <_fflush_r>
80004ad4:	40 be       	lddsp	lr,sp[0x2c]
80004ad6:	f9 be 01 ff 	movne	lr,-1
80004ada:	50 be       	stdsp	sp[0x2c],lr
80004adc:	fb 08 05 d0 	ld.sh	r8,sp[1488]
80004ae0:	ed b8 00 06 	bld	r8,0x6
80004ae4:	e0 81 0f 27 	brne	80006932 <_vfprintf_r+0x1f1e>
80004ae8:	82 68       	ld.sh	r8,r1[0xc]
80004aea:	a7 a8       	sbr	r8,0x6
80004aec:	a2 68       	st.h	r1[0xc],r8
80004aee:	e0 8f 0f 22 	bral	80006932 <_vfprintf_r+0x1f1e>
80004af2:	30 08       	mov	r8,0
80004af4:	fb 48 06 b4 	st.w	sp[1716],r8
80004af8:	fb 48 06 90 	st.w	sp[1680],r8
80004afc:	fb 48 06 8c 	st.w	sp[1676],r8
80004b00:	fb 48 06 b0 	st.w	sp[1712],r8
80004b04:	30 08       	mov	r8,0
80004b06:	30 09       	mov	r9,0
80004b08:	50 a7       	stdsp	sp[0x28],r7
80004b0a:	50 78       	stdsp	sp[0x1c],r8
80004b0c:	fa c3 f9 e0 	sub	r3,sp,-1568
80004b10:	3f f8       	mov	r8,-1
80004b12:	50 59       	stdsp	sp[0x14],r9
80004b14:	fb 43 06 88 	st.w	sp[1672],r3
80004b18:	fb 48 05 44 	st.w	sp[1348],r8
80004b1c:	12 9c       	mov	r12,r9
80004b1e:	50 69       	stdsp	sp[0x18],r9
80004b20:	50 d9       	stdsp	sp[0x34],r9
80004b22:	50 e9       	stdsp	sp[0x38],r9
80004b24:	50 b9       	stdsp	sp[0x2c],r9
80004b26:	12 97       	mov	r7,r9
80004b28:	0a 94       	mov	r4,r5
80004b2a:	40 a2       	lddsp	r2,sp[0x28]
80004b2c:	32 5a       	mov	r10,37
80004b2e:	30 08       	mov	r8,0
80004b30:	c0 28       	rjmp	80004b34 <_vfprintf_r+0x120>
80004b32:	2f f2       	sub	r2,-1
80004b34:	05 89       	ld.ub	r9,r2[0x0]
80004b36:	f0 09 18 00 	cp.b	r9,r8
80004b3a:	5f 1b       	srne	r11
80004b3c:	f4 09 18 00 	cp.b	r9,r10
80004b40:	5f 19       	srne	r9
80004b42:	f3 eb 00 0b 	and	r11,r9,r11
80004b46:	f0 0b 18 00 	cp.b	r11,r8
80004b4a:	cf 41       	brne	80004b32 <_vfprintf_r+0x11e>
80004b4c:	40 ab       	lddsp	r11,sp[0x28]
80004b4e:	e4 0b 01 06 	sub	r6,r2,r11
80004b52:	c2 50       	breq	80004b9c <_vfprintf_r+0x188>
80004b54:	fa f8 06 90 	ld.w	r8,sp[1680]
80004b58:	0c 08       	add	r8,r6
80004b5a:	87 0b       	st.w	r3[0x0],r11
80004b5c:	fb 48 06 90 	st.w	sp[1680],r8
80004b60:	87 16       	st.w	r3[0x4],r6
80004b62:	fa f8 06 8c 	ld.w	r8,sp[1676]
80004b66:	2f f8       	sub	r8,-1
80004b68:	fb 48 06 8c 	st.w	sp[1676],r8
80004b6c:	58 78       	cp.w	r8,7
80004b6e:	e0 89 00 0b 	brgt	80004b84 <_vfprintf_r+0x170>
80004b72:	2f 83       	sub	r3,-8
80004b74:	c1 18       	rjmp	80004b96 <_vfprintf_r+0x182>
80004b76:	d7 03       	nop
80004b78:	80 00       	ld.sh	r0,r0[0x0]
80004b7a:	dc ac       	*unknown*
80004b7c:	80 00       	ld.sh	r0,r0[0x0]
80004b7e:	dc cc       	*unknown*
80004b80:	80 00       	ld.sh	r0,r0[0x0]
80004b82:	dc ec       	*unknown*
80004b84:	fa ca f9 78 	sub	r10,sp,-1672
80004b88:	02 9b       	mov	r11,r1
80004b8a:	08 9c       	mov	r12,r4
80004b8c:	c3 6f       	rcall	800049f8 <__sprint_r>
80004b8e:	e0 81 0e cc 	brne	80006926 <_vfprintf_r+0x1f12>
80004b92:	fa c3 f9 e0 	sub	r3,sp,-1568
80004b96:	40 ba       	lddsp	r10,sp[0x2c]
80004b98:	0c 0a       	add	r10,r6
80004b9a:	50 ba       	stdsp	sp[0x2c],r10
80004b9c:	05 89       	ld.ub	r9,r2[0x0]
80004b9e:	30 08       	mov	r8,0
80004ba0:	f0 09 18 00 	cp.b	r9,r8
80004ba4:	e0 80 0e b0 	breq	80006904 <_vfprintf_r+0x1ef0>
80004ba8:	30 09       	mov	r9,0
80004baa:	fb 68 06 bb 	st.b	sp[1723],r8
80004bae:	0e 96       	mov	r6,r7
80004bb0:	e4 c8 ff ff 	sub	r8,r2,-1
80004bb4:	3f fe       	mov	lr,-1
80004bb6:	50 93       	stdsp	sp[0x24],r3
80004bb8:	50 41       	stdsp	sp[0x10],r1
80004bba:	0e 93       	mov	r3,r7
80004bbc:	04 91       	mov	r1,r2
80004bbe:	50 89       	stdsp	sp[0x20],r9
80004bc0:	50 a8       	stdsp	sp[0x28],r8
80004bc2:	50 2e       	stdsp	sp[0x8],lr
80004bc4:	50 39       	stdsp	sp[0xc],r9
80004bc6:	12 95       	mov	r5,r9
80004bc8:	12 90       	mov	r0,r9
80004bca:	10 97       	mov	r7,r8
80004bcc:	08 92       	mov	r2,r4
80004bce:	c0 78       	rjmp	80004bdc <_vfprintf_r+0x1c8>
80004bd0:	3f fc       	mov	r12,-1
80004bd2:	08 97       	mov	r7,r4
80004bd4:	50 2c       	stdsp	sp[0x8],r12
80004bd6:	c0 38       	rjmp	80004bdc <_vfprintf_r+0x1c8>
80004bd8:	30 0b       	mov	r11,0
80004bda:	50 3b       	stdsp	sp[0xc],r11
80004bdc:	0f 38       	ld.ub	r8,r7++
80004bde:	c0 28       	rjmp	80004be2 <_vfprintf_r+0x1ce>
80004be0:	12 90       	mov	r0,r9
80004be2:	f0 c9 00 20 	sub	r9,r8,32
80004be6:	e0 49 00 58 	cp.w	r9,88
80004bea:	e0 8b 0a 36 	brhi	80006056 <_vfprintf_r+0x1642>
80004bee:	4d 9a       	lddpc	r10,80004d50 <_vfprintf_r+0x33c>
80004bf0:	f4 09 03 2f 	ld.w	pc,r10[r9<<0x2]
80004bf4:	50 a7       	stdsp	sp[0x28],r7
80004bf6:	50 80       	stdsp	sp[0x20],r0
80004bf8:	0c 97       	mov	r7,r6
80004bfa:	04 94       	mov	r4,r2
80004bfc:	06 96       	mov	r6,r3
80004bfe:	02 92       	mov	r2,r1
80004c00:	4d 59       	lddpc	r9,80004d54 <_vfprintf_r+0x340>
80004c02:	40 93       	lddsp	r3,sp[0x24]
80004c04:	10 90       	mov	r0,r8
80004c06:	40 41       	lddsp	r1,sp[0x10]
80004c08:	50 d9       	stdsp	sp[0x34],r9
80004c0a:	e0 8f 08 96 	bral	80005d36 <_vfprintf_r+0x1322>
80004c0e:	30 08       	mov	r8,0
80004c10:	fb 39 06 bb 	ld.ub	r9,sp[1723]
80004c14:	f0 09 18 00 	cp.b	r9,r8
80004c18:	ce 21       	brne	80004bdc <_vfprintf_r+0x1c8>
80004c1a:	32 08       	mov	r8,32
80004c1c:	c6 e8       	rjmp	80004cf8 <_vfprintf_r+0x2e4>
80004c1e:	a1 a5       	sbr	r5,0x0
80004c20:	cd eb       	rjmp	80004bdc <_vfprintf_r+0x1c8>
80004c22:	0f 89       	ld.ub	r9,r7[0x0]
80004c24:	f2 c8 00 30 	sub	r8,r9,48
80004c28:	58 98       	cp.w	r8,9
80004c2a:	e0 8b 00 1d 	brhi	80004c64 <_vfprintf_r+0x250>
80004c2e:	ee c8 ff ff 	sub	r8,r7,-1
80004c32:	30 0b       	mov	r11,0
80004c34:	23 09       	sub	r9,48
80004c36:	f6 0b 00 2b 	add	r11,r11,r11<<0x2
80004c3a:	f2 0b 00 1b 	add	r11,r9,r11<<0x1
80004c3e:	11 39       	ld.ub	r9,r8++
80004c40:	f2 ca 00 30 	sub	r10,r9,48
80004c44:	58 9a       	cp.w	r10,9
80004c46:	fe 98 ff f7 	brls	80004c34 <_vfprintf_r+0x220>
80004c4a:	e0 49 00 24 	cp.w	r9,36
80004c4e:	cc 51       	brne	80004bd8 <_vfprintf_r+0x1c4>
80004c50:	e0 4b 00 20 	cp.w	r11,32
80004c54:	e0 89 0e 68 	brgt	80006924 <_vfprintf_r+0x1f10>
80004c58:	20 1b       	sub	r11,1
80004c5a:	fa f9 06 b4 	ld.w	r9,sp[1716]
80004c5e:	12 3b       	cp.w	r11,r9
80004c60:	c0 95       	brlt	80004c72 <_vfprintf_r+0x25e>
80004c62:	c1 08       	rjmp	80004c82 <_vfprintf_r+0x26e>
80004c64:	fa f9 06 b4 	ld.w	r9,sp[1716]
80004c68:	ec ca ff ff 	sub	r10,r6,-1
80004c6c:	12 36       	cp.w	r6,r9
80004c6e:	c1 f5       	brlt	80004cac <_vfprintf_r+0x298>
80004c70:	c2 68       	rjmp	80004cbc <_vfprintf_r+0x2a8>
80004c72:	fa ce f9 44 	sub	lr,sp,-1724
80004c76:	10 97       	mov	r7,r8
80004c78:	fc 0b 00 3b 	add	r11,lr,r11<<0x3
80004c7c:	f6 f0 fd 88 	ld.w	r0,r11[-632]
80004c80:	c3 58       	rjmp	80004cea <_vfprintf_r+0x2d6>
80004c82:	10 97       	mov	r7,r8
80004c84:	fa c8 f9 50 	sub	r8,sp,-1712
80004c88:	1a d8       	st.w	--sp,r8
80004c8a:	fa c8 fa b8 	sub	r8,sp,-1352
80004c8e:	1a d8       	st.w	--sp,r8
80004c90:	fa c8 fb b4 	sub	r8,sp,-1100
80004c94:	02 9a       	mov	r10,r1
80004c96:	1a d8       	st.w	--sp,r8
80004c98:	04 9c       	mov	r12,r2
80004c9a:	fa c8 f9 40 	sub	r8,sp,-1728
80004c9e:	fa c9 ff b4 	sub	r9,sp,-76
80004ca2:	fe b0 fd 1d 	rcall	800046dc <get_arg>
80004ca6:	2f dd       	sub	sp,-12
80004ca8:	78 00       	ld.w	r0,r12[0x0]
80004caa:	c2 08       	rjmp	80004cea <_vfprintf_r+0x2d6>
80004cac:	fa cc f9 44 	sub	r12,sp,-1724
80004cb0:	14 96       	mov	r6,r10
80004cb2:	f8 03 00 38 	add	r8,r12,r3<<0x3
80004cb6:	f0 f0 fd 88 	ld.w	r0,r8[-632]
80004cba:	c1 88       	rjmp	80004cea <_vfprintf_r+0x2d6>
80004cbc:	41 08       	lddsp	r8,sp[0x40]
80004cbe:	59 f9       	cp.w	r9,31
80004cc0:	e0 89 00 11 	brgt	80004ce2 <_vfprintf_r+0x2ce>
80004cc4:	f0 cb ff fc 	sub	r11,r8,-4
80004cc8:	51 0b       	stdsp	sp[0x40],r11
80004cca:	70 00       	ld.w	r0,r8[0x0]
80004ccc:	fa cb f9 44 	sub	r11,sp,-1724
80004cd0:	f6 09 00 38 	add	r8,r11,r9<<0x3
80004cd4:	f1 40 fd 88 	st.w	r8[-632],r0
80004cd8:	2f f9       	sub	r9,-1
80004cda:	14 96       	mov	r6,r10
80004cdc:	fb 49 06 b4 	st.w	sp[1716],r9
80004ce0:	c0 58       	rjmp	80004cea <_vfprintf_r+0x2d6>
80004ce2:	70 00       	ld.w	r0,r8[0x0]
80004ce4:	14 96       	mov	r6,r10
80004ce6:	2f c8       	sub	r8,-4
80004ce8:	51 08       	stdsp	sp[0x40],r8
80004cea:	58 00       	cp.w	r0,0
80004cec:	fe 94 ff 78 	brge	80004bdc <_vfprintf_r+0x1c8>
80004cf0:	5c 30       	neg	r0
80004cf2:	a3 a5       	sbr	r5,0x2
80004cf4:	c7 4b       	rjmp	80004bdc <_vfprintf_r+0x1c8>
80004cf6:	32 b8       	mov	r8,43
80004cf8:	fb 68 06 bb 	st.b	sp[1723],r8
80004cfc:	c7 0b       	rjmp	80004bdc <_vfprintf_r+0x1c8>
80004cfe:	0f 38       	ld.ub	r8,r7++
80004d00:	e0 48 00 2a 	cp.w	r8,42
80004d04:	c0 30       	breq	80004d0a <_vfprintf_r+0x2f6>
80004d06:	30 09       	mov	r9,0
80004d08:	c7 d8       	rjmp	80004e02 <_vfprintf_r+0x3ee>
80004d0a:	0f 88       	ld.ub	r8,r7[0x0]
80004d0c:	f0 c9 00 30 	sub	r9,r8,48
80004d10:	58 99       	cp.w	r9,9
80004d12:	e0 8b 00 23 	brhi	80004d58 <_vfprintf_r+0x344>
80004d16:	ee c4 ff ff 	sub	r4,r7,-1
80004d1a:	30 0b       	mov	r11,0
80004d1c:	23 08       	sub	r8,48
80004d1e:	f6 0b 00 2b 	add	r11,r11,r11<<0x2
80004d22:	f0 0b 00 1b 	add	r11,r8,r11<<0x1
80004d26:	09 38       	ld.ub	r8,r4++
80004d28:	f0 c9 00 30 	sub	r9,r8,48
80004d2c:	58 99       	cp.w	r9,9
80004d2e:	fe 98 ff f7 	brls	80004d1c <_vfprintf_r+0x308>
80004d32:	e0 48 00 24 	cp.w	r8,36
80004d36:	fe 91 ff 51 	brne	80004bd8 <_vfprintf_r+0x1c4>
80004d3a:	e0 4b 00 20 	cp.w	r11,32
80004d3e:	e0 89 0d f3 	brgt	80006924 <_vfprintf_r+0x1f10>
80004d42:	20 1b       	sub	r11,1
80004d44:	fa f8 06 b4 	ld.w	r8,sp[1716]
80004d48:	10 3b       	cp.w	r11,r8
80004d4a:	c0 e5       	brlt	80004d66 <_vfprintf_r+0x352>
80004d4c:	c1 58       	rjmp	80004d76 <_vfprintf_r+0x362>
80004d4e:	d7 03       	nop
80004d50:	80 00       	ld.sh	r0,r0[0x0]
80004d52:	d7 d4       	*unknown*
80004d54:	80 00       	ld.sh	r0,r0[0x0]
80004d56:	da 10       	acall	0xa1
80004d58:	fa fa 06 b4 	ld.w	r10,sp[1716]
80004d5c:	ec c9 ff ff 	sub	r9,r6,-1
80004d60:	14 36       	cp.w	r6,r10
80004d62:	c1 f5       	brlt	80004da0 <_vfprintf_r+0x38c>
80004d64:	c2 88       	rjmp	80004db4 <_vfprintf_r+0x3a0>
80004d66:	fa ca f9 44 	sub	r10,sp,-1724
80004d6a:	f4 0b 00 3b 	add	r11,r10,r11<<0x3
80004d6e:	f6 fb fd 88 	ld.w	r11,r11[-632]
80004d72:	50 2b       	stdsp	sp[0x8],r11
80004d74:	c3 c8       	rjmp	80004dec <_vfprintf_r+0x3d8>
80004d76:	fa c8 f9 50 	sub	r8,sp,-1712
80004d7a:	1a d8       	st.w	--sp,r8
80004d7c:	fa c8 fa b8 	sub	r8,sp,-1352
80004d80:	1a d8       	st.w	--sp,r8
80004d82:	fa c8 fb b4 	sub	r8,sp,-1100
80004d86:	02 9a       	mov	r10,r1
80004d88:	1a d8       	st.w	--sp,r8
80004d8a:	04 9c       	mov	r12,r2
80004d8c:	fa c8 f9 40 	sub	r8,sp,-1728
80004d90:	fa c9 ff b4 	sub	r9,sp,-76
80004d94:	fe b0 fc a4 	rcall	800046dc <get_arg>
80004d98:	2f dd       	sub	sp,-12
80004d9a:	78 0c       	ld.w	r12,r12[0x0]
80004d9c:	50 2c       	stdsp	sp[0x8],r12
80004d9e:	c2 78       	rjmp	80004dec <_vfprintf_r+0x3d8>
80004da0:	12 96       	mov	r6,r9
80004da2:	0e 94       	mov	r4,r7
80004da4:	fa c9 f9 44 	sub	r9,sp,-1724
80004da8:	f2 03 00 38 	add	r8,r9,r3<<0x3
80004dac:	f0 f8 fd 88 	ld.w	r8,r8[-632]
80004db0:	50 28       	stdsp	sp[0x8],r8
80004db2:	c1 d8       	rjmp	80004dec <_vfprintf_r+0x3d8>
80004db4:	41 08       	lddsp	r8,sp[0x40]
80004db6:	59 fa       	cp.w	r10,31
80004db8:	e0 89 00 14 	brgt	80004de0 <_vfprintf_r+0x3cc>
80004dbc:	f0 cb ff fc 	sub	r11,r8,-4
80004dc0:	70 08       	ld.w	r8,r8[0x0]
80004dc2:	51 0b       	stdsp	sp[0x40],r11
80004dc4:	50 28       	stdsp	sp[0x8],r8
80004dc6:	fa c6 f9 44 	sub	r6,sp,-1724
80004dca:	40 2e       	lddsp	lr,sp[0x8]
80004dcc:	ec 0a 00 38 	add	r8,r6,r10<<0x3
80004dd0:	f1 4e fd 88 	st.w	r8[-632],lr
80004dd4:	2f fa       	sub	r10,-1
80004dd6:	0e 94       	mov	r4,r7
80004dd8:	fb 4a 06 b4 	st.w	sp[1716],r10
80004ddc:	12 96       	mov	r6,r9
80004dde:	c0 78       	rjmp	80004dec <_vfprintf_r+0x3d8>
80004de0:	70 0c       	ld.w	r12,r8[0x0]
80004de2:	0e 94       	mov	r4,r7
80004de4:	2f c8       	sub	r8,-4
80004de6:	50 2c       	stdsp	sp[0x8],r12
80004de8:	12 96       	mov	r6,r9
80004dea:	51 08       	stdsp	sp[0x40],r8
80004dec:	40 2b       	lddsp	r11,sp[0x8]
80004dee:	58 0b       	cp.w	r11,0
80004df0:	fe 95 fe f0 	brlt	80004bd0 <_vfprintf_r+0x1bc>
80004df4:	08 97       	mov	r7,r4
80004df6:	cf 3a       	rjmp	80004bdc <_vfprintf_r+0x1c8>
80004df8:	f2 09 00 29 	add	r9,r9,r9<<0x2
80004dfc:	0f 38       	ld.ub	r8,r7++
80004dfe:	f4 09 00 19 	add	r9,r10,r9<<0x1
80004e02:	f0 ca 00 30 	sub	r10,r8,48
80004e06:	58 9a       	cp.w	r10,9
80004e08:	fe 98 ff f8 	brls	80004df8 <_vfprintf_r+0x3e4>
80004e0c:	3f fa       	mov	r10,-1
80004e0e:	f2 0a 0c 49 	max	r9,r9,r10
80004e12:	50 29       	stdsp	sp[0x8],r9
80004e14:	ce 7a       	rjmp	80004be2 <_vfprintf_r+0x1ce>
80004e16:	a7 b5       	sbr	r5,0x7
80004e18:	ce 2a       	rjmp	80004bdc <_vfprintf_r+0x1c8>
80004e1a:	30 09       	mov	r9,0
80004e1c:	23 08       	sub	r8,48
80004e1e:	f2 09 00 29 	add	r9,r9,r9<<0x2
80004e22:	f0 09 00 19 	add	r9,r8,r9<<0x1
80004e26:	0f 38       	ld.ub	r8,r7++
80004e28:	f0 ca 00 30 	sub	r10,r8,48
80004e2c:	58 9a       	cp.w	r10,9
80004e2e:	fe 98 ff f7 	brls	80004e1c <_vfprintf_r+0x408>
80004e32:	e0 48 00 24 	cp.w	r8,36
80004e36:	fe 91 fe d5 	brne	80004be0 <_vfprintf_r+0x1cc>
80004e3a:	e0 49 00 20 	cp.w	r9,32
80004e3e:	e0 89 0d 73 	brgt	80006924 <_vfprintf_r+0x1f10>
80004e42:	f2 c3 00 01 	sub	r3,r9,1
80004e46:	30 19       	mov	r9,1
80004e48:	50 39       	stdsp	sp[0xc],r9
80004e4a:	cc 9a       	rjmp	80004bdc <_vfprintf_r+0x1c8>
80004e4c:	a3 b5       	sbr	r5,0x3
80004e4e:	cc 7a       	rjmp	80004bdc <_vfprintf_r+0x1c8>
80004e50:	a7 a5       	sbr	r5,0x6
80004e52:	cc 5a       	rjmp	80004bdc <_vfprintf_r+0x1c8>
80004e54:	0a 98       	mov	r8,r5
80004e56:	a5 b5       	sbr	r5,0x5
80004e58:	a5 a8       	sbr	r8,0x4
80004e5a:	0f 89       	ld.ub	r9,r7[0x0]
80004e5c:	36 ce       	mov	lr,108
80004e5e:	fc 09 18 00 	cp.b	r9,lr
80004e62:	f7 b7 00 ff 	subeq	r7,-1
80004e66:	f0 05 17 10 	movne	r5,r8
80004e6a:	cb 9a       	rjmp	80004bdc <_vfprintf_r+0x1c8>
80004e6c:	a5 b5       	sbr	r5,0x5
80004e6e:	cb 7a       	rjmp	80004bdc <_vfprintf_r+0x1c8>
80004e70:	50 a7       	stdsp	sp[0x28],r7
80004e72:	50 80       	stdsp	sp[0x20],r0
80004e74:	0c 97       	mov	r7,r6
80004e76:	10 90       	mov	r0,r8
80004e78:	06 96       	mov	r6,r3
80004e7a:	04 94       	mov	r4,r2
80004e7c:	40 93       	lddsp	r3,sp[0x24]
80004e7e:	02 92       	mov	r2,r1
80004e80:	0e 99       	mov	r9,r7
80004e82:	40 41       	lddsp	r1,sp[0x10]
80004e84:	fa f8 06 b4 	ld.w	r8,sp[1716]
80004e88:	40 3c       	lddsp	r12,sp[0xc]
80004e8a:	58 0c       	cp.w	r12,0
80004e8c:	c1 d0       	breq	80004ec6 <_vfprintf_r+0x4b2>
80004e8e:	10 36       	cp.w	r6,r8
80004e90:	c0 64       	brge	80004e9c <_vfprintf_r+0x488>
80004e92:	fa cb f9 44 	sub	r11,sp,-1724
80004e96:	f6 06 00 36 	add	r6,r11,r6<<0x3
80004e9a:	c1 d8       	rjmp	80004ed4 <_vfprintf_r+0x4c0>
80004e9c:	fa c8 f9 50 	sub	r8,sp,-1712
80004ea0:	1a d8       	st.w	--sp,r8
80004ea2:	fa c8 fa b8 	sub	r8,sp,-1352
80004ea6:	1a d8       	st.w	--sp,r8
80004ea8:	fa c8 fb b4 	sub	r8,sp,-1100
80004eac:	1a d8       	st.w	--sp,r8
80004eae:	fa c8 f9 40 	sub	r8,sp,-1728
80004eb2:	fa c9 ff b4 	sub	r9,sp,-76
80004eb6:	04 9a       	mov	r10,r2
80004eb8:	0c 9b       	mov	r11,r6
80004eba:	08 9c       	mov	r12,r4
80004ebc:	fe b0 fc 10 	rcall	800046dc <get_arg>
80004ec0:	2f dd       	sub	sp,-12
80004ec2:	19 b8       	ld.ub	r8,r12[0x3]
80004ec4:	c2 28       	rjmp	80004f08 <_vfprintf_r+0x4f4>
80004ec6:	2f f7       	sub	r7,-1
80004ec8:	10 39       	cp.w	r9,r8
80004eca:	c0 84       	brge	80004eda <_vfprintf_r+0x4c6>
80004ecc:	fa ca f9 44 	sub	r10,sp,-1724
80004ed0:	f4 06 00 36 	add	r6,r10,r6<<0x3
80004ed4:	ed 38 fd 8b 	ld.ub	r8,r6[-629]
80004ed8:	c1 88       	rjmp	80004f08 <_vfprintf_r+0x4f4>
80004eda:	41 09       	lddsp	r9,sp[0x40]
80004edc:	59 f8       	cp.w	r8,31
80004ede:	e0 89 00 12 	brgt	80004f02 <_vfprintf_r+0x4ee>
80004ee2:	f2 ca ff fc 	sub	r10,r9,-4
80004ee6:	51 0a       	stdsp	sp[0x40],r10
80004ee8:	72 09       	ld.w	r9,r9[0x0]
80004eea:	fa c6 f9 44 	sub	r6,sp,-1724
80004eee:	ec 08 00 3a 	add	r10,r6,r8<<0x3
80004ef2:	2f f8       	sub	r8,-1
80004ef4:	f5 49 fd 88 	st.w	r10[-632],r9
80004ef8:	fb 48 06 b4 	st.w	sp[1716],r8
80004efc:	f1 d9 c0 08 	bfextu	r8,r9,0x0,0x8
80004f00:	c0 48       	rjmp	80004f08 <_vfprintf_r+0x4f4>
80004f02:	13 b8       	ld.ub	r8,r9[0x3]
80004f04:	2f c9       	sub	r9,-4
80004f06:	51 09       	stdsp	sp[0x40],r9
80004f08:	fb 68 06 60 	st.b	sp[1632],r8
80004f0c:	30 0e       	mov	lr,0
80004f0e:	30 08       	mov	r8,0
80004f10:	30 12       	mov	r2,1
80004f12:	fb 68 06 bb 	st.b	sp[1723],r8
80004f16:	50 2e       	stdsp	sp[0x8],lr
80004f18:	e0 8f 08 b1 	bral	8000607a <_vfprintf_r+0x1666>
80004f1c:	50 a7       	stdsp	sp[0x28],r7
80004f1e:	50 80       	stdsp	sp[0x20],r0
80004f20:	0c 97       	mov	r7,r6
80004f22:	04 94       	mov	r4,r2
80004f24:	06 96       	mov	r6,r3
80004f26:	02 92       	mov	r2,r1
80004f28:	40 93       	lddsp	r3,sp[0x24]
80004f2a:	10 90       	mov	r0,r8
80004f2c:	40 41       	lddsp	r1,sp[0x10]
80004f2e:	a5 a5       	sbr	r5,0x4
80004f30:	c0 a8       	rjmp	80004f44 <_vfprintf_r+0x530>
80004f32:	50 a7       	stdsp	sp[0x28],r7
80004f34:	50 80       	stdsp	sp[0x20],r0
80004f36:	0c 97       	mov	r7,r6
80004f38:	04 94       	mov	r4,r2
80004f3a:	06 96       	mov	r6,r3
80004f3c:	02 92       	mov	r2,r1
80004f3e:	40 93       	lddsp	r3,sp[0x24]
80004f40:	10 90       	mov	r0,r8
80004f42:	40 41       	lddsp	r1,sp[0x10]
80004f44:	ed b5 00 05 	bld	r5,0x5
80004f48:	c5 11       	brne	80004fea <_vfprintf_r+0x5d6>
80004f4a:	fa f8 06 b4 	ld.w	r8,sp[1716]
80004f4e:	40 3c       	lddsp	r12,sp[0xc]
80004f50:	58 0c       	cp.w	r12,0
80004f52:	c1 e0       	breq	80004f8e <_vfprintf_r+0x57a>
80004f54:	10 36       	cp.w	r6,r8
80004f56:	c0 64       	brge	80004f62 <_vfprintf_r+0x54e>
80004f58:	fa cb f9 44 	sub	r11,sp,-1724
80004f5c:	f6 06 00 36 	add	r6,r11,r6<<0x3
80004f60:	c2 08       	rjmp	80004fa0 <_vfprintf_r+0x58c>
80004f62:	fa c8 f9 50 	sub	r8,sp,-1712
80004f66:	1a d8       	st.w	--sp,r8
80004f68:	fa c8 fa b8 	sub	r8,sp,-1352
80004f6c:	0c 9b       	mov	r11,r6
80004f6e:	1a d8       	st.w	--sp,r8
80004f70:	fa c8 fb b4 	sub	r8,sp,-1100
80004f74:	1a d8       	st.w	--sp,r8
80004f76:	fa c9 ff b4 	sub	r9,sp,-76
80004f7a:	fa c8 f9 40 	sub	r8,sp,-1728
80004f7e:	04 9a       	mov	r10,r2
80004f80:	08 9c       	mov	r12,r4
80004f82:	fe b0 fb ad 	rcall	800046dc <get_arg>
80004f86:	2f dd       	sub	sp,-12
80004f88:	78 1b       	ld.w	r11,r12[0x4]
80004f8a:	78 09       	ld.w	r9,r12[0x0]
80004f8c:	c2 b8       	rjmp	80004fe2 <_vfprintf_r+0x5ce>
80004f8e:	ee ca ff ff 	sub	r10,r7,-1
80004f92:	10 37       	cp.w	r7,r8
80004f94:	c0 b4       	brge	80004faa <_vfprintf_r+0x596>
80004f96:	fa c9 f9 44 	sub	r9,sp,-1724
80004f9a:	14 97       	mov	r7,r10
80004f9c:	f2 06 00 36 	add	r6,r9,r6<<0x3
80004fa0:	ec fb fd 8c 	ld.w	r11,r6[-628]
80004fa4:	ec f9 fd 88 	ld.w	r9,r6[-632]
80004fa8:	c1 d8       	rjmp	80004fe2 <_vfprintf_r+0x5ce>
80004faa:	41 09       	lddsp	r9,sp[0x40]
80004fac:	59 f8       	cp.w	r8,31
80004fae:	e0 89 00 14 	brgt	80004fd6 <_vfprintf_r+0x5c2>
80004fb2:	f2 cb ff f8 	sub	r11,r9,-8
80004fb6:	51 0b       	stdsp	sp[0x40],r11
80004fb8:	fa c6 f9 44 	sub	r6,sp,-1724
80004fbc:	72 1b       	ld.w	r11,r9[0x4]
80004fbe:	ec 08 00 3c 	add	r12,r6,r8<<0x3
80004fc2:	72 09       	ld.w	r9,r9[0x0]
80004fc4:	f9 4b fd 8c 	st.w	r12[-628],r11
80004fc8:	f9 49 fd 88 	st.w	r12[-632],r9
80004fcc:	2f f8       	sub	r8,-1
80004fce:	14 97       	mov	r7,r10
80004fd0:	fb 48 06 b4 	st.w	sp[1716],r8
80004fd4:	c0 78       	rjmp	80004fe2 <_vfprintf_r+0x5ce>
80004fd6:	f2 c8 ff f8 	sub	r8,r9,-8
80004fda:	72 1b       	ld.w	r11,r9[0x4]
80004fdc:	14 97       	mov	r7,r10
80004fde:	51 08       	stdsp	sp[0x40],r8
80004fe0:	72 09       	ld.w	r9,r9[0x0]
80004fe2:	16 98       	mov	r8,r11
80004fe4:	fa e9 00 00 	st.d	sp[0],r8
80004fe8:	ca e8       	rjmp	80005144 <_vfprintf_r+0x730>
80004fea:	ed b5 00 04 	bld	r5,0x4
80004fee:	c1 71       	brne	8000501c <_vfprintf_r+0x608>
80004ff0:	fa f8 06 b4 	ld.w	r8,sp[1716]
80004ff4:	40 3e       	lddsp	lr,sp[0xc]
80004ff6:	58 0e       	cp.w	lr,0
80004ff8:	c0 80       	breq	80005008 <_vfprintf_r+0x5f4>
80004ffa:	10 36       	cp.w	r6,r8
80004ffc:	c6 94       	brge	800050ce <_vfprintf_r+0x6ba>
80004ffe:	fa cc f9 44 	sub	r12,sp,-1724
80005002:	f8 06 00 36 	add	r6,r12,r6<<0x3
80005006:	c8 28       	rjmp	8000510a <_vfprintf_r+0x6f6>
80005008:	ee ca ff ff 	sub	r10,r7,-1
8000500c:	10 37       	cp.w	r7,r8
8000500e:	e0 84 00 81 	brge	80005110 <_vfprintf_r+0x6fc>
80005012:	fa cb f9 44 	sub	r11,sp,-1724
80005016:	f6 06 00 36 	add	r6,r11,r6<<0x3
8000501a:	c7 78       	rjmp	80005108 <_vfprintf_r+0x6f4>
8000501c:	ed b5 00 06 	bld	r5,0x6
80005020:	c4 b1       	brne	800050b6 <_vfprintf_r+0x6a2>
80005022:	fa f8 06 b4 	ld.w	r8,sp[1716]
80005026:	40 3c       	lddsp	r12,sp[0xc]
80005028:	58 0c       	cp.w	r12,0
8000502a:	c1 d0       	breq	80005064 <_vfprintf_r+0x650>
8000502c:	10 36       	cp.w	r6,r8
8000502e:	c0 64       	brge	8000503a <_vfprintf_r+0x626>
80005030:	fa cb f9 44 	sub	r11,sp,-1724
80005034:	f6 06 00 36 	add	r6,r11,r6<<0x3
80005038:	c1 f8       	rjmp	80005076 <_vfprintf_r+0x662>
8000503a:	fa c8 f9 50 	sub	r8,sp,-1712
8000503e:	1a d8       	st.w	--sp,r8
80005040:	fa c8 fa b8 	sub	r8,sp,-1352
80005044:	1a d8       	st.w	--sp,r8
80005046:	fa c8 fb b4 	sub	r8,sp,-1100
8000504a:	1a d8       	st.w	--sp,r8
8000504c:	fa c8 f9 40 	sub	r8,sp,-1728
80005050:	fa c9 ff b4 	sub	r9,sp,-76
80005054:	04 9a       	mov	r10,r2
80005056:	0c 9b       	mov	r11,r6
80005058:	08 9c       	mov	r12,r4
8000505a:	fe b0 fb 41 	rcall	800046dc <get_arg>
8000505e:	2f dd       	sub	sp,-12
80005060:	98 18       	ld.sh	r8,r12[0x2]
80005062:	c2 68       	rjmp	800050ae <_vfprintf_r+0x69a>
80005064:	ee ca ff ff 	sub	r10,r7,-1
80005068:	10 37       	cp.w	r7,r8
8000506a:	c0 94       	brge	8000507c <_vfprintf_r+0x668>
8000506c:	fa c9 f9 44 	sub	r9,sp,-1724
80005070:	14 97       	mov	r7,r10
80005072:	f2 06 00 36 	add	r6,r9,r6<<0x3
80005076:	ed 08 fd 8a 	ld.sh	r8,r6[-630]
8000507a:	c1 a8       	rjmp	800050ae <_vfprintf_r+0x69a>
8000507c:	41 09       	lddsp	r9,sp[0x40]
8000507e:	59 f8       	cp.w	r8,31
80005080:	e0 89 00 13 	brgt	800050a6 <_vfprintf_r+0x692>
80005084:	f2 cb ff fc 	sub	r11,r9,-4
80005088:	51 0b       	stdsp	sp[0x40],r11
8000508a:	72 09       	ld.w	r9,r9[0x0]
8000508c:	fa c6 f9 44 	sub	r6,sp,-1724
80005090:	ec 08 00 3b 	add	r11,r6,r8<<0x3
80005094:	2f f8       	sub	r8,-1
80005096:	f7 49 fd 88 	st.w	r11[-632],r9
8000509a:	fb 48 06 b4 	st.w	sp[1716],r8
8000509e:	14 97       	mov	r7,r10
800050a0:	f1 d9 b0 10 	bfexts	r8,r9,0x0,0x10
800050a4:	c0 58       	rjmp	800050ae <_vfprintf_r+0x69a>
800050a6:	92 18       	ld.sh	r8,r9[0x2]
800050a8:	14 97       	mov	r7,r10
800050aa:	2f c9       	sub	r9,-4
800050ac:	51 09       	stdsp	sp[0x40],r9
800050ae:	50 18       	stdsp	sp[0x4],r8
800050b0:	bf 58       	asr	r8,0x1f
800050b2:	50 08       	stdsp	sp[0x0],r8
800050b4:	c4 88       	rjmp	80005144 <_vfprintf_r+0x730>
800050b6:	fa f8 06 b4 	ld.w	r8,sp[1716]
800050ba:	40 3c       	lddsp	r12,sp[0xc]
800050bc:	58 0c       	cp.w	r12,0
800050be:	c1 d0       	breq	800050f8 <_vfprintf_r+0x6e4>
800050c0:	10 36       	cp.w	r6,r8
800050c2:	c0 64       	brge	800050ce <_vfprintf_r+0x6ba>
800050c4:	fa cb f9 44 	sub	r11,sp,-1724
800050c8:	f6 06 00 36 	add	r6,r11,r6<<0x3
800050cc:	c1 f8       	rjmp	8000510a <_vfprintf_r+0x6f6>
800050ce:	fa c8 f9 50 	sub	r8,sp,-1712
800050d2:	1a d8       	st.w	--sp,r8
800050d4:	fa c8 fa b8 	sub	r8,sp,-1352
800050d8:	0c 9b       	mov	r11,r6
800050da:	1a d8       	st.w	--sp,r8
800050dc:	fa c8 fb b4 	sub	r8,sp,-1100
800050e0:	04 9a       	mov	r10,r2
800050e2:	1a d8       	st.w	--sp,r8
800050e4:	08 9c       	mov	r12,r4
800050e6:	fa c8 f9 40 	sub	r8,sp,-1728
800050ea:	fa c9 ff b4 	sub	r9,sp,-76
800050ee:	fe b0 fa f7 	rcall	800046dc <get_arg>
800050f2:	2f dd       	sub	sp,-12
800050f4:	78 0b       	ld.w	r11,r12[0x0]
800050f6:	c2 48       	rjmp	8000513e <_vfprintf_r+0x72a>
800050f8:	ee ca ff ff 	sub	r10,r7,-1
800050fc:	10 37       	cp.w	r7,r8
800050fe:	c0 94       	brge	80005110 <_vfprintf_r+0x6fc>
80005100:	fa c9 f9 44 	sub	r9,sp,-1724
80005104:	f2 06 00 36 	add	r6,r9,r6<<0x3
80005108:	14 97       	mov	r7,r10
8000510a:	ec fb fd 88 	ld.w	r11,r6[-632]
8000510e:	c1 88       	rjmp	8000513e <_vfprintf_r+0x72a>
80005110:	41 09       	lddsp	r9,sp[0x40]
80005112:	59 f8       	cp.w	r8,31
80005114:	e0 89 00 11 	brgt	80005136 <_vfprintf_r+0x722>
80005118:	f2 cb ff fc 	sub	r11,r9,-4
8000511c:	51 0b       	stdsp	sp[0x40],r11
8000511e:	fa c6 f9 44 	sub	r6,sp,-1724
80005122:	72 0b       	ld.w	r11,r9[0x0]
80005124:	ec 08 00 39 	add	r9,r6,r8<<0x3
80005128:	f3 4b fd 88 	st.w	r9[-632],r11
8000512c:	2f f8       	sub	r8,-1
8000512e:	14 97       	mov	r7,r10
80005130:	fb 48 06 b4 	st.w	sp[1716],r8
80005134:	c0 58       	rjmp	8000513e <_vfprintf_r+0x72a>
80005136:	72 0b       	ld.w	r11,r9[0x0]
80005138:	14 97       	mov	r7,r10
8000513a:	2f c9       	sub	r9,-4
8000513c:	51 09       	stdsp	sp[0x40],r9
8000513e:	50 1b       	stdsp	sp[0x4],r11
80005140:	bf 5b       	asr	r11,0x1f
80005142:	50 0b       	stdsp	sp[0x0],r11
80005144:	fa ea 00 00 	ld.d	r10,sp[0]
80005148:	58 0a       	cp.w	r10,0
8000514a:	5c 2b       	cpc	r11
8000514c:	c0 e4       	brge	80005168 <_vfprintf_r+0x754>
8000514e:	30 08       	mov	r8,0
80005150:	fa ea 00 00 	ld.d	r10,sp[0]
80005154:	30 09       	mov	r9,0
80005156:	f0 0a 01 0a 	sub	r10,r8,r10
8000515a:	f2 0b 01 4b 	sbc	r11,r9,r11
8000515e:	32 d8       	mov	r8,45
80005160:	fa eb 00 00 	st.d	sp[0],r10
80005164:	fb 68 06 bb 	st.b	sp[1723],r8
80005168:	30 18       	mov	r8,1
8000516a:	e0 8f 06 fe 	bral	80005f66 <_vfprintf_r+0x1552>
8000516e:	50 a7       	stdsp	sp[0x28],r7
80005170:	50 80       	stdsp	sp[0x20],r0
80005172:	0c 97       	mov	r7,r6
80005174:	04 94       	mov	r4,r2
80005176:	06 96       	mov	r6,r3
80005178:	02 92       	mov	r2,r1
8000517a:	40 93       	lddsp	r3,sp[0x24]
8000517c:	10 90       	mov	r0,r8
8000517e:	40 41       	lddsp	r1,sp[0x10]
80005180:	0e 99       	mov	r9,r7
80005182:	ed b5 00 03 	bld	r5,0x3
80005186:	c4 11       	brne	80005208 <_vfprintf_r+0x7f4>
80005188:	fa f8 06 b4 	ld.w	r8,sp[1716]
8000518c:	40 3a       	lddsp	r10,sp[0xc]
8000518e:	58 0a       	cp.w	r10,0
80005190:	c1 90       	breq	800051c2 <_vfprintf_r+0x7ae>
80005192:	10 36       	cp.w	r6,r8
80005194:	c6 45       	brlt	8000525c <_vfprintf_r+0x848>
80005196:	fa c8 f9 50 	sub	r8,sp,-1712
8000519a:	1a d8       	st.w	--sp,r8
8000519c:	fa c8 fa b8 	sub	r8,sp,-1352
800051a0:	1a d8       	st.w	--sp,r8
800051a2:	fa c8 fb b4 	sub	r8,sp,-1100
800051a6:	0c 9b       	mov	r11,r6
800051a8:	1a d8       	st.w	--sp,r8
800051aa:	04 9a       	mov	r10,r2
800051ac:	fa c8 f9 40 	sub	r8,sp,-1728
800051b0:	fa c9 ff b4 	sub	r9,sp,-76
800051b4:	08 9c       	mov	r12,r4
800051b6:	fe b0 fa 93 	rcall	800046dc <get_arg>
800051ba:	2f dd       	sub	sp,-12
800051bc:	78 16       	ld.w	r6,r12[0x4]
800051be:	50 76       	stdsp	sp[0x1c],r6
800051c0:	c4 88       	rjmp	80005250 <_vfprintf_r+0x83c>
800051c2:	2f f7       	sub	r7,-1
800051c4:	10 39       	cp.w	r9,r8
800051c6:	c0 c4       	brge	800051de <_vfprintf_r+0x7ca>
800051c8:	fa ce f9 44 	sub	lr,sp,-1724
800051cc:	fc 06 00 36 	add	r6,lr,r6<<0x3
800051d0:	ec fc fd 8c 	ld.w	r12,r6[-628]
800051d4:	50 7c       	stdsp	sp[0x1c],r12
800051d6:	ec f6 fd 88 	ld.w	r6,r6[-632]
800051da:	50 56       	stdsp	sp[0x14],r6
800051dc:	c6 68       	rjmp	800052a8 <_vfprintf_r+0x894>
800051de:	41 09       	lddsp	r9,sp[0x40]
800051e0:	59 f8       	cp.w	r8,31
800051e2:	e0 89 00 10 	brgt	80005202 <_vfprintf_r+0x7ee>
800051e6:	f2 ca ff f8 	sub	r10,r9,-8
800051ea:	72 1b       	ld.w	r11,r9[0x4]
800051ec:	51 0a       	stdsp	sp[0x40],r10
800051ee:	72 09       	ld.w	r9,r9[0x0]
800051f0:	fa ca f9 44 	sub	r10,sp,-1724
800051f4:	50 7b       	stdsp	sp[0x1c],r11
800051f6:	50 59       	stdsp	sp[0x14],r9
800051f8:	f4 08 00 39 	add	r9,r10,r8<<0x3
800051fc:	40 5b       	lddsp	r11,sp[0x14]
800051fe:	40 7a       	lddsp	r10,sp[0x1c]
80005200:	c4 78       	rjmp	8000528e <_vfprintf_r+0x87a>
80005202:	72 18       	ld.w	r8,r9[0x4]
80005204:	50 78       	stdsp	sp[0x1c],r8
80005206:	c4 c8       	rjmp	8000529e <_vfprintf_r+0x88a>
80005208:	fa f8 06 b4 	ld.w	r8,sp[1716]
8000520c:	40 3e       	lddsp	lr,sp[0xc]
8000520e:	58 0e       	cp.w	lr,0
80005210:	c2 30       	breq	80005256 <_vfprintf_r+0x842>
80005212:	10 36       	cp.w	r6,r8
80005214:	c0 94       	brge	80005226 <_vfprintf_r+0x812>
80005216:	fa cc f9 44 	sub	r12,sp,-1724
8000521a:	f8 06 00 36 	add	r6,r12,r6<<0x3
8000521e:	ec fb fd 8c 	ld.w	r11,r6[-628]
80005222:	50 7b       	stdsp	sp[0x1c],r11
80005224:	cd 9b       	rjmp	800051d6 <_vfprintf_r+0x7c2>
80005226:	fa c8 f9 50 	sub	r8,sp,-1712
8000522a:	1a d8       	st.w	--sp,r8
8000522c:	fa c8 fa b8 	sub	r8,sp,-1352
80005230:	04 9a       	mov	r10,r2
80005232:	1a d8       	st.w	--sp,r8
80005234:	fa c8 fb b4 	sub	r8,sp,-1100
80005238:	0c 9b       	mov	r11,r6
8000523a:	1a d8       	st.w	--sp,r8
8000523c:	08 9c       	mov	r12,r4
8000523e:	fa c8 f9 40 	sub	r8,sp,-1728
80005242:	fa c9 ff b4 	sub	r9,sp,-76
80005246:	fe b0 fa 4b 	rcall	800046dc <get_arg>
8000524a:	2f dd       	sub	sp,-12
8000524c:	78 1a       	ld.w	r10,r12[0x4]
8000524e:	50 7a       	stdsp	sp[0x1c],r10
80005250:	78 0c       	ld.w	r12,r12[0x0]
80005252:	50 5c       	stdsp	sp[0x14],r12
80005254:	c2 a8       	rjmp	800052a8 <_vfprintf_r+0x894>
80005256:	2f f7       	sub	r7,-1
80005258:	10 39       	cp.w	r9,r8
8000525a:	c0 94       	brge	8000526c <_vfprintf_r+0x858>
8000525c:	fa c9 f9 44 	sub	r9,sp,-1724
80005260:	f2 06 00 36 	add	r6,r9,r6<<0x3
80005264:	ec f8 fd 8c 	ld.w	r8,r6[-628]
80005268:	50 78       	stdsp	sp[0x1c],r8
8000526a:	cb 6b       	rjmp	800051d6 <_vfprintf_r+0x7c2>
8000526c:	41 09       	lddsp	r9,sp[0x40]
8000526e:	59 f8       	cp.w	r8,31
80005270:	e0 89 00 15 	brgt	8000529a <_vfprintf_r+0x886>
80005274:	f2 ca ff f8 	sub	r10,r9,-8
80005278:	72 16       	ld.w	r6,r9[0x4]
8000527a:	72 09       	ld.w	r9,r9[0x0]
8000527c:	51 0a       	stdsp	sp[0x40],r10
8000527e:	50 59       	stdsp	sp[0x14],r9
80005280:	fa ce f9 44 	sub	lr,sp,-1724
80005284:	50 76       	stdsp	sp[0x1c],r6
80005286:	fc 08 00 39 	add	r9,lr,r8<<0x3
8000528a:	40 5b       	lddsp	r11,sp[0x14]
8000528c:	0c 9a       	mov	r10,r6
8000528e:	f2 eb fd 88 	st.d	r9[-632],r10
80005292:	2f f8       	sub	r8,-1
80005294:	fb 48 06 b4 	st.w	sp[1716],r8
80005298:	c0 88       	rjmp	800052a8 <_vfprintf_r+0x894>
8000529a:	72 1c       	ld.w	r12,r9[0x4]
8000529c:	50 7c       	stdsp	sp[0x1c],r12
8000529e:	f2 c8 ff f8 	sub	r8,r9,-8
800052a2:	51 08       	stdsp	sp[0x40],r8
800052a4:	72 09       	ld.w	r9,r9[0x0]
800052a6:	50 59       	stdsp	sp[0x14],r9
800052a8:	40 5b       	lddsp	r11,sp[0x14]
800052aa:	40 7a       	lddsp	r10,sp[0x1c]
800052ac:	e0 a0 29 c0 	rcall	8000a62c <__isinfd>
800052b0:	18 96       	mov	r6,r12
800052b2:	c1 50       	breq	800052dc <_vfprintf_r+0x8c8>
800052b4:	30 08       	mov	r8,0
800052b6:	30 09       	mov	r9,0
800052b8:	40 5b       	lddsp	r11,sp[0x14]
800052ba:	40 7a       	lddsp	r10,sp[0x1c]
800052bc:	e0 a0 3b c8 	rcall	8000ca4c <__avr32_f64_cmp_lt>
800052c0:	c0 40       	breq	800052c8 <_vfprintf_r+0x8b4>
800052c2:	32 d8       	mov	r8,45
800052c4:	fb 68 06 bb 	st.b	sp[1723],r8
800052c8:	4d 18       	lddpc	r8,8000540c <_vfprintf_r+0x9f8>
800052ca:	4d 26       	lddpc	r6,80005410 <_vfprintf_r+0x9fc>
800052cc:	a7 d5       	cbr	r5,0x7
800052ce:	e0 40 00 47 	cp.w	r0,71
800052d2:	f0 06 17 a0 	movle	r6,r8
800052d6:	30 32       	mov	r2,3
800052d8:	e0 8f 06 d4 	bral	80006080 <_vfprintf_r+0x166c>
800052dc:	40 5b       	lddsp	r11,sp[0x14]
800052de:	40 7a       	lddsp	r10,sp[0x1c]
800052e0:	e0 a0 29 bb 	rcall	8000a656 <__isnand>
800052e4:	c0 c0       	breq	800052fc <_vfprintf_r+0x8e8>
800052e6:	50 26       	stdsp	sp[0x8],r6
800052e8:	4c b8       	lddpc	r8,80005414 <_vfprintf_r+0xa00>
800052ea:	4c c6       	lddpc	r6,80005418 <_vfprintf_r+0xa04>
800052ec:	a7 d5       	cbr	r5,0x7
800052ee:	e0 40 00 47 	cp.w	r0,71
800052f2:	f0 06 17 a0 	movle	r6,r8
800052f6:	30 32       	mov	r2,3
800052f8:	e0 8f 06 ca 	bral	8000608c <_vfprintf_r+0x1678>
800052fc:	40 2a       	lddsp	r10,sp[0x8]
800052fe:	5b fa       	cp.w	r10,-1
80005300:	c0 41       	brne	80005308 <_vfprintf_r+0x8f4>
80005302:	30 69       	mov	r9,6
80005304:	50 29       	stdsp	sp[0x8],r9
80005306:	c1 18       	rjmp	80005328 <_vfprintf_r+0x914>
80005308:	e0 40 00 47 	cp.w	r0,71
8000530c:	5f 09       	sreq	r9
8000530e:	e0 40 00 67 	cp.w	r0,103
80005312:	5f 08       	sreq	r8
80005314:	f3 e8 10 08 	or	r8,r9,r8
80005318:	f8 08 18 00 	cp.b	r8,r12
8000531c:	c0 60       	breq	80005328 <_vfprintf_r+0x914>
8000531e:	40 28       	lddsp	r8,sp[0x8]
80005320:	58 08       	cp.w	r8,0
80005322:	f9 b8 00 01 	moveq	r8,1
80005326:	50 28       	stdsp	sp[0x8],r8
80005328:	40 78       	lddsp	r8,sp[0x1c]
8000532a:	40 59       	lddsp	r9,sp[0x14]
8000532c:	fa e9 06 94 	st.d	sp[1684],r8
80005330:	a9 a5       	sbr	r5,0x8
80005332:	fa f8 06 94 	ld.w	r8,sp[1684]
80005336:	58 08       	cp.w	r8,0
80005338:	c0 65       	brlt	80005344 <_vfprintf_r+0x930>
8000533a:	40 5e       	lddsp	lr,sp[0x14]
8000533c:	30 0c       	mov	r12,0
8000533e:	50 6e       	stdsp	sp[0x18],lr
80005340:	50 9c       	stdsp	sp[0x24],r12
80005342:	c0 78       	rjmp	80005350 <_vfprintf_r+0x93c>
80005344:	40 5b       	lddsp	r11,sp[0x14]
80005346:	32 da       	mov	r10,45
80005348:	ee 1b 80 00 	eorh	r11,0x8000
8000534c:	50 9a       	stdsp	sp[0x24],r10
8000534e:	50 6b       	stdsp	sp[0x18],r11
80005350:	e0 40 00 46 	cp.w	r0,70
80005354:	5f 09       	sreq	r9
80005356:	e0 40 00 66 	cp.w	r0,102
8000535a:	5f 08       	sreq	r8
8000535c:	f3 e8 10 08 	or	r8,r9,r8
80005360:	50 48       	stdsp	sp[0x10],r8
80005362:	c0 40       	breq	8000536a <_vfprintf_r+0x956>
80005364:	40 22       	lddsp	r2,sp[0x8]
80005366:	30 39       	mov	r9,3
80005368:	c1 08       	rjmp	80005388 <_vfprintf_r+0x974>
8000536a:	e0 40 00 45 	cp.w	r0,69
8000536e:	5f 09       	sreq	r9
80005370:	e0 40 00 65 	cp.w	r0,101
80005374:	5f 08       	sreq	r8
80005376:	40 22       	lddsp	r2,sp[0x8]
80005378:	10 49       	or	r9,r8
8000537a:	2f f2       	sub	r2,-1
8000537c:	40 46       	lddsp	r6,sp[0x10]
8000537e:	ec 09 18 00 	cp.b	r9,r6
80005382:	fb f2 00 02 	ld.weq	r2,sp[0x8]
80005386:	30 29       	mov	r9,2
80005388:	fa c8 f9 5c 	sub	r8,sp,-1700
8000538c:	1a d8       	st.w	--sp,r8
8000538e:	fa c8 f9 54 	sub	r8,sp,-1708
80005392:	1a d8       	st.w	--sp,r8
80005394:	fa c8 f9 4c 	sub	r8,sp,-1716
80005398:	08 9c       	mov	r12,r4
8000539a:	1a d8       	st.w	--sp,r8
8000539c:	04 98       	mov	r8,r2
8000539e:	40 9b       	lddsp	r11,sp[0x24]
800053a0:	40 aa       	lddsp	r10,sp[0x28]
800053a2:	e0 a0 16 47 	rcall	80008030 <_dtoa_r>
800053a6:	e0 40 00 47 	cp.w	r0,71
800053aa:	5f 19       	srne	r9
800053ac:	e0 40 00 67 	cp.w	r0,103
800053b0:	5f 18       	srne	r8
800053b2:	18 96       	mov	r6,r12
800053b4:	2f dd       	sub	sp,-12
800053b6:	f3 e8 00 08 	and	r8,r9,r8
800053ba:	c0 41       	brne	800053c2 <_vfprintf_r+0x9ae>
800053bc:	ed b5 00 00 	bld	r5,0x0
800053c0:	c3 81       	brne	80005430 <_vfprintf_r+0xa1c>
800053c2:	ec 02 00 0e 	add	lr,r6,r2
800053c6:	50 3e       	stdsp	sp[0xc],lr
800053c8:	40 4c       	lddsp	r12,sp[0x10]
800053ca:	58 0c       	cp.w	r12,0
800053cc:	c1 50       	breq	800053f6 <_vfprintf_r+0x9e2>
800053ce:	0d 89       	ld.ub	r9,r6[0x0]
800053d0:	33 08       	mov	r8,48
800053d2:	f0 09 18 00 	cp.b	r9,r8
800053d6:	c0 b1       	brne	800053ec <_vfprintf_r+0x9d8>
800053d8:	30 08       	mov	r8,0
800053da:	30 09       	mov	r9,0
800053dc:	40 6b       	lddsp	r11,sp[0x18]
800053de:	40 7a       	lddsp	r10,sp[0x1c]
800053e0:	e0 a0 3a ef 	rcall	8000c9be <__avr32_f64_cmp_eq>
800053e4:	fb b2 00 01 	rsubeq	r2,1
800053e8:	fb f2 0b ab 	st.weq	sp[0x6ac],r2
800053ec:	40 3b       	lddsp	r11,sp[0xc]
800053ee:	fa f8 06 ac 	ld.w	r8,sp[1708]
800053f2:	10 0b       	add	r11,r8
800053f4:	50 3b       	stdsp	sp[0xc],r11
800053f6:	40 6b       	lddsp	r11,sp[0x18]
800053f8:	30 08       	mov	r8,0
800053fa:	30 09       	mov	r9,0
800053fc:	40 7a       	lddsp	r10,sp[0x1c]
800053fe:	e0 a0 3a e0 	rcall	8000c9be <__avr32_f64_cmp_eq>
80005402:	c1 10       	breq	80005424 <_vfprintf_r+0xa10>
80005404:	40 3a       	lddsp	r10,sp[0xc]
80005406:	fb 4a 06 a4 	st.w	sp[1700],r10
8000540a:	c0 d8       	rjmp	80005424 <_vfprintf_r+0xa10>
8000540c:	80 00       	ld.sh	r0,r0[0x0]
8000540e:	da 24       	*unknown*
80005410:	80 00       	ld.sh	r0,r0[0x0]
80005412:	da 28       	*unknown*
80005414:	80 00       	ld.sh	r0,r0[0x0]
80005416:	da 2c       	*unknown*
80005418:	80 00       	ld.sh	r0,r0[0x0]
8000541a:	da 30       	acall	0xa3
8000541c:	10 c9       	st.b	r8++,r9
8000541e:	fb 48 06 a4 	st.w	sp[1700],r8
80005422:	c0 28       	rjmp	80005426 <_vfprintf_r+0xa12>
80005424:	33 09       	mov	r9,48
80005426:	fa f8 06 a4 	ld.w	r8,sp[1700]
8000542a:	40 3e       	lddsp	lr,sp[0xc]
8000542c:	1c 38       	cp.w	r8,lr
8000542e:	cf 73       	brcs	8000541c <_vfprintf_r+0xa08>
80005430:	e0 40 00 47 	cp.w	r0,71
80005434:	5f 09       	sreq	r9
80005436:	e0 40 00 67 	cp.w	r0,103
8000543a:	5f 08       	sreq	r8
8000543c:	f3 e8 10 08 	or	r8,r9,r8
80005440:	fa f9 06 a4 	ld.w	r9,sp[1700]
80005444:	0c 19       	sub	r9,r6
80005446:	50 69       	stdsp	sp[0x18],r9
80005448:	58 08       	cp.w	r8,0
8000544a:	c0 b0       	breq	80005460 <_vfprintf_r+0xa4c>
8000544c:	fa f8 06 ac 	ld.w	r8,sp[1708]
80005450:	5b d8       	cp.w	r8,-3
80005452:	c0 55       	brlt	8000545c <_vfprintf_r+0xa48>
80005454:	40 2c       	lddsp	r12,sp[0x8]
80005456:	18 38       	cp.w	r8,r12
80005458:	e0 8a 00 6a 	brle	8000552c <_vfprintf_r+0xb18>
8000545c:	20 20       	sub	r0,2
8000545e:	c0 58       	rjmp	80005468 <_vfprintf_r+0xa54>
80005460:	e0 40 00 65 	cp.w	r0,101
80005464:	e0 89 00 46 	brgt	800054f0 <_vfprintf_r+0xadc>
80005468:	fa fb 06 ac 	ld.w	r11,sp[1708]
8000546c:	fb 60 06 9c 	st.b	sp[1692],r0
80005470:	20 1b       	sub	r11,1
80005472:	fb 4b 06 ac 	st.w	sp[1708],r11
80005476:	c0 47       	brpl	8000547e <_vfprintf_r+0xa6a>
80005478:	5c 3b       	neg	r11
8000547a:	32 d8       	mov	r8,45
8000547c:	c0 28       	rjmp	80005480 <_vfprintf_r+0xa6c>
8000547e:	32 b8       	mov	r8,43
80005480:	fb 68 06 9d 	st.b	sp[1693],r8
80005484:	58 9b       	cp.w	r11,9
80005486:	e0 8a 00 1d 	brle	800054c0 <_vfprintf_r+0xaac>
8000548a:	fa c9 fa 35 	sub	r9,sp,-1483
8000548e:	30 aa       	mov	r10,10
80005490:	12 98       	mov	r8,r9
80005492:	0e 9c       	mov	r12,r7
80005494:	0c 92       	mov	r2,r6
80005496:	f6 0a 0c 06 	divs	r6,r11,r10
8000549a:	0e 9b       	mov	r11,r7
8000549c:	2d 0b       	sub	r11,-48
8000549e:	10 fb       	st.b	--r8,r11
800054a0:	0c 9b       	mov	r11,r6
800054a2:	58 96       	cp.w	r6,9
800054a4:	fe 99 ff f9 	brgt	80005496 <_vfprintf_r+0xa82>
800054a8:	2d 0b       	sub	r11,-48
800054aa:	18 97       	mov	r7,r12
800054ac:	04 96       	mov	r6,r2
800054ae:	10 fb       	st.b	--r8,r11
800054b0:	fa ca f9 62 	sub	r10,sp,-1694
800054b4:	c0 38       	rjmp	800054ba <_vfprintf_r+0xaa6>
800054b6:	11 3b       	ld.ub	r11,r8++
800054b8:	14 cb       	st.b	r10++,r11
800054ba:	12 38       	cp.w	r8,r9
800054bc:	cf d3       	brcs	800054b6 <_vfprintf_r+0xaa2>
800054be:	c0 98       	rjmp	800054d0 <_vfprintf_r+0xabc>
800054c0:	2d 0b       	sub	r11,-48
800054c2:	33 08       	mov	r8,48
800054c4:	fb 6b 06 9f 	st.b	sp[1695],r11
800054c8:	fb 68 06 9e 	st.b	sp[1694],r8
800054cc:	fa ca f9 60 	sub	r10,sp,-1696
800054d0:	fa c8 f9 64 	sub	r8,sp,-1692
800054d4:	f4 08 01 08 	sub	r8,r10,r8
800054d8:	50 e8       	stdsp	sp[0x38],r8
800054da:	10 92       	mov	r2,r8
800054dc:	40 6b       	lddsp	r11,sp[0x18]
800054de:	16 02       	add	r2,r11
800054e0:	58 1b       	cp.w	r11,1
800054e2:	e0 89 00 05 	brgt	800054ec <_vfprintf_r+0xad8>
800054e6:	ed b5 00 00 	bld	r5,0x0
800054ea:	c3 51       	brne	80005554 <_vfprintf_r+0xb40>
800054ec:	2f f2       	sub	r2,-1
800054ee:	c3 38       	rjmp	80005554 <_vfprintf_r+0xb40>
800054f0:	e0 40 00 66 	cp.w	r0,102
800054f4:	c1 c1       	brne	8000552c <_vfprintf_r+0xb18>
800054f6:	fa f2 06 ac 	ld.w	r2,sp[1708]
800054fa:	58 02       	cp.w	r2,0
800054fc:	e0 8a 00 0c 	brle	80005514 <_vfprintf_r+0xb00>
80005500:	40 2a       	lddsp	r10,sp[0x8]
80005502:	58 0a       	cp.w	r10,0
80005504:	c0 41       	brne	8000550c <_vfprintf_r+0xaf8>
80005506:	ed b5 00 00 	bld	r5,0x0
8000550a:	c2 51       	brne	80005554 <_vfprintf_r+0xb40>
8000550c:	2f f2       	sub	r2,-1
8000550e:	40 29       	lddsp	r9,sp[0x8]
80005510:	12 02       	add	r2,r9
80005512:	c0 b8       	rjmp	80005528 <_vfprintf_r+0xb14>
80005514:	40 28       	lddsp	r8,sp[0x8]
80005516:	58 08       	cp.w	r8,0
80005518:	c0 61       	brne	80005524 <_vfprintf_r+0xb10>
8000551a:	ed b5 00 00 	bld	r5,0x0
8000551e:	c0 30       	breq	80005524 <_vfprintf_r+0xb10>
80005520:	30 12       	mov	r2,1
80005522:	c1 98       	rjmp	80005554 <_vfprintf_r+0xb40>
80005524:	40 22       	lddsp	r2,sp[0x8]
80005526:	2f e2       	sub	r2,-2
80005528:	36 60       	mov	r0,102
8000552a:	c1 58       	rjmp	80005554 <_vfprintf_r+0xb40>
8000552c:	fa f2 06 ac 	ld.w	r2,sp[1708]
80005530:	40 6e       	lddsp	lr,sp[0x18]
80005532:	1c 32       	cp.w	r2,lr
80005534:	c0 65       	brlt	80005540 <_vfprintf_r+0xb2c>
80005536:	ed b5 00 00 	bld	r5,0x0
8000553a:	f7 b2 00 ff 	subeq	r2,-1
8000553e:	c0 a8       	rjmp	80005552 <_vfprintf_r+0xb3e>
80005540:	e4 08 11 02 	rsub	r8,r2,2
80005544:	40 6c       	lddsp	r12,sp[0x18]
80005546:	58 02       	cp.w	r2,0
80005548:	f0 02 17 a0 	movle	r2,r8
8000554c:	f9 b2 09 01 	movgt	r2,1
80005550:	18 02       	add	r2,r12
80005552:	36 70       	mov	r0,103
80005554:	40 9b       	lddsp	r11,sp[0x24]
80005556:	58 0b       	cp.w	r11,0
80005558:	e0 80 05 94 	breq	80006080 <_vfprintf_r+0x166c>
8000555c:	32 d8       	mov	r8,45
8000555e:	fb 68 06 bb 	st.b	sp[1723],r8
80005562:	e0 8f 05 93 	bral	80006088 <_vfprintf_r+0x1674>
80005566:	50 a7       	stdsp	sp[0x28],r7
80005568:	04 94       	mov	r4,r2
8000556a:	0c 97       	mov	r7,r6
8000556c:	02 92       	mov	r2,r1
8000556e:	06 96       	mov	r6,r3
80005570:	40 41       	lddsp	r1,sp[0x10]
80005572:	40 93       	lddsp	r3,sp[0x24]
80005574:	0e 99       	mov	r9,r7
80005576:	ed b5 00 05 	bld	r5,0x5
8000557a:	c4 81       	brne	8000560a <_vfprintf_r+0xbf6>
8000557c:	fa f8 06 b4 	ld.w	r8,sp[1716]
80005580:	40 3e       	lddsp	lr,sp[0xc]
80005582:	58 0e       	cp.w	lr,0
80005584:	c1 d0       	breq	800055be <_vfprintf_r+0xbaa>
80005586:	10 36       	cp.w	r6,r8
80005588:	c0 64       	brge	80005594 <_vfprintf_r+0xb80>
8000558a:	fa cc f9 44 	sub	r12,sp,-1724
8000558e:	f8 06 00 36 	add	r6,r12,r6<<0x3
80005592:	c1 d8       	rjmp	800055cc <_vfprintf_r+0xbb8>
80005594:	fa c8 f9 50 	sub	r8,sp,-1712
80005598:	1a d8       	st.w	--sp,r8
8000559a:	fa c8 fa b8 	sub	r8,sp,-1352
8000559e:	04 9a       	mov	r10,r2
800055a0:	1a d8       	st.w	--sp,r8
800055a2:	fa c8 fb b4 	sub	r8,sp,-1100
800055a6:	0c 9b       	mov	r11,r6
800055a8:	1a d8       	st.w	--sp,r8
800055aa:	08 9c       	mov	r12,r4
800055ac:	fa c8 f9 40 	sub	r8,sp,-1728
800055b0:	fa c9 ff b4 	sub	r9,sp,-76
800055b4:	fe b0 f8 94 	rcall	800046dc <get_arg>
800055b8:	2f dd       	sub	sp,-12
800055ba:	78 0a       	ld.w	r10,r12[0x0]
800055bc:	c2 08       	rjmp	800055fc <_vfprintf_r+0xbe8>
800055be:	2f f7       	sub	r7,-1
800055c0:	10 39       	cp.w	r9,r8
800055c2:	c0 84       	brge	800055d2 <_vfprintf_r+0xbbe>
800055c4:	fa cb f9 44 	sub	r11,sp,-1724
800055c8:	f6 06 00 36 	add	r6,r11,r6<<0x3
800055cc:	ec fa fd 88 	ld.w	r10,r6[-632]
800055d0:	c1 68       	rjmp	800055fc <_vfprintf_r+0xbe8>
800055d2:	41 09       	lddsp	r9,sp[0x40]
800055d4:	59 f8       	cp.w	r8,31
800055d6:	e0 89 00 10 	brgt	800055f6 <_vfprintf_r+0xbe2>
800055da:	f2 ca ff fc 	sub	r10,r9,-4
800055de:	51 0a       	stdsp	sp[0x40],r10
800055e0:	fa c6 f9 44 	sub	r6,sp,-1724
800055e4:	72 0a       	ld.w	r10,r9[0x0]
800055e6:	ec 08 00 39 	add	r9,r6,r8<<0x3
800055ea:	f3 4a fd 88 	st.w	r9[-632],r10
800055ee:	2f f8       	sub	r8,-1
800055f0:	fb 48 06 b4 	st.w	sp[1716],r8
800055f4:	c0 48       	rjmp	800055fc <_vfprintf_r+0xbe8>
800055f6:	72 0a       	ld.w	r10,r9[0x0]
800055f8:	2f c9       	sub	r9,-4
800055fa:	51 09       	stdsp	sp[0x40],r9
800055fc:	40 be       	lddsp	lr,sp[0x2c]
800055fe:	1c 98       	mov	r8,lr
80005600:	95 1e       	st.w	r10[0x4],lr
80005602:	bf 58       	asr	r8,0x1f
80005604:	95 08       	st.w	r10[0x0],r8
80005606:	fe 9f fa 92 	bral	80004b2a <_vfprintf_r+0x116>
8000560a:	ed b5 00 04 	bld	r5,0x4
8000560e:	c4 80       	breq	8000569e <_vfprintf_r+0xc8a>
80005610:	e2 15 00 40 	andl	r5,0x40,COH
80005614:	c4 50       	breq	8000569e <_vfprintf_r+0xc8a>
80005616:	fa f8 06 b4 	ld.w	r8,sp[1716]
8000561a:	40 3c       	lddsp	r12,sp[0xc]
8000561c:	58 0c       	cp.w	r12,0
8000561e:	c1 d0       	breq	80005658 <_vfprintf_r+0xc44>
80005620:	10 36       	cp.w	r6,r8
80005622:	c0 64       	brge	8000562e <_vfprintf_r+0xc1a>
80005624:	fa cb f9 44 	sub	r11,sp,-1724
80005628:	f6 06 00 36 	add	r6,r11,r6<<0x3
8000562c:	c1 d8       	rjmp	80005666 <_vfprintf_r+0xc52>
8000562e:	fa c8 f9 50 	sub	r8,sp,-1712
80005632:	1a d8       	st.w	--sp,r8
80005634:	fa c8 fa b8 	sub	r8,sp,-1352
80005638:	04 9a       	mov	r10,r2
8000563a:	1a d8       	st.w	--sp,r8
8000563c:	fa c8 fb b4 	sub	r8,sp,-1100
80005640:	0c 9b       	mov	r11,r6
80005642:	1a d8       	st.w	--sp,r8
80005644:	08 9c       	mov	r12,r4
80005646:	fa c8 f9 40 	sub	r8,sp,-1728
8000564a:	fa c9 ff b4 	sub	r9,sp,-76
8000564e:	fe b0 f8 47 	rcall	800046dc <get_arg>
80005652:	2f dd       	sub	sp,-12
80005654:	78 0a       	ld.w	r10,r12[0x0]
80005656:	c2 08       	rjmp	80005696 <_vfprintf_r+0xc82>
80005658:	2f f7       	sub	r7,-1
8000565a:	10 39       	cp.w	r9,r8
8000565c:	c0 84       	brge	8000566c <_vfprintf_r+0xc58>
8000565e:	fa ca f9 44 	sub	r10,sp,-1724
80005662:	f4 06 00 36 	add	r6,r10,r6<<0x3
80005666:	ec fa fd 88 	ld.w	r10,r6[-632]
8000566a:	c1 68       	rjmp	80005696 <_vfprintf_r+0xc82>
8000566c:	41 09       	lddsp	r9,sp[0x40]
8000566e:	59 f8       	cp.w	r8,31
80005670:	e0 89 00 10 	brgt	80005690 <_vfprintf_r+0xc7c>
80005674:	f2 ca ff fc 	sub	r10,r9,-4
80005678:	51 0a       	stdsp	sp[0x40],r10
8000567a:	fa c6 f9 44 	sub	r6,sp,-1724
8000567e:	72 0a       	ld.w	r10,r9[0x0]
80005680:	ec 08 00 39 	add	r9,r6,r8<<0x3
80005684:	f3 4a fd 88 	st.w	r9[-632],r10
80005688:	2f f8       	sub	r8,-1
8000568a:	fb 48 06 b4 	st.w	sp[1716],r8
8000568e:	c0 48       	rjmp	80005696 <_vfprintf_r+0xc82>
80005690:	72 0a       	ld.w	r10,r9[0x0]
80005692:	2f c9       	sub	r9,-4
80005694:	51 09       	stdsp	sp[0x40],r9
80005696:	40 be       	lddsp	lr,sp[0x2c]
80005698:	b4 0e       	st.h	r10[0x0],lr
8000569a:	fe 9f fa 48 	bral	80004b2a <_vfprintf_r+0x116>
8000569e:	fa f8 06 b4 	ld.w	r8,sp[1716]
800056a2:	40 3c       	lddsp	r12,sp[0xc]
800056a4:	58 0c       	cp.w	r12,0
800056a6:	c1 d0       	breq	800056e0 <_vfprintf_r+0xccc>
800056a8:	10 36       	cp.w	r6,r8
800056aa:	c0 64       	brge	800056b6 <_vfprintf_r+0xca2>
800056ac:	fa cb f9 44 	sub	r11,sp,-1724
800056b0:	f6 06 00 36 	add	r6,r11,r6<<0x3
800056b4:	c1 d8       	rjmp	800056ee <_vfprintf_r+0xcda>
800056b6:	fa c8 f9 50 	sub	r8,sp,-1712
800056ba:	1a d8       	st.w	--sp,r8
800056bc:	fa c8 fa b8 	sub	r8,sp,-1352
800056c0:	04 9a       	mov	r10,r2
800056c2:	1a d8       	st.w	--sp,r8
800056c4:	fa c8 fb b4 	sub	r8,sp,-1100
800056c8:	0c 9b       	mov	r11,r6
800056ca:	1a d8       	st.w	--sp,r8
800056cc:	08 9c       	mov	r12,r4
800056ce:	fa c8 f9 40 	sub	r8,sp,-1728
800056d2:	fa c9 ff b4 	sub	r9,sp,-76
800056d6:	fe b0 f8 03 	rcall	800046dc <get_arg>
800056da:	2f dd       	sub	sp,-12
800056dc:	78 0a       	ld.w	r10,r12[0x0]
800056de:	c2 08       	rjmp	8000571e <_vfprintf_r+0xd0a>
800056e0:	2f f7       	sub	r7,-1
800056e2:	10 39       	cp.w	r9,r8
800056e4:	c0 84       	brge	800056f4 <_vfprintf_r+0xce0>
800056e6:	fa ca f9 44 	sub	r10,sp,-1724
800056ea:	f4 06 00 36 	add	r6,r10,r6<<0x3
800056ee:	ec fa fd 88 	ld.w	r10,r6[-632]
800056f2:	c1 68       	rjmp	8000571e <_vfprintf_r+0xd0a>
800056f4:	41 09       	lddsp	r9,sp[0x40]
800056f6:	59 f8       	cp.w	r8,31
800056f8:	e0 89 00 10 	brgt	80005718 <_vfprintf_r+0xd04>
800056fc:	f2 ca ff fc 	sub	r10,r9,-4
80005700:	51 0a       	stdsp	sp[0x40],r10
80005702:	fa c6 f9 44 	sub	r6,sp,-1724
80005706:	72 0a       	ld.w	r10,r9[0x0]
80005708:	ec 08 00 39 	add	r9,r6,r8<<0x3
8000570c:	f3 4a fd 88 	st.w	r9[-632],r10
80005710:	2f f8       	sub	r8,-1
80005712:	fb 48 06 b4 	st.w	sp[1716],r8
80005716:	c0 48       	rjmp	8000571e <_vfprintf_r+0xd0a>
80005718:	72 0a       	ld.w	r10,r9[0x0]
8000571a:	2f c9       	sub	r9,-4
8000571c:	51 09       	stdsp	sp[0x40],r9
8000571e:	40 be       	lddsp	lr,sp[0x2c]
80005720:	95 0e       	st.w	r10[0x0],lr
80005722:	fe 9f fa 04 	bral	80004b2a <_vfprintf_r+0x116>
80005726:	50 a7       	stdsp	sp[0x28],r7
80005728:	50 80       	stdsp	sp[0x20],r0
8000572a:	0c 97       	mov	r7,r6
8000572c:	04 94       	mov	r4,r2
8000572e:	06 96       	mov	r6,r3
80005730:	02 92       	mov	r2,r1
80005732:	40 93       	lddsp	r3,sp[0x24]
80005734:	10 90       	mov	r0,r8
80005736:	40 41       	lddsp	r1,sp[0x10]
80005738:	a5 a5       	sbr	r5,0x4
8000573a:	c0 a8       	rjmp	8000574e <_vfprintf_r+0xd3a>
8000573c:	50 a7       	stdsp	sp[0x28],r7
8000573e:	50 80       	stdsp	sp[0x20],r0
80005740:	0c 97       	mov	r7,r6
80005742:	04 94       	mov	r4,r2
80005744:	06 96       	mov	r6,r3
80005746:	02 92       	mov	r2,r1
80005748:	40 93       	lddsp	r3,sp[0x24]
8000574a:	10 90       	mov	r0,r8
8000574c:	40 41       	lddsp	r1,sp[0x10]
8000574e:	ed b5 00 05 	bld	r5,0x5
80005752:	c5 d1       	brne	8000580c <_vfprintf_r+0xdf8>
80005754:	fa f8 06 b4 	ld.w	r8,sp[1716]
80005758:	40 3c       	lddsp	r12,sp[0xc]
8000575a:	58 0c       	cp.w	r12,0
8000575c:	c2 60       	breq	800057a8 <_vfprintf_r+0xd94>
8000575e:	10 36       	cp.w	r6,r8
80005760:	c0 a4       	brge	80005774 <_vfprintf_r+0xd60>
80005762:	fa cb f9 44 	sub	r11,sp,-1724
80005766:	f6 06 00 36 	add	r6,r11,r6<<0x3
8000576a:	ec e8 fd 88 	ld.d	r8,r6[-632]
8000576e:	fa e9 00 00 	st.d	sp[0],r8
80005772:	c1 88       	rjmp	800057a2 <_vfprintf_r+0xd8e>
80005774:	fa c8 f9 50 	sub	r8,sp,-1712
80005778:	1a d8       	st.w	--sp,r8
8000577a:	fa c8 fa b8 	sub	r8,sp,-1352
8000577e:	04 9a       	mov	r10,r2
80005780:	1a d8       	st.w	--sp,r8
80005782:	0c 9b       	mov	r11,r6
80005784:	fa c8 fb b4 	sub	r8,sp,-1100
80005788:	08 9c       	mov	r12,r4
8000578a:	1a d8       	st.w	--sp,r8
8000578c:	fa c8 f9 40 	sub	r8,sp,-1728
80005790:	fa c9 ff b4 	sub	r9,sp,-76
80005794:	fe b0 f7 a4 	rcall	800046dc <get_arg>
80005798:	2f dd       	sub	sp,-12
8000579a:	f8 ea 00 00 	ld.d	r10,r12[0]
8000579e:	fa eb 00 00 	st.d	sp[0],r10
800057a2:	30 08       	mov	r8,0
800057a4:	e0 8f 03 de 	bral	80005f60 <_vfprintf_r+0x154c>
800057a8:	ee ca ff ff 	sub	r10,r7,-1
800057ac:	10 37       	cp.w	r7,r8
800057ae:	c0 b4       	brge	800057c4 <_vfprintf_r+0xdb0>
800057b0:	fa c9 f9 44 	sub	r9,sp,-1724
800057b4:	14 97       	mov	r7,r10
800057b6:	f2 06 00 36 	add	r6,r9,r6<<0x3
800057ba:	ec ea fd 88 	ld.d	r10,r6[-632]
800057be:	fa eb 00 00 	st.d	sp[0],r10
800057c2:	c1 88       	rjmp	800057f2 <_vfprintf_r+0xdde>
800057c4:	41 09       	lddsp	r9,sp[0x40]
800057c6:	59 f8       	cp.w	r8,31
800057c8:	e0 89 00 18 	brgt	800057f8 <_vfprintf_r+0xde4>
800057cc:	f2 e6 00 00 	ld.d	r6,r9[0]
800057d0:	f2 cb ff f8 	sub	r11,r9,-8
800057d4:	fa e7 00 00 	st.d	sp[0],r6
800057d8:	51 0b       	stdsp	sp[0x40],r11
800057da:	fa c6 f9 44 	sub	r6,sp,-1724
800057de:	ec 08 00 39 	add	r9,r6,r8<<0x3
800057e2:	fa e6 00 00 	ld.d	r6,sp[0]
800057e6:	f2 e7 fd 88 	st.d	r9[-632],r6
800057ea:	2f f8       	sub	r8,-1
800057ec:	14 97       	mov	r7,r10
800057ee:	fb 48 06 b4 	st.w	sp[1716],r8
800057f2:	40 38       	lddsp	r8,sp[0xc]
800057f4:	e0 8f 03 b6 	bral	80005f60 <_vfprintf_r+0x154c>
800057f8:	f2 e6 00 00 	ld.d	r6,r9[0]
800057fc:	40 38       	lddsp	r8,sp[0xc]
800057fe:	fa e7 00 00 	st.d	sp[0],r6
80005802:	2f 89       	sub	r9,-8
80005804:	14 97       	mov	r7,r10
80005806:	51 09       	stdsp	sp[0x40],r9
80005808:	e0 8f 03 ac 	bral	80005f60 <_vfprintf_r+0x154c>
8000580c:	ed b5 00 04 	bld	r5,0x4
80005810:	c1 61       	brne	8000583c <_vfprintf_r+0xe28>
80005812:	fa f8 06 b4 	ld.w	r8,sp[1716]
80005816:	40 3e       	lddsp	lr,sp[0xc]
80005818:	58 0e       	cp.w	lr,0
8000581a:	c0 80       	breq	8000582a <_vfprintf_r+0xe16>
8000581c:	10 36       	cp.w	r6,r8
8000581e:	c6 74       	brge	800058ec <_vfprintf_r+0xed8>
80005820:	fa cc f9 44 	sub	r12,sp,-1724
80005824:	f8 06 00 36 	add	r6,r12,r6<<0x3
80005828:	c8 08       	rjmp	80005928 <_vfprintf_r+0xf14>
8000582a:	ee ca ff ff 	sub	r10,r7,-1
8000582e:	10 37       	cp.w	r7,r8
80005830:	c7 f4       	brge	8000592e <_vfprintf_r+0xf1a>
80005832:	fa cb f9 44 	sub	r11,sp,-1724
80005836:	f6 06 00 36 	add	r6,r11,r6<<0x3
8000583a:	c7 68       	rjmp	80005926 <_vfprintf_r+0xf12>
8000583c:	ed b5 00 06 	bld	r5,0x6
80005840:	c4 a1       	brne	800058d4 <_vfprintf_r+0xec0>
80005842:	fa f8 06 b4 	ld.w	r8,sp[1716]
80005846:	40 3c       	lddsp	r12,sp[0xc]
80005848:	58 0c       	cp.w	r12,0
8000584a:	c1 d0       	breq	80005884 <_vfprintf_r+0xe70>
8000584c:	10 36       	cp.w	r6,r8
8000584e:	c0 64       	brge	8000585a <_vfprintf_r+0xe46>
80005850:	fa cb f9 44 	sub	r11,sp,-1724
80005854:	f6 06 00 36 	add	r6,r11,r6<<0x3
80005858:	c1 f8       	rjmp	80005896 <_vfprintf_r+0xe82>
8000585a:	fa c8 f9 50 	sub	r8,sp,-1712
8000585e:	1a d8       	st.w	--sp,r8
80005860:	fa c8 fa b8 	sub	r8,sp,-1352
80005864:	1a d8       	st.w	--sp,r8
80005866:	fa c8 fb b4 	sub	r8,sp,-1100
8000586a:	1a d8       	st.w	--sp,r8
8000586c:	fa c8 f9 40 	sub	r8,sp,-1728
80005870:	fa c9 ff b4 	sub	r9,sp,-76
80005874:	04 9a       	mov	r10,r2
80005876:	0c 9b       	mov	r11,r6
80005878:	08 9c       	mov	r12,r4
8000587a:	fe b0 f7 31 	rcall	800046dc <get_arg>
8000587e:	2f dd       	sub	sp,-12
80005880:	98 18       	ld.sh	r8,r12[0x2]
80005882:	c2 68       	rjmp	800058ce <_vfprintf_r+0xeba>
80005884:	ee ca ff ff 	sub	r10,r7,-1
80005888:	10 37       	cp.w	r7,r8
8000588a:	c0 94       	brge	8000589c <_vfprintf_r+0xe88>
8000588c:	fa c9 f9 44 	sub	r9,sp,-1724
80005890:	14 97       	mov	r7,r10
80005892:	f2 06 00 36 	add	r6,r9,r6<<0x3
80005896:	ed 08 fd 8a 	ld.sh	r8,r6[-630]
8000589a:	c1 a8       	rjmp	800058ce <_vfprintf_r+0xeba>
8000589c:	41 09       	lddsp	r9,sp[0x40]
8000589e:	59 f8       	cp.w	r8,31
800058a0:	e0 89 00 13 	brgt	800058c6 <_vfprintf_r+0xeb2>
800058a4:	f2 cb ff fc 	sub	r11,r9,-4
800058a8:	51 0b       	stdsp	sp[0x40],r11
800058aa:	72 09       	ld.w	r9,r9[0x0]
800058ac:	fa c6 f9 44 	sub	r6,sp,-1724
800058b0:	ec 08 00 3b 	add	r11,r6,r8<<0x3
800058b4:	2f f8       	sub	r8,-1
800058b6:	f7 49 fd 88 	st.w	r11[-632],r9
800058ba:	fb 48 06 b4 	st.w	sp[1716],r8
800058be:	14 97       	mov	r7,r10
800058c0:	f1 d9 b0 10 	bfexts	r8,r9,0x0,0x10
800058c4:	c0 58       	rjmp	800058ce <_vfprintf_r+0xeba>
800058c6:	92 18       	ld.sh	r8,r9[0x2]
800058c8:	14 97       	mov	r7,r10
800058ca:	2f c9       	sub	r9,-4
800058cc:	51 09       	stdsp	sp[0x40],r9
800058ce:	5c 78       	castu.h	r8
800058d0:	50 18       	stdsp	sp[0x4],r8
800058d2:	c4 68       	rjmp	8000595e <_vfprintf_r+0xf4a>
800058d4:	fa f8 06 b4 	ld.w	r8,sp[1716]
800058d8:	40 3c       	lddsp	r12,sp[0xc]
800058da:	58 0c       	cp.w	r12,0
800058dc:	c1 d0       	breq	80005916 <_vfprintf_r+0xf02>
800058de:	10 36       	cp.w	r6,r8
800058e0:	c0 64       	brge	800058ec <_vfprintf_r+0xed8>
800058e2:	fa cb f9 44 	sub	r11,sp,-1724
800058e6:	f6 06 00 36 	add	r6,r11,r6<<0x3
800058ea:	c1 f8       	rjmp	80005928 <_vfprintf_r+0xf14>
800058ec:	fa c8 f9 50 	sub	r8,sp,-1712
800058f0:	1a d8       	st.w	--sp,r8
800058f2:	fa c8 fa b8 	sub	r8,sp,-1352
800058f6:	0c 9b       	mov	r11,r6
800058f8:	1a d8       	st.w	--sp,r8
800058fa:	fa c8 fb b4 	sub	r8,sp,-1100
800058fe:	04 9a       	mov	r10,r2
80005900:	1a d8       	st.w	--sp,r8
80005902:	08 9c       	mov	r12,r4
80005904:	fa c8 f9 40 	sub	r8,sp,-1728
80005908:	fa c9 ff b4 	sub	r9,sp,-76
8000590c:	fe b0 f6 e8 	rcall	800046dc <get_arg>
80005910:	2f dd       	sub	sp,-12
80005912:	78 0b       	ld.w	r11,r12[0x0]
80005914:	c2 48       	rjmp	8000595c <_vfprintf_r+0xf48>
80005916:	ee ca ff ff 	sub	r10,r7,-1
8000591a:	10 37       	cp.w	r7,r8
8000591c:	c0 94       	brge	8000592e <_vfprintf_r+0xf1a>
8000591e:	fa c9 f9 44 	sub	r9,sp,-1724
80005922:	f2 06 00 36 	add	r6,r9,r6<<0x3
80005926:	14 97       	mov	r7,r10
80005928:	ec fb fd 88 	ld.w	r11,r6[-632]
8000592c:	c1 88       	rjmp	8000595c <_vfprintf_r+0xf48>
8000592e:	41 09       	lddsp	r9,sp[0x40]
80005930:	59 f8       	cp.w	r8,31
80005932:	e0 89 00 11 	brgt	80005954 <_vfprintf_r+0xf40>
80005936:	f2 cb ff fc 	sub	r11,r9,-4
8000593a:	51 0b       	stdsp	sp[0x40],r11
8000593c:	fa c6 f9 44 	sub	r6,sp,-1724
80005940:	72 0b       	ld.w	r11,r9[0x0]
80005942:	ec 08 00 39 	add	r9,r6,r8<<0x3
80005946:	f3 4b fd 88 	st.w	r9[-632],r11
8000594a:	2f f8       	sub	r8,-1
8000594c:	14 97       	mov	r7,r10
8000594e:	fb 48 06 b4 	st.w	sp[1716],r8
80005952:	c0 58       	rjmp	8000595c <_vfprintf_r+0xf48>
80005954:	72 0b       	ld.w	r11,r9[0x0]
80005956:	14 97       	mov	r7,r10
80005958:	2f c9       	sub	r9,-4
8000595a:	51 09       	stdsp	sp[0x40],r9
8000595c:	50 1b       	stdsp	sp[0x4],r11
8000595e:	30 0e       	mov	lr,0
80005960:	50 0e       	stdsp	sp[0x0],lr
80005962:	1c 98       	mov	r8,lr
80005964:	e0 8f 02 fe 	bral	80005f60 <_vfprintf_r+0x154c>
80005968:	50 a7       	stdsp	sp[0x28],r7
8000596a:	50 80       	stdsp	sp[0x20],r0
8000596c:	0c 97       	mov	r7,r6
8000596e:	04 94       	mov	r4,r2
80005970:	06 96       	mov	r6,r3
80005972:	02 92       	mov	r2,r1
80005974:	40 93       	lddsp	r3,sp[0x24]
80005976:	40 41       	lddsp	r1,sp[0x10]
80005978:	0e 99       	mov	r9,r7
8000597a:	fa f8 06 b4 	ld.w	r8,sp[1716]
8000597e:	40 3c       	lddsp	r12,sp[0xc]
80005980:	58 0c       	cp.w	r12,0
80005982:	c1 d0       	breq	800059bc <_vfprintf_r+0xfa8>
80005984:	10 36       	cp.w	r6,r8
80005986:	c0 64       	brge	80005992 <_vfprintf_r+0xf7e>
80005988:	fa cb f9 44 	sub	r11,sp,-1724
8000598c:	f6 06 00 36 	add	r6,r11,r6<<0x3
80005990:	c1 d8       	rjmp	800059ca <_vfprintf_r+0xfb6>
80005992:	fa c8 f9 50 	sub	r8,sp,-1712
80005996:	1a d8       	st.w	--sp,r8
80005998:	fa c8 fa b8 	sub	r8,sp,-1352
8000599c:	1a d8       	st.w	--sp,r8
8000599e:	fa c8 fb b4 	sub	r8,sp,-1100
800059a2:	1a d8       	st.w	--sp,r8
800059a4:	fa c9 ff b4 	sub	r9,sp,-76
800059a8:	fa c8 f9 40 	sub	r8,sp,-1728
800059ac:	04 9a       	mov	r10,r2
800059ae:	0c 9b       	mov	r11,r6
800059b0:	08 9c       	mov	r12,r4
800059b2:	fe b0 f6 95 	rcall	800046dc <get_arg>
800059b6:	2f dd       	sub	sp,-12
800059b8:	78 09       	ld.w	r9,r12[0x0]
800059ba:	c2 18       	rjmp	800059fc <_vfprintf_r+0xfe8>
800059bc:	2f f7       	sub	r7,-1
800059be:	10 39       	cp.w	r9,r8
800059c0:	c0 84       	brge	800059d0 <_vfprintf_r+0xfbc>
800059c2:	fa ca f9 44 	sub	r10,sp,-1724
800059c6:	f4 06 00 36 	add	r6,r10,r6<<0x3
800059ca:	ec f9 fd 88 	ld.w	r9,r6[-632]
800059ce:	c1 78       	rjmp	800059fc <_vfprintf_r+0xfe8>
800059d0:	41 09       	lddsp	r9,sp[0x40]
800059d2:	59 f8       	cp.w	r8,31
800059d4:	e0 89 00 10 	brgt	800059f4 <_vfprintf_r+0xfe0>
800059d8:	f2 ca ff fc 	sub	r10,r9,-4
800059dc:	51 0a       	stdsp	sp[0x40],r10
800059de:	fa c6 f9 44 	sub	r6,sp,-1724
800059e2:	72 09       	ld.w	r9,r9[0x0]
800059e4:	ec 08 00 3a 	add	r10,r6,r8<<0x3
800059e8:	f5 49 fd 88 	st.w	r10[-632],r9
800059ec:	2f f8       	sub	r8,-1
800059ee:	fb 48 06 b4 	st.w	sp[1716],r8
800059f2:	c0 58       	rjmp	800059fc <_vfprintf_r+0xfe8>
800059f4:	f2 c8 ff fc 	sub	r8,r9,-4
800059f8:	51 08       	stdsp	sp[0x40],r8
800059fa:	72 09       	ld.w	r9,r9[0x0]
800059fc:	33 08       	mov	r8,48
800059fe:	fb 68 06 b8 	st.b	sp[1720],r8
80005a02:	37 88       	mov	r8,120
80005a04:	30 0e       	mov	lr,0
80005a06:	fb 68 06 b9 	st.b	sp[1721],r8
80005a0a:	4c ac       	lddpc	r12,80005b30 <_vfprintf_r+0x111c>
80005a0c:	50 19       	stdsp	sp[0x4],r9
80005a0e:	a1 b5       	sbr	r5,0x1
80005a10:	50 0e       	stdsp	sp[0x0],lr
80005a12:	50 dc       	stdsp	sp[0x34],r12
80005a14:	30 28       	mov	r8,2
80005a16:	37 80       	mov	r0,120
80005a18:	e0 8f 02 a4 	bral	80005f60 <_vfprintf_r+0x154c>
80005a1c:	50 a7       	stdsp	sp[0x28],r7
80005a1e:	50 80       	stdsp	sp[0x20],r0
80005a20:	10 90       	mov	r0,r8
80005a22:	30 08       	mov	r8,0
80005a24:	fb 68 06 bb 	st.b	sp[1723],r8
80005a28:	0c 97       	mov	r7,r6
80005a2a:	04 94       	mov	r4,r2
80005a2c:	06 96       	mov	r6,r3
80005a2e:	02 92       	mov	r2,r1
80005a30:	40 93       	lddsp	r3,sp[0x24]
80005a32:	40 41       	lddsp	r1,sp[0x10]
80005a34:	0e 99       	mov	r9,r7
80005a36:	fa f8 06 b4 	ld.w	r8,sp[1716]
80005a3a:	40 3b       	lddsp	r11,sp[0xc]
80005a3c:	58 0b       	cp.w	r11,0
80005a3e:	c1 d0       	breq	80005a78 <_vfprintf_r+0x1064>
80005a40:	10 36       	cp.w	r6,r8
80005a42:	c0 64       	brge	80005a4e <_vfprintf_r+0x103a>
80005a44:	fa ca f9 44 	sub	r10,sp,-1724
80005a48:	f4 06 00 36 	add	r6,r10,r6<<0x3
80005a4c:	c1 d8       	rjmp	80005a86 <_vfprintf_r+0x1072>
80005a4e:	fa c8 f9 50 	sub	r8,sp,-1712
80005a52:	1a d8       	st.w	--sp,r8
80005a54:	fa c8 fa b8 	sub	r8,sp,-1352
80005a58:	1a d8       	st.w	--sp,r8
80005a5a:	fa c8 fb b4 	sub	r8,sp,-1100
80005a5e:	0c 9b       	mov	r11,r6
80005a60:	1a d8       	st.w	--sp,r8
80005a62:	04 9a       	mov	r10,r2
80005a64:	fa c8 f9 40 	sub	r8,sp,-1728
80005a68:	fa c9 ff b4 	sub	r9,sp,-76
80005a6c:	08 9c       	mov	r12,r4
80005a6e:	fe b0 f6 37 	rcall	800046dc <get_arg>
80005a72:	2f dd       	sub	sp,-12
80005a74:	78 06       	ld.w	r6,r12[0x0]
80005a76:	c2 08       	rjmp	80005ab6 <_vfprintf_r+0x10a2>
80005a78:	2f f7       	sub	r7,-1
80005a7a:	10 39       	cp.w	r9,r8
80005a7c:	c0 84       	brge	80005a8c <_vfprintf_r+0x1078>
80005a7e:	fa c9 f9 44 	sub	r9,sp,-1724
80005a82:	f2 06 00 36 	add	r6,r9,r6<<0x3
80005a86:	ec f6 fd 88 	ld.w	r6,r6[-632]
80005a8a:	c1 68       	rjmp	80005ab6 <_vfprintf_r+0x10a2>
80005a8c:	41 09       	lddsp	r9,sp[0x40]
80005a8e:	59 f8       	cp.w	r8,31
80005a90:	e0 89 00 10 	brgt	80005ab0 <_vfprintf_r+0x109c>
80005a94:	f2 ca ff fc 	sub	r10,r9,-4
80005a98:	51 0a       	stdsp	sp[0x40],r10
80005a9a:	72 06       	ld.w	r6,r9[0x0]
80005a9c:	fa ce f9 44 	sub	lr,sp,-1724
80005aa0:	fc 08 00 39 	add	r9,lr,r8<<0x3
80005aa4:	f3 46 fd 88 	st.w	r9[-632],r6
80005aa8:	2f f8       	sub	r8,-1
80005aaa:	fb 48 06 b4 	st.w	sp[1716],r8
80005aae:	c0 48       	rjmp	80005ab6 <_vfprintf_r+0x10a2>
80005ab0:	72 06       	ld.w	r6,r9[0x0]
80005ab2:	2f c9       	sub	r9,-4
80005ab4:	51 09       	stdsp	sp[0x40],r9
80005ab6:	40 2c       	lddsp	r12,sp[0x8]
80005ab8:	58 0c       	cp.w	r12,0
80005aba:	c1 05       	brlt	80005ada <_vfprintf_r+0x10c6>
80005abc:	18 9a       	mov	r10,r12
80005abe:	30 0b       	mov	r11,0
80005ac0:	0c 9c       	mov	r12,r6
80005ac2:	e0 a0 1f a5 	rcall	80009a0c <memchr>
80005ac6:	e0 80 02 e0 	breq	80006086 <_vfprintf_r+0x1672>
80005aca:	f8 06 01 02 	sub	r2,r12,r6
80005ace:	40 2b       	lddsp	r11,sp[0x8]
80005ad0:	16 32       	cp.w	r2,r11
80005ad2:	e0 89 02 da 	brgt	80006086 <_vfprintf_r+0x1672>
80005ad6:	e0 8f 02 d5 	bral	80006080 <_vfprintf_r+0x166c>
80005ada:	30 0a       	mov	r10,0
80005adc:	0c 9c       	mov	r12,r6
80005ade:	50 2a       	stdsp	sp[0x8],r10
80005ae0:	e0 a0 26 84 	rcall	8000a7e8 <strlen>
80005ae4:	18 92       	mov	r2,r12
80005ae6:	e0 8f 02 d3 	bral	8000608c <_vfprintf_r+0x1678>
80005aea:	50 a7       	stdsp	sp[0x28],r7
80005aec:	50 80       	stdsp	sp[0x20],r0
80005aee:	0c 97       	mov	r7,r6
80005af0:	04 94       	mov	r4,r2
80005af2:	06 96       	mov	r6,r3
80005af4:	02 92       	mov	r2,r1
80005af6:	40 93       	lddsp	r3,sp[0x24]
80005af8:	10 90       	mov	r0,r8
80005afa:	40 41       	lddsp	r1,sp[0x10]
80005afc:	a5 a5       	sbr	r5,0x4
80005afe:	c0 a8       	rjmp	80005b12 <_vfprintf_r+0x10fe>
80005b00:	50 a7       	stdsp	sp[0x28],r7
80005b02:	50 80       	stdsp	sp[0x20],r0
80005b04:	0c 97       	mov	r7,r6
80005b06:	04 94       	mov	r4,r2
80005b08:	06 96       	mov	r6,r3
80005b0a:	02 92       	mov	r2,r1
80005b0c:	40 93       	lddsp	r3,sp[0x24]
80005b0e:	10 90       	mov	r0,r8
80005b10:	40 41       	lddsp	r1,sp[0x10]
80005b12:	ed b5 00 05 	bld	r5,0x5
80005b16:	c5 71       	brne	80005bc4 <_vfprintf_r+0x11b0>
80005b18:	fa f8 06 b4 	ld.w	r8,sp[1716]
80005b1c:	40 39       	lddsp	r9,sp[0xc]
80005b1e:	58 09       	cp.w	r9,0
80005b20:	c2 20       	breq	80005b64 <_vfprintf_r+0x1150>
80005b22:	10 36       	cp.w	r6,r8
80005b24:	c0 84       	brge	80005b34 <_vfprintf_r+0x1120>
80005b26:	fa c8 f9 44 	sub	r8,sp,-1724
80005b2a:	f0 06 00 36 	add	r6,r8,r6<<0x3
80005b2e:	c2 48       	rjmp	80005b76 <_vfprintf_r+0x1162>
80005b30:	80 00       	ld.sh	r0,r0[0x0]
80005b32:	da 34       	*unknown*
80005b34:	fa c8 f9 50 	sub	r8,sp,-1712
80005b38:	1a d8       	st.w	--sp,r8
80005b3a:	fa c8 fa b8 	sub	r8,sp,-1352
80005b3e:	1a d8       	st.w	--sp,r8
80005b40:	fa c8 fb b4 	sub	r8,sp,-1100
80005b44:	1a d8       	st.w	--sp,r8
80005b46:	fa c8 f9 40 	sub	r8,sp,-1728
80005b4a:	fa c9 ff b4 	sub	r9,sp,-76
80005b4e:	04 9a       	mov	r10,r2
80005b50:	0c 9b       	mov	r11,r6
80005b52:	08 9c       	mov	r12,r4
80005b54:	fe b0 f5 c4 	rcall	800046dc <get_arg>
80005b58:	2f dd       	sub	sp,-12
80005b5a:	f8 e8 00 00 	ld.d	r8,r12[0]
80005b5e:	fa e9 00 00 	st.d	sp[0],r8
80005b62:	c2 e8       	rjmp	80005bbe <_vfprintf_r+0x11aa>
80005b64:	ee ca ff ff 	sub	r10,r7,-1
80005b68:	10 37       	cp.w	r7,r8
80005b6a:	c0 b4       	brge	80005b80 <_vfprintf_r+0x116c>
80005b6c:	fa c8 f9 44 	sub	r8,sp,-1724
80005b70:	14 97       	mov	r7,r10
80005b72:	f0 06 00 36 	add	r6,r8,r6<<0x3
80005b76:	ec ea fd 88 	ld.d	r10,r6[-632]
80005b7a:	fa eb 00 00 	st.d	sp[0],r10
80005b7e:	c2 08       	rjmp	80005bbe <_vfprintf_r+0x11aa>
80005b80:	41 09       	lddsp	r9,sp[0x40]
80005b82:	59 f8       	cp.w	r8,31
80005b84:	e0 89 00 16 	brgt	80005bb0 <_vfprintf_r+0x119c>
80005b88:	f2 e6 00 00 	ld.d	r6,r9[0]
80005b8c:	f2 cb ff f8 	sub	r11,r9,-8
80005b90:	fa e7 00 00 	st.d	sp[0],r6
80005b94:	51 0b       	stdsp	sp[0x40],r11
80005b96:	fa c6 f9 44 	sub	r6,sp,-1724
80005b9a:	ec 08 00 39 	add	r9,r6,r8<<0x3
80005b9e:	fa e6 00 00 	ld.d	r6,sp[0]
80005ba2:	f2 e7 fd 88 	st.d	r9[-632],r6
80005ba6:	2f f8       	sub	r8,-1
80005ba8:	14 97       	mov	r7,r10
80005baa:	fb 48 06 b4 	st.w	sp[1716],r8
80005bae:	c0 88       	rjmp	80005bbe <_vfprintf_r+0x11aa>
80005bb0:	f2 e6 00 00 	ld.d	r6,r9[0]
80005bb4:	2f 89       	sub	r9,-8
80005bb6:	fa e7 00 00 	st.d	sp[0],r6
80005bba:	51 09       	stdsp	sp[0x40],r9
80005bbc:	14 97       	mov	r7,r10
80005bbe:	30 18       	mov	r8,1
80005bc0:	e0 8f 01 d0 	bral	80005f60 <_vfprintf_r+0x154c>
80005bc4:	ed b5 00 04 	bld	r5,0x4
80005bc8:	c1 61       	brne	80005bf4 <_vfprintf_r+0x11e0>
80005bca:	fa f8 06 b4 	ld.w	r8,sp[1716]
80005bce:	40 3e       	lddsp	lr,sp[0xc]
80005bd0:	58 0e       	cp.w	lr,0
80005bd2:	c0 80       	breq	80005be2 <_vfprintf_r+0x11ce>
80005bd4:	10 36       	cp.w	r6,r8
80005bd6:	c6 74       	brge	80005ca4 <_vfprintf_r+0x1290>
80005bd8:	fa cc f9 44 	sub	r12,sp,-1724
80005bdc:	f8 06 00 36 	add	r6,r12,r6<<0x3
80005be0:	c8 08       	rjmp	80005ce0 <_vfprintf_r+0x12cc>
80005be2:	ee ca ff ff 	sub	r10,r7,-1
80005be6:	10 37       	cp.w	r7,r8
80005be8:	c7 f4       	brge	80005ce6 <_vfprintf_r+0x12d2>
80005bea:	fa cb f9 44 	sub	r11,sp,-1724
80005bee:	f6 06 00 36 	add	r6,r11,r6<<0x3
80005bf2:	c7 68       	rjmp	80005cde <_vfprintf_r+0x12ca>
80005bf4:	ed b5 00 06 	bld	r5,0x6
80005bf8:	c4 a1       	brne	80005c8c <_vfprintf_r+0x1278>
80005bfa:	fa f8 06 b4 	ld.w	r8,sp[1716]
80005bfe:	40 3c       	lddsp	r12,sp[0xc]
80005c00:	58 0c       	cp.w	r12,0
80005c02:	c1 d0       	breq	80005c3c <_vfprintf_r+0x1228>
80005c04:	10 36       	cp.w	r6,r8
80005c06:	c0 64       	brge	80005c12 <_vfprintf_r+0x11fe>
80005c08:	fa cb f9 44 	sub	r11,sp,-1724
80005c0c:	f6 06 00 36 	add	r6,r11,r6<<0x3
80005c10:	c1 f8       	rjmp	80005c4e <_vfprintf_r+0x123a>
80005c12:	fa c8 f9 50 	sub	r8,sp,-1712
80005c16:	1a d8       	st.w	--sp,r8
80005c18:	fa c8 fa b8 	sub	r8,sp,-1352
80005c1c:	1a d8       	st.w	--sp,r8
80005c1e:	fa c8 fb b4 	sub	r8,sp,-1100
80005c22:	1a d8       	st.w	--sp,r8
80005c24:	fa c8 f9 40 	sub	r8,sp,-1728
80005c28:	fa c9 ff b4 	sub	r9,sp,-76
80005c2c:	04 9a       	mov	r10,r2
80005c2e:	0c 9b       	mov	r11,r6
80005c30:	08 9c       	mov	r12,r4
80005c32:	fe b0 f5 55 	rcall	800046dc <get_arg>
80005c36:	2f dd       	sub	sp,-12
80005c38:	98 18       	ld.sh	r8,r12[0x2]
80005c3a:	c2 68       	rjmp	80005c86 <_vfprintf_r+0x1272>
80005c3c:	ee ca ff ff 	sub	r10,r7,-1
80005c40:	10 37       	cp.w	r7,r8
80005c42:	c0 94       	brge	80005c54 <_vfprintf_r+0x1240>
80005c44:	fa c9 f9 44 	sub	r9,sp,-1724
80005c48:	14 97       	mov	r7,r10
80005c4a:	f2 06 00 36 	add	r6,r9,r6<<0x3
80005c4e:	ed 08 fd 8a 	ld.sh	r8,r6[-630]
80005c52:	c1 a8       	rjmp	80005c86 <_vfprintf_r+0x1272>
80005c54:	41 09       	lddsp	r9,sp[0x40]
80005c56:	59 f8       	cp.w	r8,31
80005c58:	e0 89 00 13 	brgt	80005c7e <_vfprintf_r+0x126a>
80005c5c:	f2 cb ff fc 	sub	r11,r9,-4
80005c60:	51 0b       	stdsp	sp[0x40],r11
80005c62:	72 09       	ld.w	r9,r9[0x0]
80005c64:	fa c6 f9 44 	sub	r6,sp,-1724
80005c68:	ec 08 00 3b 	add	r11,r6,r8<<0x3
80005c6c:	2f f8       	sub	r8,-1
80005c6e:	f7 49 fd 88 	st.w	r11[-632],r9
80005c72:	fb 48 06 b4 	st.w	sp[1716],r8
80005c76:	14 97       	mov	r7,r10
80005c78:	f1 d9 b0 10 	bfexts	r8,r9,0x0,0x10
80005c7c:	c0 58       	rjmp	80005c86 <_vfprintf_r+0x1272>
80005c7e:	92 18       	ld.sh	r8,r9[0x2]
80005c80:	14 97       	mov	r7,r10
80005c82:	2f c9       	sub	r9,-4
80005c84:	51 09       	stdsp	sp[0x40],r9
80005c86:	5c 78       	castu.h	r8
80005c88:	50 18       	stdsp	sp[0x4],r8
80005c8a:	c4 68       	rjmp	80005d16 <_vfprintf_r+0x1302>
80005c8c:	fa f8 06 b4 	ld.w	r8,sp[1716]
80005c90:	40 3c       	lddsp	r12,sp[0xc]
80005c92:	58 0c       	cp.w	r12,0
80005c94:	c1 d0       	breq	80005cce <_vfprintf_r+0x12ba>
80005c96:	10 36       	cp.w	r6,r8
80005c98:	c0 64       	brge	80005ca4 <_vfprintf_r+0x1290>
80005c9a:	fa cb f9 44 	sub	r11,sp,-1724
80005c9e:	f6 06 00 36 	add	r6,r11,r6<<0x3
80005ca2:	c1 f8       	rjmp	80005ce0 <_vfprintf_r+0x12cc>
80005ca4:	fa c8 f9 50 	sub	r8,sp,-1712
80005ca8:	1a d8       	st.w	--sp,r8
80005caa:	fa c8 fa b8 	sub	r8,sp,-1352
80005cae:	0c 9b       	mov	r11,r6
80005cb0:	1a d8       	st.w	--sp,r8
80005cb2:	fa c8 fb b4 	sub	r8,sp,-1100
80005cb6:	04 9a       	mov	r10,r2
80005cb8:	1a d8       	st.w	--sp,r8
80005cba:	08 9c       	mov	r12,r4
80005cbc:	fa c8 f9 40 	sub	r8,sp,-1728
80005cc0:	fa c9 ff b4 	sub	r9,sp,-76
80005cc4:	fe b0 f5 0c 	rcall	800046dc <get_arg>
80005cc8:	2f dd       	sub	sp,-12
80005cca:	78 0b       	ld.w	r11,r12[0x0]
80005ccc:	c2 48       	rjmp	80005d14 <_vfprintf_r+0x1300>
80005cce:	ee ca ff ff 	sub	r10,r7,-1
80005cd2:	10 37       	cp.w	r7,r8
80005cd4:	c0 94       	brge	80005ce6 <_vfprintf_r+0x12d2>
80005cd6:	fa c9 f9 44 	sub	r9,sp,-1724
80005cda:	f2 06 00 36 	add	r6,r9,r6<<0x3
80005cde:	14 97       	mov	r7,r10
80005ce0:	ec fb fd 88 	ld.w	r11,r6[-632]
80005ce4:	c1 88       	rjmp	80005d14 <_vfprintf_r+0x1300>
80005ce6:	41 09       	lddsp	r9,sp[0x40]
80005ce8:	59 f8       	cp.w	r8,31
80005cea:	e0 89 00 11 	brgt	80005d0c <_vfprintf_r+0x12f8>
80005cee:	f2 cb ff fc 	sub	r11,r9,-4
80005cf2:	51 0b       	stdsp	sp[0x40],r11
80005cf4:	fa c6 f9 44 	sub	r6,sp,-1724
80005cf8:	72 0b       	ld.w	r11,r9[0x0]
80005cfa:	ec 08 00 39 	add	r9,r6,r8<<0x3
80005cfe:	f3 4b fd 88 	st.w	r9[-632],r11
80005d02:	2f f8       	sub	r8,-1
80005d04:	14 97       	mov	r7,r10
80005d06:	fb 48 06 b4 	st.w	sp[1716],r8
80005d0a:	c0 58       	rjmp	80005d14 <_vfprintf_r+0x1300>
80005d0c:	72 0b       	ld.w	r11,r9[0x0]
80005d0e:	14 97       	mov	r7,r10
80005d10:	2f c9       	sub	r9,-4
80005d12:	51 09       	stdsp	sp[0x40],r9
80005d14:	50 1b       	stdsp	sp[0x4],r11
80005d16:	30 0e       	mov	lr,0
80005d18:	30 18       	mov	r8,1
80005d1a:	50 0e       	stdsp	sp[0x0],lr
80005d1c:	c2 29       	rjmp	80005f60 <_vfprintf_r+0x154c>
80005d1e:	50 a7       	stdsp	sp[0x28],r7
80005d20:	50 80       	stdsp	sp[0x20],r0
80005d22:	0c 97       	mov	r7,r6
80005d24:	04 94       	mov	r4,r2
80005d26:	06 96       	mov	r6,r3
80005d28:	02 92       	mov	r2,r1
80005d2a:	fe cc 82 f6 	sub	r12,pc,-32010
80005d2e:	40 93       	lddsp	r3,sp[0x24]
80005d30:	10 90       	mov	r0,r8
80005d32:	40 41       	lddsp	r1,sp[0x10]
80005d34:	50 dc       	stdsp	sp[0x34],r12
80005d36:	ed b5 00 05 	bld	r5,0x5
80005d3a:	c5 51       	brne	80005de4 <_vfprintf_r+0x13d0>
80005d3c:	fa f8 06 b4 	ld.w	r8,sp[1716]
80005d40:	40 3b       	lddsp	r11,sp[0xc]
80005d42:	58 0b       	cp.w	r11,0
80005d44:	c2 20       	breq	80005d88 <_vfprintf_r+0x1374>
80005d46:	10 36       	cp.w	r6,r8
80005d48:	c0 a4       	brge	80005d5c <_vfprintf_r+0x1348>
80005d4a:	fa ca f9 44 	sub	r10,sp,-1724
80005d4e:	f4 06 00 36 	add	r6,r10,r6<<0x3
80005d52:	ec e8 fd 88 	ld.d	r8,r6[-632]
80005d56:	fa e9 00 00 	st.d	sp[0],r8
80005d5a:	cf 28       	rjmp	80005f3e <_vfprintf_r+0x152a>
80005d5c:	fa c8 f9 50 	sub	r8,sp,-1712
80005d60:	1a d8       	st.w	--sp,r8
80005d62:	fa c8 fa b8 	sub	r8,sp,-1352
80005d66:	04 9a       	mov	r10,r2
80005d68:	1a d8       	st.w	--sp,r8
80005d6a:	0c 9b       	mov	r11,r6
80005d6c:	fa c8 fb b4 	sub	r8,sp,-1100
80005d70:	08 9c       	mov	r12,r4
80005d72:	1a d8       	st.w	--sp,r8
80005d74:	fa c8 f9 40 	sub	r8,sp,-1728
80005d78:	fa c9 ff b4 	sub	r9,sp,-76
80005d7c:	fe b0 f4 b0 	rcall	800046dc <get_arg>
80005d80:	2f dd       	sub	sp,-12
80005d82:	f8 ea 00 00 	ld.d	r10,r12[0]
80005d86:	c0 c8       	rjmp	80005d9e <_vfprintf_r+0x138a>
80005d88:	ee ca ff ff 	sub	r10,r7,-1
80005d8c:	10 37       	cp.w	r7,r8
80005d8e:	c0 b4       	brge	80005da4 <_vfprintf_r+0x1390>
80005d90:	fa c9 f9 44 	sub	r9,sp,-1724
80005d94:	14 97       	mov	r7,r10
80005d96:	f2 06 00 36 	add	r6,r9,r6<<0x3
80005d9a:	ec ea fd 88 	ld.d	r10,r6[-632]
80005d9e:	fa eb 00 00 	st.d	sp[0],r10
80005da2:	cc e8       	rjmp	80005f3e <_vfprintf_r+0x152a>
80005da4:	41 09       	lddsp	r9,sp[0x40]
80005da6:	59 f8       	cp.w	r8,31
80005da8:	e0 89 00 16 	brgt	80005dd4 <_vfprintf_r+0x13c0>
80005dac:	f2 e6 00 00 	ld.d	r6,r9[0]
80005db0:	f2 cb ff f8 	sub	r11,r9,-8
80005db4:	fa e7 00 00 	st.d	sp[0],r6
80005db8:	51 0b       	stdsp	sp[0x40],r11
80005dba:	fa c6 f9 44 	sub	r6,sp,-1724
80005dbe:	ec 08 00 39 	add	r9,r6,r8<<0x3
80005dc2:	fa e6 00 00 	ld.d	r6,sp[0]
80005dc6:	f2 e7 fd 88 	st.d	r9[-632],r6
80005dca:	2f f8       	sub	r8,-1
80005dcc:	14 97       	mov	r7,r10
80005dce:	fb 48 06 b4 	st.w	sp[1716],r8
80005dd2:	cb 68       	rjmp	80005f3e <_vfprintf_r+0x152a>
80005dd4:	f2 e6 00 00 	ld.d	r6,r9[0]
80005dd8:	2f 89       	sub	r9,-8
80005dda:	fa e7 00 00 	st.d	sp[0],r6
80005dde:	51 09       	stdsp	sp[0x40],r9
80005de0:	14 97       	mov	r7,r10
80005de2:	ca e8       	rjmp	80005f3e <_vfprintf_r+0x152a>
80005de4:	ed b5 00 04 	bld	r5,0x4
80005de8:	c1 71       	brne	80005e16 <_vfprintf_r+0x1402>
80005dea:	fa f8 06 b4 	ld.w	r8,sp[1716]
80005dee:	40 3e       	lddsp	lr,sp[0xc]
80005df0:	58 0e       	cp.w	lr,0
80005df2:	c0 80       	breq	80005e02 <_vfprintf_r+0x13ee>
80005df4:	10 36       	cp.w	r6,r8
80005df6:	c6 94       	brge	80005ec8 <_vfprintf_r+0x14b4>
80005df8:	fa cc f9 44 	sub	r12,sp,-1724
80005dfc:	f8 06 00 36 	add	r6,r12,r6<<0x3
80005e00:	c8 28       	rjmp	80005f04 <_vfprintf_r+0x14f0>
80005e02:	ee ca ff ff 	sub	r10,r7,-1
80005e06:	10 37       	cp.w	r7,r8
80005e08:	e0 84 00 81 	brge	80005f0a <_vfprintf_r+0x14f6>
80005e0c:	fa cb f9 44 	sub	r11,sp,-1724
80005e10:	f6 06 00 36 	add	r6,r11,r6<<0x3
80005e14:	c7 78       	rjmp	80005f02 <_vfprintf_r+0x14ee>
80005e16:	ed b5 00 06 	bld	r5,0x6
80005e1a:	c4 b1       	brne	80005eb0 <_vfprintf_r+0x149c>
80005e1c:	fa f8 06 b4 	ld.w	r8,sp[1716]
80005e20:	40 3c       	lddsp	r12,sp[0xc]
80005e22:	58 0c       	cp.w	r12,0
80005e24:	c1 d0       	breq	80005e5e <_vfprintf_r+0x144a>
80005e26:	10 36       	cp.w	r6,r8
80005e28:	c0 64       	brge	80005e34 <_vfprintf_r+0x1420>
80005e2a:	fa cb f9 44 	sub	r11,sp,-1724
80005e2e:	f6 06 00 36 	add	r6,r11,r6<<0x3
80005e32:	c1 f8       	rjmp	80005e70 <_vfprintf_r+0x145c>
80005e34:	fa c8 f9 50 	sub	r8,sp,-1712
80005e38:	1a d8       	st.w	--sp,r8
80005e3a:	fa c8 fa b8 	sub	r8,sp,-1352
80005e3e:	1a d8       	st.w	--sp,r8
80005e40:	fa c8 fb b4 	sub	r8,sp,-1100
80005e44:	1a d8       	st.w	--sp,r8
80005e46:	fa c8 f9 40 	sub	r8,sp,-1728
80005e4a:	fa c9 ff b4 	sub	r9,sp,-76
80005e4e:	04 9a       	mov	r10,r2
80005e50:	0c 9b       	mov	r11,r6
80005e52:	08 9c       	mov	r12,r4
80005e54:	fe b0 f4 44 	rcall	800046dc <get_arg>
80005e58:	2f dd       	sub	sp,-12
80005e5a:	98 18       	ld.sh	r8,r12[0x2]
80005e5c:	c2 78       	rjmp	80005eaa <_vfprintf_r+0x1496>
80005e5e:	ee ca ff ff 	sub	r10,r7,-1
80005e62:	10 37       	cp.w	r7,r8
80005e64:	c0 a4       	brge	80005e78 <_vfprintf_r+0x1464>
80005e66:	fa c9 f9 44 	sub	r9,sp,-1724
80005e6a:	14 97       	mov	r7,r10
80005e6c:	f2 06 00 36 	add	r6,r9,r6<<0x3
80005e70:	ed 08 fd 8a 	ld.sh	r8,r6[-630]
80005e74:	c1 b8       	rjmp	80005eaa <_vfprintf_r+0x1496>
80005e76:	d7 03       	nop
80005e78:	41 09       	lddsp	r9,sp[0x40]
80005e7a:	59 f8       	cp.w	r8,31
80005e7c:	e0 89 00 13 	brgt	80005ea2 <_vfprintf_r+0x148e>
80005e80:	f2 cb ff fc 	sub	r11,r9,-4
80005e84:	51 0b       	stdsp	sp[0x40],r11
80005e86:	72 09       	ld.w	r9,r9[0x0]
80005e88:	fa c6 f9 44 	sub	r6,sp,-1724
80005e8c:	ec 08 00 3b 	add	r11,r6,r8<<0x3
80005e90:	2f f8       	sub	r8,-1
80005e92:	f7 49 fd 88 	st.w	r11[-632],r9
80005e96:	fb 48 06 b4 	st.w	sp[1716],r8
80005e9a:	14 97       	mov	r7,r10
80005e9c:	f1 d9 b0 10 	bfexts	r8,r9,0x0,0x10
80005ea0:	c0 58       	rjmp	80005eaa <_vfprintf_r+0x1496>
80005ea2:	92 18       	ld.sh	r8,r9[0x2]
80005ea4:	14 97       	mov	r7,r10
80005ea6:	2f c9       	sub	r9,-4
80005ea8:	51 09       	stdsp	sp[0x40],r9
80005eaa:	5c 78       	castu.h	r8
80005eac:	50 18       	stdsp	sp[0x4],r8
80005eae:	c4 68       	rjmp	80005f3a <_vfprintf_r+0x1526>
80005eb0:	fa f8 06 b4 	ld.w	r8,sp[1716]
80005eb4:	40 3c       	lddsp	r12,sp[0xc]
80005eb6:	58 0c       	cp.w	r12,0
80005eb8:	c1 d0       	breq	80005ef2 <_vfprintf_r+0x14de>
80005eba:	10 36       	cp.w	r6,r8
80005ebc:	c0 64       	brge	80005ec8 <_vfprintf_r+0x14b4>
80005ebe:	fa cb f9 44 	sub	r11,sp,-1724
80005ec2:	f6 06 00 36 	add	r6,r11,r6<<0x3
80005ec6:	c1 f8       	rjmp	80005f04 <_vfprintf_r+0x14f0>
80005ec8:	fa c8 f9 50 	sub	r8,sp,-1712
80005ecc:	1a d8       	st.w	--sp,r8
80005ece:	fa c8 fa b8 	sub	r8,sp,-1352
80005ed2:	0c 9b       	mov	r11,r6
80005ed4:	1a d8       	st.w	--sp,r8
80005ed6:	fa c8 fb b4 	sub	r8,sp,-1100
80005eda:	04 9a       	mov	r10,r2
80005edc:	1a d8       	st.w	--sp,r8
80005ede:	08 9c       	mov	r12,r4
80005ee0:	fa c8 f9 40 	sub	r8,sp,-1728
80005ee4:	fa c9 ff b4 	sub	r9,sp,-76
80005ee8:	fe b0 f3 fa 	rcall	800046dc <get_arg>
80005eec:	2f dd       	sub	sp,-12
80005eee:	78 0b       	ld.w	r11,r12[0x0]
80005ef0:	c2 48       	rjmp	80005f38 <_vfprintf_r+0x1524>
80005ef2:	ee ca ff ff 	sub	r10,r7,-1
80005ef6:	10 37       	cp.w	r7,r8
80005ef8:	c0 94       	brge	80005f0a <_vfprintf_r+0x14f6>
80005efa:	fa c9 f9 44 	sub	r9,sp,-1724
80005efe:	f2 06 00 36 	add	r6,r9,r6<<0x3
80005f02:	14 97       	mov	r7,r10
80005f04:	ec fb fd 88 	ld.w	r11,r6[-632]
80005f08:	c1 88       	rjmp	80005f38 <_vfprintf_r+0x1524>
80005f0a:	41 09       	lddsp	r9,sp[0x40]
80005f0c:	59 f8       	cp.w	r8,31
80005f0e:	e0 89 00 11 	brgt	80005f30 <_vfprintf_r+0x151c>
80005f12:	f2 cb ff fc 	sub	r11,r9,-4
80005f16:	51 0b       	stdsp	sp[0x40],r11
80005f18:	fa c6 f9 44 	sub	r6,sp,-1724
80005f1c:	72 0b       	ld.w	r11,r9[0x0]
80005f1e:	ec 08 00 39 	add	r9,r6,r8<<0x3
80005f22:	f3 4b fd 88 	st.w	r9[-632],r11
80005f26:	2f f8       	sub	r8,-1
80005f28:	14 97       	mov	r7,r10
80005f2a:	fb 48 06 b4 	st.w	sp[1716],r8
80005f2e:	c0 58       	rjmp	80005f38 <_vfprintf_r+0x1524>
80005f30:	72 0b       	ld.w	r11,r9[0x0]
80005f32:	14 97       	mov	r7,r10
80005f34:	2f c9       	sub	r9,-4
80005f36:	51 09       	stdsp	sp[0x40],r9
80005f38:	50 1b       	stdsp	sp[0x4],r11
80005f3a:	30 0e       	mov	lr,0
80005f3c:	50 0e       	stdsp	sp[0x0],lr
80005f3e:	40 08       	lddsp	r8,sp[0x0]
80005f40:	40 1c       	lddsp	r12,sp[0x4]
80005f42:	18 48       	or	r8,r12
80005f44:	5f 19       	srne	r9
80005f46:	0a 98       	mov	r8,r5
80005f48:	eb e9 00 09 	and	r9,r5,r9
80005f4c:	a1 b8       	sbr	r8,0x1
80005f4e:	58 09       	cp.w	r9,0
80005f50:	c0 70       	breq	80005f5e <_vfprintf_r+0x154a>
80005f52:	10 95       	mov	r5,r8
80005f54:	fb 60 06 b9 	st.b	sp[1721],r0
80005f58:	33 08       	mov	r8,48
80005f5a:	fb 68 06 b8 	st.b	sp[1720],r8
80005f5e:	30 28       	mov	r8,2
80005f60:	30 09       	mov	r9,0
80005f62:	fb 69 06 bb 	st.b	sp[1723],r9
80005f66:	0a 99       	mov	r9,r5
80005f68:	a7 d9       	cbr	r9,0x7
80005f6a:	40 2b       	lddsp	r11,sp[0x8]
80005f6c:	40 16       	lddsp	r6,sp[0x4]
80005f6e:	58 0b       	cp.w	r11,0
80005f70:	5f 1a       	srne	r10
80005f72:	f2 05 17 40 	movge	r5,r9
80005f76:	fa c2 f9 78 	sub	r2,sp,-1672
80005f7a:	40 09       	lddsp	r9,sp[0x0]
80005f7c:	0c 49       	or	r9,r6
80005f7e:	5f 19       	srne	r9
80005f80:	f5 e9 10 09 	or	r9,r10,r9
80005f84:	c5 c0       	breq	8000603c <_vfprintf_r+0x1628>
80005f86:	30 19       	mov	r9,1
80005f88:	f2 08 18 00 	cp.b	r8,r9
80005f8c:	c0 60       	breq	80005f98 <_vfprintf_r+0x1584>
80005f8e:	30 29       	mov	r9,2
80005f90:	f2 08 18 00 	cp.b	r8,r9
80005f94:	c0 41       	brne	80005f9c <_vfprintf_r+0x1588>
80005f96:	c3 c8       	rjmp	8000600e <_vfprintf_r+0x15fa>
80005f98:	04 96       	mov	r6,r2
80005f9a:	c3 08       	rjmp	80005ffa <_vfprintf_r+0x15e6>
80005f9c:	04 96       	mov	r6,r2
80005f9e:	fa e8 00 00 	ld.d	r8,sp[0]
80005fa2:	f5 d8 c0 03 	bfextu	r10,r8,0x0,0x3
80005fa6:	2d 0a       	sub	r10,-48
80005fa8:	0c fa       	st.b	--r6,r10
80005faa:	f0 0b 16 03 	lsr	r11,r8,0x3
80005fae:	f2 0c 16 03 	lsr	r12,r9,0x3
80005fb2:	f7 e9 11 db 	or	r11,r11,r9<<0x1d
80005fb6:	18 99       	mov	r9,r12
80005fb8:	16 98       	mov	r8,r11
80005fba:	58 08       	cp.w	r8,0
80005fbc:	5c 29       	cpc	r9
80005fbe:	cf 21       	brne	80005fa2 <_vfprintf_r+0x158e>
80005fc0:	fa e9 00 00 	st.d	sp[0],r8
80005fc4:	ed b5 00 00 	bld	r5,0x0
80005fc8:	c4 51       	brne	80006052 <_vfprintf_r+0x163e>
80005fca:	33 09       	mov	r9,48
80005fcc:	f2 0a 18 00 	cp.b	r10,r9
80005fd0:	c4 10       	breq	80006052 <_vfprintf_r+0x163e>
80005fd2:	0c f9       	st.b	--r6,r9
80005fd4:	c3 f8       	rjmp	80006052 <_vfprintf_r+0x163e>
80005fd6:	fa ea 00 00 	ld.d	r10,sp[0]
80005fda:	30 a8       	mov	r8,10
80005fdc:	30 09       	mov	r9,0
80005fde:	e0 a0 38 6e 	rcall	8000d0ba <__avr32_umod64>
80005fe2:	30 a8       	mov	r8,10
80005fe4:	2d 0a       	sub	r10,-48
80005fe6:	30 09       	mov	r9,0
80005fe8:	ac 8a       	st.b	r6[0x0],r10
80005fea:	fa ea 00 00 	ld.d	r10,sp[0]
80005fee:	e0 a0 37 34 	rcall	8000ce56 <__avr32_udiv64>
80005ff2:	16 99       	mov	r9,r11
80005ff4:	14 98       	mov	r8,r10
80005ff6:	fa e9 00 00 	st.d	sp[0],r8
80005ffa:	20 16       	sub	r6,1
80005ffc:	fa ea 00 00 	ld.d	r10,sp[0]
80006000:	58 9a       	cp.w	r10,9
80006002:	5c 2b       	cpc	r11
80006004:	fe 9b ff e9 	brhi	80005fd6 <_vfprintf_r+0x15c2>
80006008:	1b f8       	ld.ub	r8,sp[0x7]
8000600a:	2d 08       	sub	r8,-48
8000600c:	c2 08       	rjmp	8000604c <_vfprintf_r+0x1638>
8000600e:	04 96       	mov	r6,r2
80006010:	fa e8 00 00 	ld.d	r8,sp[0]
80006014:	f5 d8 c0 04 	bfextu	r10,r8,0x0,0x4
80006018:	40 de       	lddsp	lr,sp[0x34]
8000601a:	fc 0a 07 0a 	ld.ub	r10,lr[r10]
8000601e:	0c fa       	st.b	--r6,r10
80006020:	f2 0b 16 04 	lsr	r11,r9,0x4
80006024:	f0 0a 16 04 	lsr	r10,r8,0x4
80006028:	f5 e9 11 ca 	or	r10,r10,r9<<0x1c
8000602c:	16 99       	mov	r9,r11
8000602e:	14 98       	mov	r8,r10
80006030:	58 08       	cp.w	r8,0
80006032:	5c 29       	cpc	r9
80006034:	cf 01       	brne	80006014 <_vfprintf_r+0x1600>
80006036:	fa e9 00 00 	st.d	sp[0],r8
8000603a:	c0 c8       	rjmp	80006052 <_vfprintf_r+0x163e>
8000603c:	58 08       	cp.w	r8,0
8000603e:	c0 91       	brne	80006050 <_vfprintf_r+0x163c>
80006040:	ed b5 00 00 	bld	r5,0x0
80006044:	c0 61       	brne	80006050 <_vfprintf_r+0x163c>
80006046:	fa c6 f9 79 	sub	r6,sp,-1671
8000604a:	33 08       	mov	r8,48
8000604c:	ac 88       	st.b	r6[0x0],r8
8000604e:	c0 28       	rjmp	80006052 <_vfprintf_r+0x163e>
80006050:	04 96       	mov	r6,r2
80006052:	0c 12       	sub	r2,r6
80006054:	c1 c8       	rjmp	8000608c <_vfprintf_r+0x1678>
80006056:	50 a7       	stdsp	sp[0x28],r7
80006058:	50 80       	stdsp	sp[0x20],r0
8000605a:	40 93       	lddsp	r3,sp[0x24]
8000605c:	0c 97       	mov	r7,r6
8000605e:	10 90       	mov	r0,r8
80006060:	04 94       	mov	r4,r2
80006062:	40 41       	lddsp	r1,sp[0x10]
80006064:	58 08       	cp.w	r8,0
80006066:	e0 80 04 4f 	breq	80006904 <_vfprintf_r+0x1ef0>
8000606a:	fb 68 06 60 	st.b	sp[1632],r8
8000606e:	30 0c       	mov	r12,0
80006070:	30 08       	mov	r8,0
80006072:	30 12       	mov	r2,1
80006074:	fb 68 06 bb 	st.b	sp[1723],r8
80006078:	50 2c       	stdsp	sp[0x8],r12
8000607a:	fa c6 f9 a0 	sub	r6,sp,-1632
8000607e:	c0 78       	rjmp	8000608c <_vfprintf_r+0x1678>
80006080:	30 0b       	mov	r11,0
80006082:	50 2b       	stdsp	sp[0x8],r11
80006084:	c0 48       	rjmp	8000608c <_vfprintf_r+0x1678>
80006086:	40 22       	lddsp	r2,sp[0x8]
80006088:	30 0a       	mov	r10,0
8000608a:	50 2a       	stdsp	sp[0x8],r10
8000608c:	40 29       	lddsp	r9,sp[0x8]
8000608e:	e4 09 0c 49 	max	r9,r2,r9
80006092:	fb 38 06 bb 	ld.ub	r8,sp[1723]
80006096:	50 39       	stdsp	sp[0xc],r9
80006098:	0a 9e       	mov	lr,r5
8000609a:	30 09       	mov	r9,0
8000609c:	e2 1e 00 02 	andl	lr,0x2,COH
800060a0:	f2 08 18 00 	cp.b	r8,r9
800060a4:	fb f8 10 03 	ld.wne	r8,sp[0xc]
800060a8:	f7 b8 01 ff 	subne	r8,-1
800060ac:	fb f8 1a 03 	st.wne	sp[0xc],r8
800060b0:	0a 9b       	mov	r11,r5
800060b2:	58 0e       	cp.w	lr,0
800060b4:	fb fc 10 03 	ld.wne	r12,sp[0xc]
800060b8:	f7 bc 01 fe 	subne	r12,-2
800060bc:	fb fc 1a 03 	st.wne	sp[0xc],r12
800060c0:	e2 1b 00 84 	andl	r11,0x84,COH
800060c4:	50 fe       	stdsp	sp[0x3c],lr
800060c6:	50 9b       	stdsp	sp[0x24],r11
800060c8:	c4 71       	brne	80006156 <_vfprintf_r+0x1742>
800060ca:	40 8a       	lddsp	r10,sp[0x20]
800060cc:	40 39       	lddsp	r9,sp[0xc]
800060ce:	12 1a       	sub	r10,r9
800060d0:	50 4a       	stdsp	sp[0x10],r10
800060d2:	58 0a       	cp.w	r10,0
800060d4:	e0 89 00 20 	brgt	80006114 <_vfprintf_r+0x1700>
800060d8:	c3 f8       	rjmp	80006156 <_vfprintf_r+0x1742>
800060da:	2f 09       	sub	r9,-16
800060dc:	2f f8       	sub	r8,-1
800060de:	fe ce 86 92 	sub	lr,pc,-31086
800060e2:	31 0c       	mov	r12,16
800060e4:	fb 49 06 90 	st.w	sp[1680],r9
800060e8:	87 0e       	st.w	r3[0x0],lr
800060ea:	87 1c       	st.w	r3[0x4],r12
800060ec:	fb 48 06 8c 	st.w	sp[1676],r8
800060f0:	58 78       	cp.w	r8,7
800060f2:	e0 89 00 04 	brgt	800060fa <_vfprintf_r+0x16e6>
800060f6:	2f 83       	sub	r3,-8
800060f8:	c0 b8       	rjmp	8000610e <_vfprintf_r+0x16fa>
800060fa:	fa ca f9 78 	sub	r10,sp,-1672
800060fe:	02 9b       	mov	r11,r1
80006100:	08 9c       	mov	r12,r4
80006102:	fe b0 f4 7b 	rcall	800049f8 <__sprint_r>
80006106:	e0 81 04 10 	brne	80006926 <_vfprintf_r+0x1f12>
8000610a:	fa c3 f9 e0 	sub	r3,sp,-1568
8000610e:	40 4b       	lddsp	r11,sp[0x10]
80006110:	21 0b       	sub	r11,16
80006112:	50 4b       	stdsp	sp[0x10],r11
80006114:	fa f9 06 90 	ld.w	r9,sp[1680]
80006118:	fa f8 06 8c 	ld.w	r8,sp[1676]
8000611c:	fe ca 86 d0 	sub	r10,pc,-31024
80006120:	40 4e       	lddsp	lr,sp[0x10]
80006122:	59 0e       	cp.w	lr,16
80006124:	fe 99 ff db 	brgt	800060da <_vfprintf_r+0x16c6>
80006128:	1c 09       	add	r9,lr
8000612a:	2f f8       	sub	r8,-1
8000612c:	87 0a       	st.w	r3[0x0],r10
8000612e:	fb 49 06 90 	st.w	sp[1680],r9
80006132:	87 1e       	st.w	r3[0x4],lr
80006134:	fb 48 06 8c 	st.w	sp[1676],r8
80006138:	58 78       	cp.w	r8,7
8000613a:	e0 89 00 04 	brgt	80006142 <_vfprintf_r+0x172e>
8000613e:	2f 83       	sub	r3,-8
80006140:	c0 b8       	rjmp	80006156 <_vfprintf_r+0x1742>
80006142:	fa ca f9 78 	sub	r10,sp,-1672
80006146:	02 9b       	mov	r11,r1
80006148:	08 9c       	mov	r12,r4
8000614a:	fe b0 f4 57 	rcall	800049f8 <__sprint_r>
8000614e:	e0 81 03 ec 	brne	80006926 <_vfprintf_r+0x1f12>
80006152:	fa c3 f9 e0 	sub	r3,sp,-1568
80006156:	30 09       	mov	r9,0
80006158:	fb 38 06 bb 	ld.ub	r8,sp[1723]
8000615c:	f2 08 18 00 	cp.b	r8,r9
80006160:	c1 f0       	breq	8000619e <_vfprintf_r+0x178a>
80006162:	fa f8 06 90 	ld.w	r8,sp[1680]
80006166:	fa c9 f9 45 	sub	r9,sp,-1723
8000616a:	2f f8       	sub	r8,-1
8000616c:	87 09       	st.w	r3[0x0],r9
8000616e:	fb 48 06 90 	st.w	sp[1680],r8
80006172:	30 19       	mov	r9,1
80006174:	fa f8 06 8c 	ld.w	r8,sp[1676]
80006178:	87 19       	st.w	r3[0x4],r9
8000617a:	2f f8       	sub	r8,-1
8000617c:	fb 48 06 8c 	st.w	sp[1676],r8
80006180:	58 78       	cp.w	r8,7
80006182:	e0 89 00 04 	brgt	8000618a <_vfprintf_r+0x1776>
80006186:	2f 83       	sub	r3,-8
80006188:	c0 b8       	rjmp	8000619e <_vfprintf_r+0x178a>
8000618a:	fa ca f9 78 	sub	r10,sp,-1672
8000618e:	02 9b       	mov	r11,r1
80006190:	08 9c       	mov	r12,r4
80006192:	fe b0 f4 33 	rcall	800049f8 <__sprint_r>
80006196:	e0 81 03 c8 	brne	80006926 <_vfprintf_r+0x1f12>
8000619a:	fa c3 f9 e0 	sub	r3,sp,-1568
8000619e:	40 fc       	lddsp	r12,sp[0x3c]
800061a0:	58 0c       	cp.w	r12,0
800061a2:	c1 f0       	breq	800061e0 <_vfprintf_r+0x17cc>
800061a4:	fa f8 06 90 	ld.w	r8,sp[1680]
800061a8:	fa c9 f9 48 	sub	r9,sp,-1720
800061ac:	2f e8       	sub	r8,-2
800061ae:	87 09       	st.w	r3[0x0],r9
800061b0:	fb 48 06 90 	st.w	sp[1680],r8
800061b4:	30 29       	mov	r9,2
800061b6:	fa f8 06 8c 	ld.w	r8,sp[1676]
800061ba:	87 19       	st.w	r3[0x4],r9
800061bc:	2f f8       	sub	r8,-1
800061be:	fb 48 06 8c 	st.w	sp[1676],r8
800061c2:	58 78       	cp.w	r8,7
800061c4:	e0 89 00 04 	brgt	800061cc <_vfprintf_r+0x17b8>
800061c8:	2f 83       	sub	r3,-8
800061ca:	c0 b8       	rjmp	800061e0 <_vfprintf_r+0x17cc>
800061cc:	fa ca f9 78 	sub	r10,sp,-1672
800061d0:	02 9b       	mov	r11,r1
800061d2:	08 9c       	mov	r12,r4
800061d4:	fe b0 f4 12 	rcall	800049f8 <__sprint_r>
800061d8:	e0 81 03 a7 	brne	80006926 <_vfprintf_r+0x1f12>
800061dc:	fa c3 f9 e0 	sub	r3,sp,-1568
800061e0:	40 9b       	lddsp	r11,sp[0x24]
800061e2:	e0 4b 00 80 	cp.w	r11,128
800061e6:	c4 71       	brne	80006274 <_vfprintf_r+0x1860>
800061e8:	40 8a       	lddsp	r10,sp[0x20]
800061ea:	40 39       	lddsp	r9,sp[0xc]
800061ec:	12 1a       	sub	r10,r9
800061ee:	50 4a       	stdsp	sp[0x10],r10
800061f0:	58 0a       	cp.w	r10,0
800061f2:	e0 89 00 20 	brgt	80006232 <_vfprintf_r+0x181e>
800061f6:	c3 f8       	rjmp	80006274 <_vfprintf_r+0x1860>
800061f8:	2f 09       	sub	r9,-16
800061fa:	2f f8       	sub	r8,-1
800061fc:	fe ce 87 a0 	sub	lr,pc,-30816
80006200:	31 0c       	mov	r12,16
80006202:	fb 49 06 90 	st.w	sp[1680],r9
80006206:	87 0e       	st.w	r3[0x0],lr
80006208:	87 1c       	st.w	r3[0x4],r12
8000620a:	fb 48 06 8c 	st.w	sp[1676],r8
8000620e:	58 78       	cp.w	r8,7
80006210:	e0 89 00 04 	brgt	80006218 <_vfprintf_r+0x1804>
80006214:	2f 83       	sub	r3,-8
80006216:	c0 b8       	rjmp	8000622c <_vfprintf_r+0x1818>
80006218:	fa ca f9 78 	sub	r10,sp,-1672
8000621c:	02 9b       	mov	r11,r1
8000621e:	08 9c       	mov	r12,r4
80006220:	fe b0 f3 ec 	rcall	800049f8 <__sprint_r>
80006224:	e0 81 03 81 	brne	80006926 <_vfprintf_r+0x1f12>
80006228:	fa c3 f9 e0 	sub	r3,sp,-1568
8000622c:	40 4b       	lddsp	r11,sp[0x10]
8000622e:	21 0b       	sub	r11,16
80006230:	50 4b       	stdsp	sp[0x10],r11
80006232:	fa f9 06 90 	ld.w	r9,sp[1680]
80006236:	fa f8 06 8c 	ld.w	r8,sp[1676]
8000623a:	fe ca 87 de 	sub	r10,pc,-30754
8000623e:	40 4e       	lddsp	lr,sp[0x10]
80006240:	59 0e       	cp.w	lr,16
80006242:	fe 99 ff db 	brgt	800061f8 <_vfprintf_r+0x17e4>
80006246:	1c 09       	add	r9,lr
80006248:	2f f8       	sub	r8,-1
8000624a:	87 0a       	st.w	r3[0x0],r10
8000624c:	fb 49 06 90 	st.w	sp[1680],r9
80006250:	87 1e       	st.w	r3[0x4],lr
80006252:	fb 48 06 8c 	st.w	sp[1676],r8
80006256:	58 78       	cp.w	r8,7
80006258:	e0 89 00 04 	brgt	80006260 <_vfprintf_r+0x184c>
8000625c:	2f 83       	sub	r3,-8
8000625e:	c0 b8       	rjmp	80006274 <_vfprintf_r+0x1860>
80006260:	fa ca f9 78 	sub	r10,sp,-1672
80006264:	02 9b       	mov	r11,r1
80006266:	08 9c       	mov	r12,r4
80006268:	fe b0 f3 c8 	rcall	800049f8 <__sprint_r>
8000626c:	e0 81 03 5d 	brne	80006926 <_vfprintf_r+0x1f12>
80006270:	fa c3 f9 e0 	sub	r3,sp,-1568
80006274:	40 2c       	lddsp	r12,sp[0x8]
80006276:	04 1c       	sub	r12,r2
80006278:	50 2c       	stdsp	sp[0x8],r12
8000627a:	58 0c       	cp.w	r12,0
8000627c:	e0 89 00 20 	brgt	800062bc <_vfprintf_r+0x18a8>
80006280:	c3 f8       	rjmp	800062fe <_vfprintf_r+0x18ea>
80006282:	2f 09       	sub	r9,-16
80006284:	2f f8       	sub	r8,-1
80006286:	fe cb 88 2a 	sub	r11,pc,-30678
8000628a:	31 0a       	mov	r10,16
8000628c:	fb 49 06 90 	st.w	sp[1680],r9
80006290:	87 0b       	st.w	r3[0x0],r11
80006292:	87 1a       	st.w	r3[0x4],r10
80006294:	fb 48 06 8c 	st.w	sp[1676],r8
80006298:	58 78       	cp.w	r8,7
8000629a:	e0 89 00 04 	brgt	800062a2 <_vfprintf_r+0x188e>
8000629e:	2f 83       	sub	r3,-8
800062a0:	c0 b8       	rjmp	800062b6 <_vfprintf_r+0x18a2>
800062a2:	fa ca f9 78 	sub	r10,sp,-1672
800062a6:	02 9b       	mov	r11,r1
800062a8:	08 9c       	mov	r12,r4
800062aa:	fe b0 f3 a7 	rcall	800049f8 <__sprint_r>
800062ae:	e0 81 03 3c 	brne	80006926 <_vfprintf_r+0x1f12>
800062b2:	fa c3 f9 e0 	sub	r3,sp,-1568
800062b6:	40 29       	lddsp	r9,sp[0x8]
800062b8:	21 09       	sub	r9,16
800062ba:	50 29       	stdsp	sp[0x8],r9
800062bc:	fa f9 06 90 	ld.w	r9,sp[1680]
800062c0:	fa f8 06 8c 	ld.w	r8,sp[1676]
800062c4:	fe ca 88 68 	sub	r10,pc,-30616
800062c8:	40 2e       	lddsp	lr,sp[0x8]
800062ca:	59 0e       	cp.w	lr,16
800062cc:	fe 99 ff db 	brgt	80006282 <_vfprintf_r+0x186e>
800062d0:	1c 09       	add	r9,lr
800062d2:	2f f8       	sub	r8,-1
800062d4:	87 0a       	st.w	r3[0x0],r10
800062d6:	fb 49 06 90 	st.w	sp[1680],r9
800062da:	87 1e       	st.w	r3[0x4],lr
800062dc:	fb 48 06 8c 	st.w	sp[1676],r8
800062e0:	58 78       	cp.w	r8,7
800062e2:	e0 89 00 04 	brgt	800062ea <_vfprintf_r+0x18d6>
800062e6:	2f 83       	sub	r3,-8
800062e8:	c0 b8       	rjmp	800062fe <_vfprintf_r+0x18ea>
800062ea:	fa ca f9 78 	sub	r10,sp,-1672
800062ee:	02 9b       	mov	r11,r1
800062f0:	08 9c       	mov	r12,r4
800062f2:	fe b0 f3 83 	rcall	800049f8 <__sprint_r>
800062f6:	e0 81 03 18 	brne	80006926 <_vfprintf_r+0x1f12>
800062fa:	fa c3 f9 e0 	sub	r3,sp,-1568
800062fe:	ed b5 00 08 	bld	r5,0x8
80006302:	c0 b0       	breq	80006318 <_vfprintf_r+0x1904>
80006304:	fa f8 06 90 	ld.w	r8,sp[1680]
80006308:	87 12       	st.w	r3[0x4],r2
8000630a:	87 06       	st.w	r3[0x0],r6
8000630c:	f0 02 00 02 	add	r2,r8,r2
80006310:	fb 42 06 90 	st.w	sp[1680],r2
80006314:	e0 8f 01 d4 	bral	800066bc <_vfprintf_r+0x1ca8>
80006318:	e0 40 00 65 	cp.w	r0,101
8000631c:	e0 8a 01 d6 	brle	800066c8 <_vfprintf_r+0x1cb4>
80006320:	30 08       	mov	r8,0
80006322:	30 09       	mov	r9,0
80006324:	40 5b       	lddsp	r11,sp[0x14]
80006326:	40 7a       	lddsp	r10,sp[0x1c]
80006328:	e0 a0 33 4b 	rcall	8000c9be <__avr32_f64_cmp_eq>
8000632c:	c7 90       	breq	8000641e <_vfprintf_r+0x1a0a>
8000632e:	fa f8 06 90 	ld.w	r8,sp[1680]
80006332:	fe c9 88 ea 	sub	r9,pc,-30486
80006336:	2f f8       	sub	r8,-1
80006338:	87 09       	st.w	r3[0x0],r9
8000633a:	fb 48 06 90 	st.w	sp[1680],r8
8000633e:	30 19       	mov	r9,1
80006340:	fa f8 06 8c 	ld.w	r8,sp[1676]
80006344:	87 19       	st.w	r3[0x4],r9
80006346:	2f f8       	sub	r8,-1
80006348:	fb 48 06 8c 	st.w	sp[1676],r8
8000634c:	58 78       	cp.w	r8,7
8000634e:	e0 89 00 05 	brgt	80006358 <_vfprintf_r+0x1944>
80006352:	2f 83       	sub	r3,-8
80006354:	c0 c8       	rjmp	8000636c <_vfprintf_r+0x1958>
80006356:	d7 03       	nop
80006358:	fa ca f9 78 	sub	r10,sp,-1672
8000635c:	02 9b       	mov	r11,r1
8000635e:	08 9c       	mov	r12,r4
80006360:	fe b0 f3 4c 	rcall	800049f8 <__sprint_r>
80006364:	e0 81 02 e1 	brne	80006926 <_vfprintf_r+0x1f12>
80006368:	fa c3 f9 e0 	sub	r3,sp,-1568
8000636c:	fa f8 06 ac 	ld.w	r8,sp[1708]
80006370:	40 6c       	lddsp	r12,sp[0x18]
80006372:	18 38       	cp.w	r8,r12
80006374:	c0 55       	brlt	8000637e <_vfprintf_r+0x196a>
80006376:	ed b5 00 00 	bld	r5,0x0
8000637a:	e0 81 02 6b 	brne	80006850 <_vfprintf_r+0x1e3c>
8000637e:	fa f8 06 90 	ld.w	r8,sp[1680]
80006382:	2f f8       	sub	r8,-1
80006384:	40 cb       	lddsp	r11,sp[0x30]
80006386:	fb 48 06 90 	st.w	sp[1680],r8
8000638a:	30 19       	mov	r9,1
8000638c:	fa f8 06 8c 	ld.w	r8,sp[1676]
80006390:	87 0b       	st.w	r3[0x0],r11
80006392:	2f f8       	sub	r8,-1
80006394:	87 19       	st.w	r3[0x4],r9
80006396:	fb 48 06 8c 	st.w	sp[1676],r8
8000639a:	58 78       	cp.w	r8,7
8000639c:	e0 89 00 04 	brgt	800063a4 <_vfprintf_r+0x1990>
800063a0:	2f 83       	sub	r3,-8
800063a2:	c0 b8       	rjmp	800063b8 <_vfprintf_r+0x19a4>
800063a4:	fa ca f9 78 	sub	r10,sp,-1672
800063a8:	02 9b       	mov	r11,r1
800063aa:	08 9c       	mov	r12,r4
800063ac:	fe b0 f3 26 	rcall	800049f8 <__sprint_r>
800063b0:	e0 81 02 bb 	brne	80006926 <_vfprintf_r+0x1f12>
800063b4:	fa c3 f9 e0 	sub	r3,sp,-1568
800063b8:	40 66       	lddsp	r6,sp[0x18]
800063ba:	20 16       	sub	r6,1
800063bc:	58 06       	cp.w	r6,0
800063be:	e0 89 00 1d 	brgt	800063f8 <_vfprintf_r+0x19e4>
800063c2:	e0 8f 02 47 	bral	80006850 <_vfprintf_r+0x1e3c>
800063c6:	2f 09       	sub	r9,-16
800063c8:	2f f8       	sub	r8,-1
800063ca:	fb 49 06 90 	st.w	sp[1680],r9
800063ce:	87 02       	st.w	r3[0x0],r2
800063d0:	87 10       	st.w	r3[0x4],r0
800063d2:	fb 48 06 8c 	st.w	sp[1676],r8
800063d6:	58 78       	cp.w	r8,7
800063d8:	e0 89 00 04 	brgt	800063e0 <_vfprintf_r+0x19cc>
800063dc:	2f 83       	sub	r3,-8
800063de:	c0 b8       	rjmp	800063f4 <_vfprintf_r+0x19e0>
800063e0:	fa ca f9 78 	sub	r10,sp,-1672
800063e4:	02 9b       	mov	r11,r1
800063e6:	08 9c       	mov	r12,r4
800063e8:	fe b0 f3 08 	rcall	800049f8 <__sprint_r>
800063ec:	e0 81 02 9d 	brne	80006926 <_vfprintf_r+0x1f12>
800063f0:	fa c3 f9 e0 	sub	r3,sp,-1568
800063f4:	21 06       	sub	r6,16
800063f6:	c0 48       	rjmp	800063fe <_vfprintf_r+0x19ea>
800063f8:	fe c2 89 9c 	sub	r2,pc,-30308
800063fc:	31 00       	mov	r0,16
800063fe:	fa f9 06 90 	ld.w	r9,sp[1680]
80006402:	fa f8 06 8c 	ld.w	r8,sp[1676]
80006406:	fe ca 89 aa 	sub	r10,pc,-30294
8000640a:	59 06       	cp.w	r6,16
8000640c:	fe 99 ff dd 	brgt	800063c6 <_vfprintf_r+0x19b2>
80006410:	0c 09       	add	r9,r6
80006412:	87 0a       	st.w	r3[0x0],r10
80006414:	fb 49 06 90 	st.w	sp[1680],r9
80006418:	2f f8       	sub	r8,-1
8000641a:	87 16       	st.w	r3[0x4],r6
8000641c:	c5 39       	rjmp	800066c2 <_vfprintf_r+0x1cae>
8000641e:	fa fa 06 ac 	ld.w	r10,sp[1708]
80006422:	58 0a       	cp.w	r10,0
80006424:	e0 89 00 92 	brgt	80006548 <_vfprintf_r+0x1b34>
80006428:	fa f8 06 90 	ld.w	r8,sp[1680]
8000642c:	fe c9 89 e4 	sub	r9,pc,-30236
80006430:	2f f8       	sub	r8,-1
80006432:	87 09       	st.w	r3[0x0],r9
80006434:	fb 48 06 90 	st.w	sp[1680],r8
80006438:	30 19       	mov	r9,1
8000643a:	fa f8 06 8c 	ld.w	r8,sp[1676]
8000643e:	87 19       	st.w	r3[0x4],r9
80006440:	2f f8       	sub	r8,-1
80006442:	fb 48 06 8c 	st.w	sp[1676],r8
80006446:	58 78       	cp.w	r8,7
80006448:	e0 89 00 04 	brgt	80006450 <_vfprintf_r+0x1a3c>
8000644c:	2f 83       	sub	r3,-8
8000644e:	c0 b8       	rjmp	80006464 <_vfprintf_r+0x1a50>
80006450:	fa ca f9 78 	sub	r10,sp,-1672
80006454:	02 9b       	mov	r11,r1
80006456:	08 9c       	mov	r12,r4
80006458:	fe b0 f2 d0 	rcall	800049f8 <__sprint_r>
8000645c:	e0 81 02 65 	brne	80006926 <_vfprintf_r+0x1f12>
80006460:	fa c3 f9 e0 	sub	r3,sp,-1568
80006464:	fa f8 06 ac 	ld.w	r8,sp[1708]
80006468:	58 08       	cp.w	r8,0
8000646a:	c0 81       	brne	8000647a <_vfprintf_r+0x1a66>
8000646c:	40 6a       	lddsp	r10,sp[0x18]
8000646e:	58 0a       	cp.w	r10,0
80006470:	c0 51       	brne	8000647a <_vfprintf_r+0x1a66>
80006472:	ed b5 00 00 	bld	r5,0x0
80006476:	e0 81 01 ed 	brne	80006850 <_vfprintf_r+0x1e3c>
8000647a:	40 c9       	lddsp	r9,sp[0x30]
8000647c:	fa f8 06 90 	ld.w	r8,sp[1680]
80006480:	2f f8       	sub	r8,-1
80006482:	87 09       	st.w	r3[0x0],r9
80006484:	fb 48 06 90 	st.w	sp[1680],r8
80006488:	30 19       	mov	r9,1
8000648a:	fa f8 06 8c 	ld.w	r8,sp[1676]
8000648e:	87 19       	st.w	r3[0x4],r9
80006490:	2f f8       	sub	r8,-1
80006492:	fb 48 06 8c 	st.w	sp[1676],r8
80006496:	58 78       	cp.w	r8,7
80006498:	e0 89 00 04 	brgt	800064a0 <_vfprintf_r+0x1a8c>
8000649c:	2f 83       	sub	r3,-8
8000649e:	c0 b8       	rjmp	800064b4 <_vfprintf_r+0x1aa0>
800064a0:	fa ca f9 78 	sub	r10,sp,-1672
800064a4:	02 9b       	mov	r11,r1
800064a6:	08 9c       	mov	r12,r4
800064a8:	fe b0 f2 a8 	rcall	800049f8 <__sprint_r>
800064ac:	e0 81 02 3d 	brne	80006926 <_vfprintf_r+0x1f12>
800064b0:	fa c3 f9 e0 	sub	r3,sp,-1568
800064b4:	fa f2 06 ac 	ld.w	r2,sp[1708]
800064b8:	5c 32       	neg	r2
800064ba:	58 02       	cp.w	r2,0
800064bc:	e0 89 00 1d 	brgt	800064f6 <_vfprintf_r+0x1ae2>
800064c0:	c3 d8       	rjmp	8000653a <_vfprintf_r+0x1b26>
800064c2:	2f 09       	sub	r9,-16
800064c4:	2f f8       	sub	r8,-1
800064c6:	31 0e       	mov	lr,16
800064c8:	fb 49 06 90 	st.w	sp[1680],r9
800064cc:	87 00       	st.w	r3[0x0],r0
800064ce:	87 1e       	st.w	r3[0x4],lr
800064d0:	fb 48 06 8c 	st.w	sp[1676],r8
800064d4:	58 78       	cp.w	r8,7
800064d6:	e0 89 00 04 	brgt	800064de <_vfprintf_r+0x1aca>
800064da:	2f 83       	sub	r3,-8
800064dc:	c0 b8       	rjmp	800064f2 <_vfprintf_r+0x1ade>
800064de:	fa ca f9 78 	sub	r10,sp,-1672
800064e2:	02 9b       	mov	r11,r1
800064e4:	08 9c       	mov	r12,r4
800064e6:	fe b0 f2 89 	rcall	800049f8 <__sprint_r>
800064ea:	e0 81 02 1e 	brne	80006926 <_vfprintf_r+0x1f12>
800064ee:	fa c3 f9 e0 	sub	r3,sp,-1568
800064f2:	21 02       	sub	r2,16
800064f4:	c0 38       	rjmp	800064fa <_vfprintf_r+0x1ae6>
800064f6:	fe c0 8a 9a 	sub	r0,pc,-30054
800064fa:	fa f9 06 90 	ld.w	r9,sp[1680]
800064fe:	fa f8 06 8c 	ld.w	r8,sp[1676]
80006502:	fe ca 8a a6 	sub	r10,pc,-30042
80006506:	59 02       	cp.w	r2,16
80006508:	fe 99 ff dd 	brgt	800064c2 <_vfprintf_r+0x1aae>
8000650c:	04 09       	add	r9,r2
8000650e:	2f f8       	sub	r8,-1
80006510:	87 0a       	st.w	r3[0x0],r10
80006512:	fb 49 06 90 	st.w	sp[1680],r9
80006516:	87 12       	st.w	r3[0x4],r2
80006518:	fb 48 06 8c 	st.w	sp[1676],r8
8000651c:	58 78       	cp.w	r8,7
8000651e:	e0 89 00 04 	brgt	80006526 <_vfprintf_r+0x1b12>
80006522:	2f 83       	sub	r3,-8
80006524:	c0 b8       	rjmp	8000653a <_vfprintf_r+0x1b26>
80006526:	fa ca f9 78 	sub	r10,sp,-1672
8000652a:	02 9b       	mov	r11,r1
8000652c:	08 9c       	mov	r12,r4
8000652e:	fe b0 f2 65 	rcall	800049f8 <__sprint_r>
80006532:	e0 81 01 fa 	brne	80006926 <_vfprintf_r+0x1f12>
80006536:	fa c3 f9 e0 	sub	r3,sp,-1568
8000653a:	40 6c       	lddsp	r12,sp[0x18]
8000653c:	fa f8 06 90 	ld.w	r8,sp[1680]
80006540:	87 06       	st.w	r3[0x0],r6
80006542:	87 1c       	st.w	r3[0x4],r12
80006544:	18 08       	add	r8,r12
80006546:	cb 98       	rjmp	800066b8 <_vfprintf_r+0x1ca4>
80006548:	fa f9 06 90 	ld.w	r9,sp[1680]
8000654c:	fa f8 06 8c 	ld.w	r8,sp[1676]
80006550:	40 6b       	lddsp	r11,sp[0x18]
80006552:	16 3a       	cp.w	r10,r11
80006554:	c6 f5       	brlt	80006632 <_vfprintf_r+0x1c1e>
80006556:	16 09       	add	r9,r11
80006558:	2f f8       	sub	r8,-1
8000655a:	87 06       	st.w	r3[0x0],r6
8000655c:	fb 49 06 90 	st.w	sp[1680],r9
80006560:	87 1b       	st.w	r3[0x4],r11
80006562:	fb 48 06 8c 	st.w	sp[1676],r8
80006566:	58 78       	cp.w	r8,7
80006568:	e0 89 00 04 	brgt	80006570 <_vfprintf_r+0x1b5c>
8000656c:	2f 83       	sub	r3,-8
8000656e:	c0 b8       	rjmp	80006584 <_vfprintf_r+0x1b70>
80006570:	fa ca f9 78 	sub	r10,sp,-1672
80006574:	02 9b       	mov	r11,r1
80006576:	08 9c       	mov	r12,r4
80006578:	fe b0 f2 40 	rcall	800049f8 <__sprint_r>
8000657c:	e0 81 01 d5 	brne	80006926 <_vfprintf_r+0x1f12>
80006580:	fa c3 f9 e0 	sub	r3,sp,-1568
80006584:	fa f6 06 ac 	ld.w	r6,sp[1708]
80006588:	40 6a       	lddsp	r10,sp[0x18]
8000658a:	14 16       	sub	r6,r10
8000658c:	58 06       	cp.w	r6,0
8000658e:	e0 89 00 1c 	brgt	800065c6 <_vfprintf_r+0x1bb2>
80006592:	c3 d8       	rjmp	8000660c <_vfprintf_r+0x1bf8>
80006594:	2f 09       	sub	r9,-16
80006596:	2f f8       	sub	r8,-1
80006598:	fb 49 06 90 	st.w	sp[1680],r9
8000659c:	87 02       	st.w	r3[0x0],r2
8000659e:	87 10       	st.w	r3[0x4],r0
800065a0:	fb 48 06 8c 	st.w	sp[1676],r8
800065a4:	58 78       	cp.w	r8,7
800065a6:	e0 89 00 04 	brgt	800065ae <_vfprintf_r+0x1b9a>
800065aa:	2f 83       	sub	r3,-8
800065ac:	c0 b8       	rjmp	800065c2 <_vfprintf_r+0x1bae>
800065ae:	fa ca f9 78 	sub	r10,sp,-1672
800065b2:	02 9b       	mov	r11,r1
800065b4:	08 9c       	mov	r12,r4
800065b6:	fe b0 f2 21 	rcall	800049f8 <__sprint_r>
800065ba:	e0 81 01 b6 	brne	80006926 <_vfprintf_r+0x1f12>
800065be:	fa c3 f9 e0 	sub	r3,sp,-1568
800065c2:	21 06       	sub	r6,16
800065c4:	c0 48       	rjmp	800065cc <_vfprintf_r+0x1bb8>
800065c6:	fe c2 8b 6a 	sub	r2,pc,-29846
800065ca:	31 00       	mov	r0,16
800065cc:	fa f9 06 90 	ld.w	r9,sp[1680]
800065d0:	fa f8 06 8c 	ld.w	r8,sp[1676]
800065d4:	fe ca 8b 78 	sub	r10,pc,-29832
800065d8:	59 06       	cp.w	r6,16
800065da:	fe 99 ff dd 	brgt	80006594 <_vfprintf_r+0x1b80>
800065de:	0c 09       	add	r9,r6
800065e0:	2f f8       	sub	r8,-1
800065e2:	87 0a       	st.w	r3[0x0],r10
800065e4:	fb 49 06 90 	st.w	sp[1680],r9
800065e8:	87 16       	st.w	r3[0x4],r6
800065ea:	fb 48 06 8c 	st.w	sp[1676],r8
800065ee:	58 78       	cp.w	r8,7
800065f0:	e0 89 00 04 	brgt	800065f8 <_vfprintf_r+0x1be4>
800065f4:	2f 83       	sub	r3,-8
800065f6:	c0 b8       	rjmp	8000660c <_vfprintf_r+0x1bf8>
800065f8:	fa ca f9 78 	sub	r10,sp,-1672
800065fc:	02 9b       	mov	r11,r1
800065fe:	08 9c       	mov	r12,r4
80006600:	fe b0 f1 fc 	rcall	800049f8 <__sprint_r>
80006604:	e0 81 01 91 	brne	80006926 <_vfprintf_r+0x1f12>
80006608:	fa c3 f9 e0 	sub	r3,sp,-1568
8000660c:	ed b5 00 00 	bld	r5,0x0
80006610:	e0 81 01 20 	brne	80006850 <_vfprintf_r+0x1e3c>
80006614:	40 c9       	lddsp	r9,sp[0x30]
80006616:	fa f8 06 90 	ld.w	r8,sp[1680]
8000661a:	2f f8       	sub	r8,-1
8000661c:	87 09       	st.w	r3[0x0],r9
8000661e:	fb 48 06 90 	st.w	sp[1680],r8
80006622:	30 19       	mov	r9,1
80006624:	fa f8 06 8c 	ld.w	r8,sp[1676]
80006628:	87 19       	st.w	r3[0x4],r9
8000662a:	2f f8       	sub	r8,-1
8000662c:	fb 48 06 8c 	st.w	sp[1676],r8
80006630:	c0 29       	rjmp	80006834 <_vfprintf_r+0x1e20>
80006632:	14 09       	add	r9,r10
80006634:	2f f8       	sub	r8,-1
80006636:	fb 49 06 90 	st.w	sp[1680],r9
8000663a:	87 06       	st.w	r3[0x0],r6
8000663c:	87 1a       	st.w	r3[0x4],r10
8000663e:	fb 48 06 8c 	st.w	sp[1676],r8
80006642:	58 78       	cp.w	r8,7
80006644:	e0 89 00 04 	brgt	8000664c <_vfprintf_r+0x1c38>
80006648:	2f 83       	sub	r3,-8
8000664a:	c0 b8       	rjmp	80006660 <_vfprintf_r+0x1c4c>
8000664c:	fa ca f9 78 	sub	r10,sp,-1672
80006650:	02 9b       	mov	r11,r1
80006652:	08 9c       	mov	r12,r4
80006654:	fe b0 f1 d2 	rcall	800049f8 <__sprint_r>
80006658:	e0 81 01 67 	brne	80006926 <_vfprintf_r+0x1f12>
8000665c:	fa c3 f9 e0 	sub	r3,sp,-1568
80006660:	40 c8       	lddsp	r8,sp[0x30]
80006662:	87 08       	st.w	r3[0x0],r8
80006664:	fa f8 06 90 	ld.w	r8,sp[1680]
80006668:	2f f8       	sub	r8,-1
8000666a:	30 19       	mov	r9,1
8000666c:	fb 48 06 90 	st.w	sp[1680],r8
80006670:	87 19       	st.w	r3[0x4],r9
80006672:	fa f8 06 8c 	ld.w	r8,sp[1676]
80006676:	2f f8       	sub	r8,-1
80006678:	fb 48 06 8c 	st.w	sp[1676],r8
8000667c:	fa f2 06 ac 	ld.w	r2,sp[1708]
80006680:	58 78       	cp.w	r8,7
80006682:	e0 89 00 04 	brgt	8000668a <_vfprintf_r+0x1c76>
80006686:	2f 83       	sub	r3,-8
80006688:	c0 b8       	rjmp	8000669e <_vfprintf_r+0x1c8a>
8000668a:	fa ca f9 78 	sub	r10,sp,-1672
8000668e:	02 9b       	mov	r11,r1
80006690:	08 9c       	mov	r12,r4
80006692:	fe b0 f1 b3 	rcall	800049f8 <__sprint_r>
80006696:	e0 81 01 48 	brne	80006926 <_vfprintf_r+0x1f12>
8000669a:	fa c3 f9 e0 	sub	r3,sp,-1568
8000669e:	04 06       	add	r6,r2
800066a0:	fa f8 06 ac 	ld.w	r8,sp[1708]
800066a4:	87 06       	st.w	r3[0x0],r6
800066a6:	fa f9 06 90 	ld.w	r9,sp[1680]
800066aa:	40 66       	lddsp	r6,sp[0x18]
800066ac:	40 6e       	lddsp	lr,sp[0x18]
800066ae:	10 16       	sub	r6,r8
800066b0:	f2 08 01 08 	sub	r8,r9,r8
800066b4:	87 16       	st.w	r3[0x4],r6
800066b6:	1c 08       	add	r8,lr
800066b8:	fb 48 06 90 	st.w	sp[1680],r8
800066bc:	fa f8 06 8c 	ld.w	r8,sp[1676]
800066c0:	2f f8       	sub	r8,-1
800066c2:	fb 48 06 8c 	st.w	sp[1676],r8
800066c6:	cb 78       	rjmp	80006834 <_vfprintf_r+0x1e20>
800066c8:	40 6c       	lddsp	r12,sp[0x18]
800066ca:	58 1c       	cp.w	r12,1
800066cc:	e0 89 00 06 	brgt	800066d8 <_vfprintf_r+0x1cc4>
800066d0:	ed b5 00 00 	bld	r5,0x0
800066d4:	e0 81 00 85 	brne	800067de <_vfprintf_r+0x1dca>
800066d8:	fa f8 06 90 	ld.w	r8,sp[1680]
800066dc:	2f f8       	sub	r8,-1
800066de:	30 19       	mov	r9,1
800066e0:	fb 48 06 90 	st.w	sp[1680],r8
800066e4:	87 06       	st.w	r3[0x0],r6
800066e6:	fa f8 06 8c 	ld.w	r8,sp[1676]
800066ea:	87 19       	st.w	r3[0x4],r9
800066ec:	2f f8       	sub	r8,-1
800066ee:	fb 48 06 8c 	st.w	sp[1676],r8
800066f2:	58 78       	cp.w	r8,7
800066f4:	e0 89 00 04 	brgt	800066fc <_vfprintf_r+0x1ce8>
800066f8:	2f 83       	sub	r3,-8
800066fa:	c0 b8       	rjmp	80006710 <_vfprintf_r+0x1cfc>
800066fc:	fa ca f9 78 	sub	r10,sp,-1672
80006700:	02 9b       	mov	r11,r1
80006702:	08 9c       	mov	r12,r4
80006704:	fe b0 f1 7a 	rcall	800049f8 <__sprint_r>
80006708:	e0 81 01 0f 	brne	80006926 <_vfprintf_r+0x1f12>
8000670c:	fa c3 f9 e0 	sub	r3,sp,-1568
80006710:	fa f8 06 90 	ld.w	r8,sp[1680]
80006714:	2f f8       	sub	r8,-1
80006716:	40 cb       	lddsp	r11,sp[0x30]
80006718:	fb 48 06 90 	st.w	sp[1680],r8
8000671c:	30 19       	mov	r9,1
8000671e:	fa f8 06 8c 	ld.w	r8,sp[1676]
80006722:	87 0b       	st.w	r3[0x0],r11
80006724:	2f f8       	sub	r8,-1
80006726:	87 19       	st.w	r3[0x4],r9
80006728:	fb 48 06 8c 	st.w	sp[1676],r8
8000672c:	58 78       	cp.w	r8,7
8000672e:	e0 89 00 05 	brgt	80006738 <_vfprintf_r+0x1d24>
80006732:	2f 83       	sub	r3,-8
80006734:	c0 c8       	rjmp	8000674c <_vfprintf_r+0x1d38>
80006736:	d7 03       	nop
80006738:	fa ca f9 78 	sub	r10,sp,-1672
8000673c:	02 9b       	mov	r11,r1
8000673e:	08 9c       	mov	r12,r4
80006740:	fe b0 f1 5c 	rcall	800049f8 <__sprint_r>
80006744:	e0 81 00 f1 	brne	80006926 <_vfprintf_r+0x1f12>
80006748:	fa c3 f9 e0 	sub	r3,sp,-1568
8000674c:	30 08       	mov	r8,0
8000674e:	30 09       	mov	r9,0
80006750:	40 5b       	lddsp	r11,sp[0x14]
80006752:	40 7a       	lddsp	r10,sp[0x1c]
80006754:	e0 a0 31 35 	rcall	8000c9be <__avr32_f64_cmp_eq>
80006758:	40 68       	lddsp	r8,sp[0x18]
8000675a:	20 18       	sub	r8,1
8000675c:	58 0c       	cp.w	r12,0
8000675e:	c0 d1       	brne	80006778 <_vfprintf_r+0x1d64>
80006760:	2f f6       	sub	r6,-1
80006762:	87 18       	st.w	r3[0x4],r8
80006764:	87 06       	st.w	r3[0x0],r6
80006766:	fa f6 06 90 	ld.w	r6,sp[1680]
8000676a:	10 06       	add	r6,r8
8000676c:	fa f8 06 8c 	ld.w	r8,sp[1676]
80006770:	fb 46 06 90 	st.w	sp[1680],r6
80006774:	2f f8       	sub	r8,-1
80006776:	c3 18       	rjmp	800067d8 <_vfprintf_r+0x1dc4>
80006778:	10 96       	mov	r6,r8
8000677a:	58 08       	cp.w	r8,0
8000677c:	e0 89 00 1c 	brgt	800067b4 <_vfprintf_r+0x1da0>
80006780:	c4 b8       	rjmp	80006816 <_vfprintf_r+0x1e02>
80006782:	2f 09       	sub	r9,-16
80006784:	2f f8       	sub	r8,-1
80006786:	fb 49 06 90 	st.w	sp[1680],r9
8000678a:	87 02       	st.w	r3[0x0],r2
8000678c:	87 10       	st.w	r3[0x4],r0
8000678e:	fb 48 06 8c 	st.w	sp[1676],r8
80006792:	58 78       	cp.w	r8,7
80006794:	e0 89 00 04 	brgt	8000679c <_vfprintf_r+0x1d88>
80006798:	2f 83       	sub	r3,-8
8000679a:	c0 b8       	rjmp	800067b0 <_vfprintf_r+0x1d9c>
8000679c:	fa ca f9 78 	sub	r10,sp,-1672
800067a0:	02 9b       	mov	r11,r1
800067a2:	08 9c       	mov	r12,r4
800067a4:	fe b0 f1 2a 	rcall	800049f8 <__sprint_r>
800067a8:	e0 81 00 bf 	brne	80006926 <_vfprintf_r+0x1f12>
800067ac:	fa c3 f9 e0 	sub	r3,sp,-1568
800067b0:	21 06       	sub	r6,16
800067b2:	c0 48       	rjmp	800067ba <_vfprintf_r+0x1da6>
800067b4:	fe c2 8d 58 	sub	r2,pc,-29352
800067b8:	31 00       	mov	r0,16
800067ba:	fa f9 06 90 	ld.w	r9,sp[1680]
800067be:	fa f8 06 8c 	ld.w	r8,sp[1676]
800067c2:	fe ca 8d 66 	sub	r10,pc,-29338
800067c6:	59 06       	cp.w	r6,16
800067c8:	fe 99 ff dd 	brgt	80006782 <_vfprintf_r+0x1d6e>
800067cc:	0c 09       	add	r9,r6
800067ce:	87 0a       	st.w	r3[0x0],r10
800067d0:	fb 49 06 90 	st.w	sp[1680],r9
800067d4:	2f f8       	sub	r8,-1
800067d6:	87 16       	st.w	r3[0x4],r6
800067d8:	fb 48 06 8c 	st.w	sp[1676],r8
800067dc:	c0 e8       	rjmp	800067f8 <_vfprintf_r+0x1de4>
800067de:	fa f8 06 90 	ld.w	r8,sp[1680]
800067e2:	2f f8       	sub	r8,-1
800067e4:	30 19       	mov	r9,1
800067e6:	fb 48 06 90 	st.w	sp[1680],r8
800067ea:	87 06       	st.w	r3[0x0],r6
800067ec:	fa f8 06 8c 	ld.w	r8,sp[1676]
800067f0:	87 19       	st.w	r3[0x4],r9
800067f2:	2f f8       	sub	r8,-1
800067f4:	fb 48 06 8c 	st.w	sp[1676],r8
800067f8:	58 78       	cp.w	r8,7
800067fa:	e0 89 00 04 	brgt	80006802 <_vfprintf_r+0x1dee>
800067fe:	2f 83       	sub	r3,-8
80006800:	c0 b8       	rjmp	80006816 <_vfprintf_r+0x1e02>
80006802:	fa ca f9 78 	sub	r10,sp,-1672
80006806:	02 9b       	mov	r11,r1
80006808:	08 9c       	mov	r12,r4
8000680a:	fe b0 f0 f7 	rcall	800049f8 <__sprint_r>
8000680e:	e0 81 00 8c 	brne	80006926 <_vfprintf_r+0x1f12>
80006812:	fa c3 f9 e0 	sub	r3,sp,-1568
80006816:	40 ea       	lddsp	r10,sp[0x38]
80006818:	fa f8 06 90 	ld.w	r8,sp[1680]
8000681c:	14 08       	add	r8,r10
8000681e:	fa c9 f9 64 	sub	r9,sp,-1692
80006822:	fb 48 06 90 	st.w	sp[1680],r8
80006826:	87 1a       	st.w	r3[0x4],r10
80006828:	fa f8 06 8c 	ld.w	r8,sp[1676]
8000682c:	87 09       	st.w	r3[0x0],r9
8000682e:	2f f8       	sub	r8,-1
80006830:	fb 48 06 8c 	st.w	sp[1676],r8
80006834:	58 78       	cp.w	r8,7
80006836:	e0 89 00 04 	brgt	8000683e <_vfprintf_r+0x1e2a>
8000683a:	2f 83       	sub	r3,-8
8000683c:	c0 a8       	rjmp	80006850 <_vfprintf_r+0x1e3c>
8000683e:	fa ca f9 78 	sub	r10,sp,-1672
80006842:	02 9b       	mov	r11,r1
80006844:	08 9c       	mov	r12,r4
80006846:	fe b0 f0 d9 	rcall	800049f8 <__sprint_r>
8000684a:	c6 e1       	brne	80006926 <_vfprintf_r+0x1f12>
8000684c:	fa c3 f9 e0 	sub	r3,sp,-1568
80006850:	e2 15 00 04 	andl	r5,0x4,COH
80006854:	c3 f0       	breq	800068d2 <_vfprintf_r+0x1ebe>
80006856:	40 86       	lddsp	r6,sp[0x20]
80006858:	40 39       	lddsp	r9,sp[0xc]
8000685a:	12 16       	sub	r6,r9
8000685c:	58 06       	cp.w	r6,0
8000685e:	e0 89 00 1a 	brgt	80006892 <_vfprintf_r+0x1e7e>
80006862:	c3 88       	rjmp	800068d2 <_vfprintf_r+0x1ebe>
80006864:	2f 09       	sub	r9,-16
80006866:	2f f8       	sub	r8,-1
80006868:	fb 49 06 90 	st.w	sp[1680],r9
8000686c:	87 05       	st.w	r3[0x0],r5
8000686e:	87 12       	st.w	r3[0x4],r2
80006870:	fb 48 06 8c 	st.w	sp[1676],r8
80006874:	58 78       	cp.w	r8,7
80006876:	e0 89 00 04 	brgt	8000687e <_vfprintf_r+0x1e6a>
8000687a:	2f 83       	sub	r3,-8
8000687c:	c0 98       	rjmp	8000688e <_vfprintf_r+0x1e7a>
8000687e:	00 9a       	mov	r10,r0
80006880:	02 9b       	mov	r11,r1
80006882:	08 9c       	mov	r12,r4
80006884:	fe b0 f0 ba 	rcall	800049f8 <__sprint_r>
80006888:	c4 f1       	brne	80006926 <_vfprintf_r+0x1f12>
8000688a:	fa c3 f9 e0 	sub	r3,sp,-1568
8000688e:	21 06       	sub	r6,16
80006890:	c0 68       	rjmp	8000689c <_vfprintf_r+0x1e88>
80006892:	fe c5 8e 46 	sub	r5,pc,-29114
80006896:	31 02       	mov	r2,16
80006898:	fa c0 f9 78 	sub	r0,sp,-1672
8000689c:	fa f9 06 90 	ld.w	r9,sp[1680]
800068a0:	fa f8 06 8c 	ld.w	r8,sp[1676]
800068a4:	fe ca 8e 58 	sub	r10,pc,-29096
800068a8:	59 06       	cp.w	r6,16
800068aa:	fe 99 ff dd 	brgt	80006864 <_vfprintf_r+0x1e50>
800068ae:	0c 09       	add	r9,r6
800068b0:	2f f8       	sub	r8,-1
800068b2:	87 0a       	st.w	r3[0x0],r10
800068b4:	87 16       	st.w	r3[0x4],r6
800068b6:	fb 49 06 90 	st.w	sp[1680],r9
800068ba:	fb 48 06 8c 	st.w	sp[1676],r8
800068be:	58 78       	cp.w	r8,7
800068c0:	e0 8a 00 09 	brle	800068d2 <_vfprintf_r+0x1ebe>
800068c4:	fa ca f9 78 	sub	r10,sp,-1672
800068c8:	02 9b       	mov	r11,r1
800068ca:	08 9c       	mov	r12,r4
800068cc:	fe b0 f0 96 	rcall	800049f8 <__sprint_r>
800068d0:	c2 b1       	brne	80006926 <_vfprintf_r+0x1f12>
800068d2:	40 bc       	lddsp	r12,sp[0x2c]
800068d4:	40 36       	lddsp	r6,sp[0xc]
800068d6:	40 8e       	lddsp	lr,sp[0x20]
800068d8:	ec 0e 0c 48 	max	r8,r6,lr
800068dc:	10 0c       	add	r12,r8
800068de:	50 bc       	stdsp	sp[0x2c],r12
800068e0:	fa f8 06 90 	ld.w	r8,sp[1680]
800068e4:	58 08       	cp.w	r8,0
800068e6:	c0 80       	breq	800068f6 <_vfprintf_r+0x1ee2>
800068e8:	fa ca f9 78 	sub	r10,sp,-1672
800068ec:	02 9b       	mov	r11,r1
800068ee:	08 9c       	mov	r12,r4
800068f0:	fe b0 f0 84 	rcall	800049f8 <__sprint_r>
800068f4:	c1 91       	brne	80006926 <_vfprintf_r+0x1f12>
800068f6:	30 0b       	mov	r11,0
800068f8:	fa c3 f9 e0 	sub	r3,sp,-1568
800068fc:	fb 4b 06 8c 	st.w	sp[1676],r11
80006900:	fe 9f f1 15 	bral	80004b2a <_vfprintf_r+0x116>
80006904:	08 95       	mov	r5,r4
80006906:	fa f8 06 90 	ld.w	r8,sp[1680]
8000690a:	58 08       	cp.w	r8,0
8000690c:	c0 80       	breq	8000691c <_vfprintf_r+0x1f08>
8000690e:	08 9c       	mov	r12,r4
80006910:	fa ca f9 78 	sub	r10,sp,-1672
80006914:	02 9b       	mov	r11,r1
80006916:	fe b0 f0 71 	rcall	800049f8 <__sprint_r>
8000691a:	c0 61       	brne	80006926 <_vfprintf_r+0x1f12>
8000691c:	30 08       	mov	r8,0
8000691e:	fb 48 06 8c 	st.w	sp[1676],r8
80006922:	c0 28       	rjmp	80006926 <_vfprintf_r+0x1f12>
80006924:	40 41       	lddsp	r1,sp[0x10]
80006926:	82 68       	ld.sh	r8,r1[0xc]
80006928:	ed b8 00 06 	bld	r8,0x6
8000692c:	c0 31       	brne	80006932 <_vfprintf_r+0x1f1e>
8000692e:	3f fa       	mov	r10,-1
80006930:	50 ba       	stdsp	sp[0x2c],r10
80006932:	40 bc       	lddsp	r12,sp[0x2c]
80006934:	fe 3d f9 44 	sub	sp,-1724
80006938:	d8 32       	popm	r0-r7,pc
8000693a:	d7 03       	nop

8000693c <__svfscanf_r>:
8000693c:	d4 31       	pushm	r0-r7,lr
8000693e:	fa cd 03 2c 	sub	sp,sp,812
80006942:	30 07       	mov	r7,0
80006944:	50 4c       	stdsp	sp[0x10],r12
80006946:	16 95       	mov	r5,r11
80006948:	12 96       	mov	r6,r9
8000694a:	50 9a       	stdsp	sp[0x24],r10
8000694c:	50 a7       	stdsp	sp[0x28],r7
8000694e:	50 87       	stdsp	sp[0x20],r7
80006950:	0e 93       	mov	r3,r7
80006952:	50 37       	stdsp	sp[0xc],r7
80006954:	50 77       	stdsp	sp[0x1c],r7
80006956:	c0 28       	rjmp	8000695a <__svfscanf_r+0x1e>
80006958:	50 34       	stdsp	sp[0xc],r4
8000695a:	40 9b       	lddsp	r11,sp[0x24]
8000695c:	17 89       	ld.ub	r9,r11[0x0]
8000695e:	fb 49 03 28 	st.w	sp[808],r9
80006962:	58 09       	cp.w	r9,0
80006964:	e0 80 0a 63 	breq	80007e2a <__svfscanf_r+0x14ee>
80006968:	2f fb       	sub	r11,-1
8000696a:	50 9b       	stdsp	sp[0x24],r11
8000696c:	e0 6a 01 98 	mov	r10,408
80006970:	74 01       	ld.w	r1,r10[0x0]
80006972:	e2 09 07 08 	ld.ub	r8,r1[r9]
80006976:	e2 18 00 08 	andl	r8,0x8,COH
8000697a:	c1 d0       	breq	800069b4 <__svfscanf_r+0x78>
8000697c:	40 34       	lddsp	r4,sp[0xc]
8000697e:	6a 18       	ld.w	r8,r5[0x4]
80006980:	58 08       	cp.w	r8,0
80006982:	e0 89 00 07 	brgt	80006990 <__svfscanf_r+0x54>
80006986:	0a 9b       	mov	r11,r5
80006988:	40 4c       	lddsp	r12,sp[0x10]
8000698a:	e0 a0 1d cb 	rcall	8000a520 <__srefill_r>
8000698e:	ce 51       	brne	80006958 <__svfscanf_r+0x1c>
80006990:	6a 08       	ld.w	r8,r5[0x0]
80006992:	e0 6b 01 98 	mov	r11,408
80006996:	f0 c9 ff ff 	sub	r9,r8,-1
8000699a:	76 0a       	ld.w	r10,r11[0x0]
8000699c:	11 88       	ld.ub	r8,r8[0x0]
8000699e:	f4 08 07 08 	ld.ub	r8,r10[r8]
800069a2:	ed b8 00 03 	bld	r8,0x3
800069a6:	cd 91       	brne	80006958 <__svfscanf_r+0x1c>
800069a8:	6a 18       	ld.w	r8,r5[0x4]
800069aa:	8b 09       	st.w	r5[0x0],r9
800069ac:	20 18       	sub	r8,1
800069ae:	2f f4       	sub	r4,-1
800069b0:	8b 18       	st.w	r5[0x4],r8
800069b2:	ce 6b       	rjmp	8000697e <__svfscanf_r+0x42>
800069b4:	e0 49 00 25 	cp.w	r9,37
800069b8:	e0 81 00 8a 	brne	80006acc <__svfscanf_r+0x190>
800069bc:	50 68       	stdsp	sp[0x18],r8
800069be:	06 94       	mov	r4,r3
800069c0:	10 90       	mov	r0,r8
800069c2:	10 92       	mov	r2,r8
800069c4:	36 8a       	mov	r10,104
800069c6:	36 c9       	mov	r9,108
800069c8:	34 5c       	mov	r12,69
800069ca:	34 fe       	mov	lr,79
800069cc:	40 9b       	lddsp	r11,sp[0x24]
800069ce:	17 38       	ld.ub	r8,r11++
800069d0:	50 9b       	stdsp	sp[0x24],r11
800069d2:	36 4b       	mov	r11,100
800069d4:	f6 08 18 00 	cp.b	r8,r11
800069d8:	e0 80 00 c2 	breq	80006b5c <__svfscanf_r+0x220>
800069dc:	e0 8b 00 48 	brhi	80006a6c <__svfscanf_r+0x130>
800069e0:	f8 08 18 00 	cp.b	r8,r12
800069e4:	c7 20       	breq	80006ac8 <__svfscanf_r+0x18c>
800069e6:	e0 8b 00 27 	brhi	80006a34 <__svfscanf_r+0xf8>
800069ea:	33 9b       	mov	r11,57
800069ec:	f6 08 18 00 	cp.b	r8,r11
800069f0:	e0 8b 00 1c 	brhi	80006a28 <__svfscanf_r+0xec>
800069f4:	33 0b       	mov	r11,48
800069f6:	f6 08 18 00 	cp.b	r8,r11
800069fa:	e0 82 00 9b 	brhs	80006b30 <__svfscanf_r+0x1f4>
800069fe:	32 5b       	mov	r11,37
80006a00:	f6 08 18 00 	cp.b	r8,r11
80006a04:	c6 40       	breq	80006acc <__svfscanf_r+0x190>
80006a06:	e0 8b 00 0b 	brhi	80006a1c <__svfscanf_r+0xe0>
80006a0a:	58 08       	cp.w	r8,0
80006a0c:	e0 80 0a 0d 	breq	80007e26 <__svfscanf_r+0x14ea>
80006a10:	32 4b       	mov	r11,36
80006a12:	f6 08 18 00 	cp.b	r8,r11
80006a16:	e0 81 01 f5 	brne	80006e00 <__svfscanf_r+0x4c4>
80006a1a:	c9 18       	rjmp	80006b3c <__svfscanf_r+0x200>
80006a1c:	32 ab       	mov	r11,42
80006a1e:	f6 08 18 00 	cp.b	r8,r11
80006a22:	e0 81 01 ef 	brne	80006e00 <__svfscanf_r+0x4c4>
80006a26:	c6 f8       	rjmp	80006b04 <__svfscanf_r+0x1c8>
80006a28:	34 49       	mov	r9,68
80006a2a:	f2 08 18 00 	cp.b	r8,r9
80006a2e:	e0 81 01 e9 	brne	80006e00 <__svfscanf_r+0x4c4>
80006a32:	c9 48       	rjmp	80006b5a <__svfscanf_r+0x21e>
80006a34:	fc 08 18 00 	cp.b	r8,lr
80006a38:	e0 80 00 9c 	breq	80006b70 <__svfscanf_r+0x234>
80006a3c:	e0 8b 00 0c 	brhi	80006a54 <__svfscanf_r+0x118>
80006a40:	34 7b       	mov	r11,71
80006a42:	f6 08 18 00 	cp.b	r8,r11
80006a46:	c4 10       	breq	80006ac8 <__svfscanf_r+0x18c>
80006a48:	34 cb       	mov	r11,76
80006a4a:	f6 08 18 00 	cp.b	r8,r11
80006a4e:	e0 81 01 d9 	brne	80006e00 <__svfscanf_r+0x4c4>
80006a52:	c6 b8       	rjmp	80006b28 <__svfscanf_r+0x1ec>
80006a54:	35 b9       	mov	r9,91
80006a56:	f2 08 18 00 	cp.b	r8,r9
80006a5a:	e0 80 00 9f 	breq	80006b98 <__svfscanf_r+0x25c>
80006a5e:	36 39       	mov	r9,99
80006a60:	f2 08 18 00 	cp.b	r8,r9
80006a64:	e0 80 00 a3 	breq	80006baa <__svfscanf_r+0x26e>
80006a68:	35 89       	mov	r9,88
80006a6a:	c2 a8       	rjmp	80006abe <__svfscanf_r+0x182>
80006a6c:	36 eb       	mov	r11,110
80006a6e:	f6 08 18 00 	cp.b	r8,r11
80006a72:	e0 80 00 a7 	breq	80006bc0 <__svfscanf_r+0x284>
80006a76:	e0 8b 00 0f 	brhi	80006a94 <__svfscanf_r+0x158>
80006a7a:	f4 08 18 00 	cp.b	r8,r10
80006a7e:	c5 70       	breq	80006b2c <__svfscanf_r+0x1f0>
80006a80:	c2 43       	brcs	80006ac8 <__svfscanf_r+0x18c>
80006a82:	36 9b       	mov	r11,105
80006a84:	f6 08 18 00 	cp.b	r8,r11
80006a88:	c6 f0       	breq	80006b66 <__svfscanf_r+0x22a>
80006a8a:	f2 08 18 00 	cp.b	r8,r9
80006a8e:	e0 81 01 b9 	brne	80006e00 <__svfscanf_r+0x4c4>
80006a92:	c3 b8       	rjmp	80006b08 <__svfscanf_r+0x1cc>
80006a94:	37 39       	mov	r9,115
80006a96:	f2 08 18 00 	cp.b	r8,r9
80006a9a:	c7 d0       	breq	80006b94 <__svfscanf_r+0x258>
80006a9c:	e0 8b 00 0c 	brhi	80006ab4 <__svfscanf_r+0x178>
80006aa0:	36 f9       	mov	r9,111
80006aa2:	f2 08 18 00 	cp.b	r8,r9
80006aa6:	c6 60       	breq	80006b72 <__svfscanf_r+0x236>
80006aa8:	37 09       	mov	r9,112
80006aaa:	f2 08 18 00 	cp.b	r8,r9
80006aae:	e0 81 01 a9 	brne	80006e00 <__svfscanf_r+0x4c4>
80006ab2:	c7 f8       	rjmp	80006bb0 <__svfscanf_r+0x274>
80006ab4:	37 59       	mov	r9,117
80006ab6:	f2 08 18 00 	cp.b	r8,r9
80006aba:	c6 20       	breq	80006b7e <__svfscanf_r+0x242>
80006abc:	37 89       	mov	r9,120
80006abe:	f2 08 18 00 	cp.b	r8,r9
80006ac2:	e0 81 01 9f 	brne	80006e00 <__svfscanf_r+0x4c4>
80006ac6:	c6 18       	rjmp	80006b88 <__svfscanf_r+0x24c>
80006ac8:	30 41       	mov	r1,4
80006aca:	ca 69       	rjmp	80006e16 <__svfscanf_r+0x4da>
80006acc:	6a 18       	ld.w	r8,r5[0x4]
80006ace:	58 08       	cp.w	r8,0
80006ad0:	e0 89 00 08 	brgt	80006ae0 <__svfscanf_r+0x1a4>
80006ad4:	0a 9b       	mov	r11,r5
80006ad6:	40 4c       	lddsp	r12,sp[0x10]
80006ad8:	e0 a0 1d 24 	rcall	8000a520 <__srefill_r>
80006adc:	e0 81 09 9e 	brne	80007e18 <__svfscanf_r+0x14dc>
80006ae0:	40 9a       	lddsp	r10,sp[0x24]
80006ae2:	6a 08       	ld.w	r8,r5[0x0]
80006ae4:	f5 39 ff ff 	ld.ub	r9,r10[-1]
80006ae8:	11 8a       	ld.ub	r10,r8[0x0]
80006aea:	f2 0a 18 00 	cp.b	r10,r9
80006aee:	e0 81 09 9e 	brne	80007e2a <__svfscanf_r+0x14ee>
80006af2:	2f f8       	sub	r8,-1
80006af4:	40 39       	lddsp	r9,sp[0xc]
80006af6:	8b 08       	st.w	r5[0x0],r8
80006af8:	2f f9       	sub	r9,-1
80006afa:	6a 18       	ld.w	r8,r5[0x4]
80006afc:	50 39       	stdsp	sp[0xc],r9
80006afe:	20 18       	sub	r8,1
80006b00:	8b 18       	st.w	r5[0x4],r8
80006b02:	c2 cb       	rjmp	8000695a <__svfscanf_r+0x1e>
80006b04:	a5 a0       	sbr	r0,0x4
80006b06:	c6 3b       	rjmp	800069cc <__svfscanf_r+0x90>
80006b08:	00 98       	mov	r8,r0
80006b0a:	a1 b0       	sbr	r0,0x1
80006b0c:	40 9b       	lddsp	r11,sp[0x24]
80006b0e:	a1 a8       	sbr	r8,0x0
80006b10:	17 8b       	ld.ub	r11,r11[0x0]
80006b12:	f2 0b 18 00 	cp.b	r11,r9
80006b16:	fb f8 00 09 	ld.weq	r8,sp[0x24]
80006b1a:	f7 b8 00 ff 	subeq	r8,-1
80006b1e:	fb f8 0a 09 	st.weq	sp[0x24],r8
80006b22:	f0 00 17 10 	movne	r0,r8
80006b26:	c5 3b       	rjmp	800069cc <__svfscanf_r+0x90>
80006b28:	a1 b0       	sbr	r0,0x1
80006b2a:	c5 1b       	rjmp	800069cc <__svfscanf_r+0x90>
80006b2c:	a3 a0       	sbr	r0,0x2
80006b2e:	c4 fb       	rjmp	800069cc <__svfscanf_r+0x90>
80006b30:	e4 02 00 22 	add	r2,r2,r2<<0x2
80006b34:	a1 72       	lsl	r2,0x1
80006b36:	23 02       	sub	r2,48
80006b38:	10 02       	add	r2,r8
80006b3a:	c4 9b       	rjmp	800069cc <__svfscanf_r+0x90>
80006b3c:	e0 42 00 20 	cp.w	r2,32
80006b40:	e0 8b 00 08 	brhi	80006b50 <__svfscanf_r+0x214>
80006b44:	e4 c4 00 01 	sub	r4,r2,1
80006b48:	30 1b       	mov	r11,1
80006b4a:	30 02       	mov	r2,0
80006b4c:	50 6b       	stdsp	sp[0x18],r11
80006b4e:	c3 fb       	rjmp	800069cc <__svfscanf_r+0x90>
80006b50:	31 68       	mov	r8,22
80006b52:	40 4a       	lddsp	r10,sp[0x10]
80006b54:	95 38       	st.w	r10[0xc],r8
80006b56:	e0 8f 09 61 	bral	80007e18 <__svfscanf_r+0x14dc>
80006b5a:	a1 a0       	sbr	r0,0x0
80006b5c:	fe c9 b6 f8 	sub	r9,pc,-18696
80006b60:	30 a8       	mov	r8,10
80006b62:	50 a9       	stdsp	sp[0x28],r9
80006b64:	c0 b8       	rjmp	80006b7a <__svfscanf_r+0x23e>
80006b66:	fe cb b7 02 	sub	r11,pc,-18686
80006b6a:	30 0a       	mov	r10,0
80006b6c:	50 ab       	stdsp	sp[0x28],r11
80006b6e:	c2 78       	rjmp	80006bbc <__svfscanf_r+0x280>
80006b70:	a1 a0       	sbr	r0,0x0
80006b72:	fe c9 b4 3e 	sub	r9,pc,-19394
80006b76:	30 88       	mov	r8,8
80006b78:	50 a9       	stdsp	sp[0x28],r9
80006b7a:	50 88       	stdsp	sp[0x20],r8
80006b7c:	c4 c9       	rjmp	80006e14 <__svfscanf_r+0x4d8>
80006b7e:	fe cb b4 4a 	sub	r11,pc,-19382
80006b82:	30 aa       	mov	r10,10
80006b84:	50 ab       	stdsp	sp[0x28],r11
80006b86:	c1 b8       	rjmp	80006bbc <__svfscanf_r+0x280>
80006b88:	fe c9 b4 54 	sub	r9,pc,-19372
80006b8c:	a9 b0       	sbr	r0,0x9
80006b8e:	50 a9       	stdsp	sp[0x28],r9
80006b90:	31 08       	mov	r8,16
80006b92:	cf 4b       	rjmp	80006b7a <__svfscanf_r+0x23e>
80006b94:	30 21       	mov	r1,2
80006b96:	c4 09       	rjmp	80006e16 <__svfscanf_r+0x4da>
80006b98:	40 9b       	lddsp	r11,sp[0x24]
80006b9a:	fa cc fe 60 	sub	r12,sp,-416
80006b9e:	a7 a0       	sbr	r0,0x6
80006ba0:	e0 a0 1d 7a 	rcall	8000a694 <__sccl>
80006ba4:	30 11       	mov	r1,1
80006ba6:	50 9c       	stdsp	sp[0x24],r12
80006ba8:	c3 79       	rjmp	80006e16 <__svfscanf_r+0x4da>
80006baa:	a7 a0       	sbr	r0,0x6
80006bac:	30 01       	mov	r1,0
80006bae:	c3 49       	rjmp	80006e16 <__svfscanf_r+0x4da>
80006bb0:	fe cb b4 7c 	sub	r11,pc,-19332
80006bb4:	e8 10 02 20 	orl	r0,0x220
80006bb8:	50 ab       	stdsp	sp[0x28],r11
80006bba:	31 0a       	mov	r10,16
80006bbc:	50 8a       	stdsp	sp[0x20],r10
80006bbe:	c2 b9       	rjmp	80006e14 <__svfscanf_r+0x4d8>
80006bc0:	ed b0 00 04 	bld	r0,0x4
80006bc4:	fe 90 fe cb 	breq	8000695a <__svfscanf_r+0x1e>
80006bc8:	ed b0 00 02 	bld	r0,0x2
80006bcc:	c4 61       	brne	80006c58 <__svfscanf_r+0x31c>
80006bce:	40 69       	lddsp	r9,sp[0x18]
80006bd0:	58 09       	cp.w	r9,0
80006bd2:	c2 50       	breq	80006c1c <__svfscanf_r+0x2e0>
80006bd4:	0e 34       	cp.w	r4,r7
80006bd6:	c0 64       	brge	80006be2 <__svfscanf_r+0x2a6>
80006bd8:	fa c8 fc d4 	sub	r8,sp,-812
80006bdc:	f0 04 00 24 	add	r4,r8,r4<<0x2
80006be0:	c2 78       	rjmp	80006c2e <__svfscanf_r+0x2f2>
80006be2:	fa ca fd 60 	sub	r10,sp,-672
80006be6:	0c 99       	mov	r9,r6
80006be8:	f4 07 00 2a 	add	r10,r10,r7<<0x2
80006bec:	0e 98       	mov	r8,r7
80006bee:	13 0b       	ld.w	r11,r9++
80006bf0:	14 ab       	st.w	r10++,r11
80006bf2:	2f f8       	sub	r8,-1
80006bf4:	10 34       	cp.w	r4,r8
80006bf6:	cf c4       	brge	80006bee <__svfscanf_r+0x2b2>
80006bf8:	ee c9 ff ff 	sub	r9,r7,-1
80006bfc:	ee 08 11 ff 	rsub	r8,r7,-1
80006c00:	f0 c7 ff ff 	sub	r7,r8,-1
80006c04:	2f e8       	sub	r8,-2
80006c06:	08 08       	add	r8,r4
80006c08:	08 07       	add	r7,r4
80006c0a:	ec 08 00 26 	add	r6,r6,r8<<0x2
80006c0e:	f2 07 00 07 	add	r7,r9,r7
80006c12:	fa c8 fd 60 	sub	r8,sp,-672
80006c16:	f0 04 03 24 	ld.w	r4,r8[r4<<0x2]
80006c1a:	c1 c8       	rjmp	80006c52 <__svfscanf_r+0x316>
80006c1c:	e6 c8 ff ff 	sub	r8,r3,-1
80006c20:	0e 33       	cp.w	r3,r7
80006c22:	c0 94       	brge	80006c34 <__svfscanf_r+0x2f8>
80006c24:	fa cb fc d4 	sub	r11,sp,-812
80006c28:	10 93       	mov	r3,r8
80006c2a:	f6 04 00 24 	add	r4,r11,r4<<0x2
80006c2e:	e8 f4 ff 74 	ld.w	r4,r4[-140]
80006c32:	c1 08       	rjmp	80006c52 <__svfscanf_r+0x316>
80006c34:	6c 04       	ld.w	r4,r6[0x0]
80006c36:	2f c6       	sub	r6,-4
80006c38:	59 f7       	cp.w	r7,31
80006c3a:	e0 89 00 0b 	brgt	80006c50 <__svfscanf_r+0x314>
80006c3e:	10 93       	mov	r3,r8
80006c40:	fa ca fc d4 	sub	r10,sp,-812
80006c44:	f4 07 00 28 	add	r8,r10,r7<<0x2
80006c48:	2f f7       	sub	r7,-1
80006c4a:	f1 44 ff 74 	st.w	r8[-140],r4
80006c4e:	c0 28       	rjmp	80006c52 <__svfscanf_r+0x316>
80006c50:	10 93       	mov	r3,r8
80006c52:	40 39       	lddsp	r9,sp[0xc]
80006c54:	a8 09       	st.h	r4[0x0],r9
80006c56:	c8 2a       	rjmp	8000695a <__svfscanf_r+0x1e>
80006c58:	ed b0 00 00 	bld	r0,0x0
80006c5c:	c4 61       	brne	80006ce8 <__svfscanf_r+0x3ac>
80006c5e:	40 68       	lddsp	r8,sp[0x18]
80006c60:	58 08       	cp.w	r8,0
80006c62:	c2 60       	breq	80006cae <__svfscanf_r+0x372>
80006c64:	0e 34       	cp.w	r4,r7
80006c66:	c0 74       	brge	80006c74 <__svfscanf_r+0x338>
80006c68:	fa cb fc d4 	sub	r11,sp,-812
80006c6c:	f6 04 00 24 	add	r4,r11,r4<<0x2
80006c70:	c2 88       	rjmp	80006cc0 <__svfscanf_r+0x384>
80006c72:	d7 03       	nop
80006c74:	fa ca fd 60 	sub	r10,sp,-672
80006c78:	0c 99       	mov	r9,r6
80006c7a:	f4 07 00 2a 	add	r10,r10,r7<<0x2
80006c7e:	0e 98       	mov	r8,r7
80006c80:	13 0b       	ld.w	r11,r9++
80006c82:	14 ab       	st.w	r10++,r11
80006c84:	2f f8       	sub	r8,-1
80006c86:	10 34       	cp.w	r4,r8
80006c88:	cf c4       	brge	80006c80 <__svfscanf_r+0x344>
80006c8a:	ee c9 ff ff 	sub	r9,r7,-1
80006c8e:	ee 08 11 ff 	rsub	r8,r7,-1
80006c92:	f0 c7 ff ff 	sub	r7,r8,-1
80006c96:	2f e8       	sub	r8,-2
80006c98:	08 08       	add	r8,r4
80006c9a:	08 07       	add	r7,r4
80006c9c:	ec 08 00 26 	add	r6,r6,r8<<0x2
80006ca0:	f2 07 00 07 	add	r7,r9,r7
80006ca4:	fa c8 fd 60 	sub	r8,sp,-672
80006ca8:	f0 04 03 24 	ld.w	r4,r8[r4<<0x2]
80006cac:	c1 c8       	rjmp	80006ce4 <__svfscanf_r+0x3a8>
80006cae:	e6 c8 ff ff 	sub	r8,r3,-1
80006cb2:	0e 33       	cp.w	r3,r7
80006cb4:	c0 94       	brge	80006cc6 <__svfscanf_r+0x38a>
80006cb6:	fa ca fc d4 	sub	r10,sp,-812
80006cba:	10 93       	mov	r3,r8
80006cbc:	f4 04 00 24 	add	r4,r10,r4<<0x2
80006cc0:	e8 f4 ff 74 	ld.w	r4,r4[-140]
80006cc4:	c1 08       	rjmp	80006ce4 <__svfscanf_r+0x3a8>
80006cc6:	6c 04       	ld.w	r4,r6[0x0]
80006cc8:	2f c6       	sub	r6,-4
80006cca:	59 f7       	cp.w	r7,31
80006ccc:	e0 89 00 0b 	brgt	80006ce2 <__svfscanf_r+0x3a6>
80006cd0:	10 93       	mov	r3,r8
80006cd2:	fa c9 fc d4 	sub	r9,sp,-812
80006cd6:	f2 07 00 28 	add	r8,r9,r7<<0x2
80006cda:	2f f7       	sub	r7,-1
80006cdc:	f1 44 ff 74 	st.w	r8[-140],r4
80006ce0:	c0 28       	rjmp	80006ce4 <__svfscanf_r+0x3a8>
80006ce2:	10 93       	mov	r3,r8
80006ce4:	40 38       	lddsp	r8,sp[0xc]
80006ce6:	c4 a8       	rjmp	80006d7a <__svfscanf_r+0x43e>
80006ce8:	e2 10 00 02 	andl	r0,0x2,COH
80006cec:	c4 a0       	breq	80006d80 <__svfscanf_r+0x444>
80006cee:	40 6b       	lddsp	r11,sp[0x18]
80006cf0:	58 0b       	cp.w	r11,0
80006cf2:	c2 50       	breq	80006d3c <__svfscanf_r+0x400>
80006cf4:	0e 34       	cp.w	r4,r7
80006cf6:	c0 64       	brge	80006d02 <__svfscanf_r+0x3c6>
80006cf8:	fa ca fc d4 	sub	r10,sp,-812
80006cfc:	f4 04 00 24 	add	r4,r10,r4<<0x2
80006d00:	c2 78       	rjmp	80006d4e <__svfscanf_r+0x412>
80006d02:	fa ca fd 60 	sub	r10,sp,-672
80006d06:	0c 99       	mov	r9,r6
80006d08:	f4 07 00 2a 	add	r10,r10,r7<<0x2
80006d0c:	0e 98       	mov	r8,r7
80006d0e:	13 0b       	ld.w	r11,r9++
80006d10:	14 ab       	st.w	r10++,r11
80006d12:	2f f8       	sub	r8,-1
80006d14:	10 34       	cp.w	r4,r8
80006d16:	cf c4       	brge	80006d0e <__svfscanf_r+0x3d2>
80006d18:	ee c9 ff ff 	sub	r9,r7,-1
80006d1c:	ee 08 11 ff 	rsub	r8,r7,-1
80006d20:	f0 c7 ff ff 	sub	r7,r8,-1
80006d24:	2f e8       	sub	r8,-2
80006d26:	08 08       	add	r8,r4
80006d28:	08 07       	add	r7,r4
80006d2a:	ec 08 00 26 	add	r6,r6,r8<<0x2
80006d2e:	f2 07 00 07 	add	r7,r9,r7
80006d32:	fa c8 fd 60 	sub	r8,sp,-672
80006d36:	f0 04 03 24 	ld.w	r4,r8[r4<<0x2]
80006d3a:	c1 c8       	rjmp	80006d72 <__svfscanf_r+0x436>
80006d3c:	e6 c8 ff ff 	sub	r8,r3,-1
80006d40:	0e 33       	cp.w	r3,r7
80006d42:	c0 94       	brge	80006d54 <__svfscanf_r+0x418>
80006d44:	fa c9 fc d4 	sub	r9,sp,-812
80006d48:	10 93       	mov	r3,r8
80006d4a:	f2 04 00 24 	add	r4,r9,r4<<0x2
80006d4e:	e8 f4 ff 74 	ld.w	r4,r4[-140]
80006d52:	c1 08       	rjmp	80006d72 <__svfscanf_r+0x436>
80006d54:	6c 04       	ld.w	r4,r6[0x0]
80006d56:	2f c6       	sub	r6,-4
80006d58:	59 f7       	cp.w	r7,31
80006d5a:	e0 89 00 0b 	brgt	80006d70 <__svfscanf_r+0x434>
80006d5e:	10 93       	mov	r3,r8
80006d60:	fa cb fc d4 	sub	r11,sp,-812
80006d64:	f6 07 00 28 	add	r8,r11,r7<<0x2
80006d68:	2f f7       	sub	r7,-1
80006d6a:	f1 44 ff 74 	st.w	r8[-140],r4
80006d6e:	c0 28       	rjmp	80006d72 <__svfscanf_r+0x436>
80006d70:	10 93       	mov	r3,r8
80006d72:	40 3a       	lddsp	r10,sp[0xc]
80006d74:	14 98       	mov	r8,r10
80006d76:	89 1a       	st.w	r4[0x4],r10
80006d78:	bf 58       	asr	r8,0x1f
80006d7a:	89 08       	st.w	r4[0x0],r8
80006d7c:	fe 9f fd ef 	bral	8000695a <__svfscanf_r+0x1e>
80006d80:	40 69       	lddsp	r9,sp[0x18]
80006d82:	58 09       	cp.w	r9,0
80006d84:	c1 f0       	breq	80006dc2 <__svfscanf_r+0x486>
80006d86:	0e 34       	cp.w	r4,r7
80006d88:	c0 85       	brlt	80006d98 <__svfscanf_r+0x45c>
80006d8a:	fa ca fd 60 	sub	r10,sp,-672
80006d8e:	0c 99       	mov	r9,r6
80006d90:	f4 07 00 2a 	add	r10,r10,r7<<0x2
80006d94:	0e 98       	mov	r8,r7
80006d96:	c0 68       	rjmp	80006da2 <__svfscanf_r+0x466>
80006d98:	fa c8 fc d4 	sub	r8,sp,-812
80006d9c:	f0 04 00 24 	add	r4,r8,r4<<0x2
80006da0:	c1 a8       	rjmp	80006dd4 <__svfscanf_r+0x498>
80006da2:	13 0b       	ld.w	r11,r9++
80006da4:	14 ab       	st.w	r10++,r11
80006da6:	2f f8       	sub	r8,-1
80006da8:	10 34       	cp.w	r4,r8
80006daa:	cf c4       	brge	80006da2 <__svfscanf_r+0x466>
80006dac:	ee 08 11 01 	rsub	r8,r7,1
80006db0:	08 08       	add	r8,r4
80006db2:	10 07       	add	r7,r8
80006db4:	ec 08 00 26 	add	r6,r6,r8<<0x2
80006db8:	fa c8 fd 60 	sub	r8,sp,-672
80006dbc:	f0 04 03 24 	ld.w	r4,r8[r4<<0x2]
80006dc0:	c1 c8       	rjmp	80006df8 <__svfscanf_r+0x4bc>
80006dc2:	e6 c8 ff ff 	sub	r8,r3,-1
80006dc6:	0e 33       	cp.w	r3,r7
80006dc8:	c0 94       	brge	80006dda <__svfscanf_r+0x49e>
80006dca:	fa cb fc d4 	sub	r11,sp,-812
80006dce:	10 93       	mov	r3,r8
80006dd0:	f6 04 00 24 	add	r4,r11,r4<<0x2
80006dd4:	e8 f4 ff 74 	ld.w	r4,r4[-140]
80006dd8:	c1 08       	rjmp	80006df8 <__svfscanf_r+0x4bc>
80006dda:	6c 04       	ld.w	r4,r6[0x0]
80006ddc:	2f c6       	sub	r6,-4
80006dde:	59 f7       	cp.w	r7,31
80006de0:	e0 89 00 0b 	brgt	80006df6 <__svfscanf_r+0x4ba>
80006de4:	10 93       	mov	r3,r8
80006de6:	fa ca fc d4 	sub	r10,sp,-812
80006dea:	f4 07 00 28 	add	r8,r10,r7<<0x2
80006dee:	2f f7       	sub	r7,-1
80006df0:	f1 44 ff 74 	st.w	r8[-140],r4
80006df4:	c0 28       	rjmp	80006df8 <__svfscanf_r+0x4bc>
80006df6:	10 93       	mov	r3,r8
80006df8:	40 39       	lddsp	r9,sp[0xc]
80006dfa:	89 09       	st.w	r4[0x0],r9
80006dfc:	fe 9f fd af 	bral	8000695a <__svfscanf_r+0x1e>
80006e00:	e2 08 07 08 	ld.ub	r8,r1[r8]
80006e04:	f1 d8 c0 01 	bfextu	r8,r8,0x0,0x1
80006e08:	30 ab       	mov	r11,10
80006e0a:	10 40       	or	r0,r8
80006e0c:	50 8b       	stdsp	sp[0x20],r11
80006e0e:	fe c8 b9 aa 	sub	r8,pc,-18006
80006e12:	50 a8       	stdsp	sp[0x28],r8
80006e14:	30 31       	mov	r1,3
80006e16:	6a 18       	ld.w	r8,r5[0x4]
80006e18:	58 08       	cp.w	r8,0
80006e1a:	e0 89 00 08 	brgt	80006e2a <__svfscanf_r+0x4ee>
80006e1e:	0a 9b       	mov	r11,r5
80006e20:	40 4c       	lddsp	r12,sp[0x10]
80006e22:	e0 a0 1b 7f 	rcall	8000a520 <__srefill_r>
80006e26:	e0 81 07 f9 	brne	80007e18 <__svfscanf_r+0x14dc>
80006e2a:	ed b0 00 06 	bld	r0,0x6
80006e2e:	c1 31       	brne	80006e54 <__svfscanf_r+0x518>
80006e30:	c1 e8       	rjmp	80006e6c <__svfscanf_r+0x530>
80006e32:	6a 18       	ld.w	r8,r5[0x4]
80006e34:	20 18       	sub	r8,1
80006e36:	8b 18       	st.w	r5[0x4],r8
80006e38:	58 08       	cp.w	r8,0
80006e3a:	e0 8a 00 04 	brle	80006e42 <__svfscanf_r+0x506>
80006e3e:	8b 0a       	st.w	r5[0x0],r10
80006e40:	c0 78       	rjmp	80006e4e <__svfscanf_r+0x512>
80006e42:	0a 9b       	mov	r11,r5
80006e44:	40 4c       	lddsp	r12,sp[0x10]
80006e46:	e0 a0 1b 6d 	rcall	8000a520 <__srefill_r>
80006e4a:	e0 81 07 e7 	brne	80007e18 <__svfscanf_r+0x14dc>
80006e4e:	40 3a       	lddsp	r10,sp[0xc]
80006e50:	2f fa       	sub	r10,-1
80006e52:	50 3a       	stdsp	sp[0xc],r10
80006e54:	6a 08       	ld.w	r8,r5[0x0]
80006e56:	e0 6b 01 98 	mov	r11,408
80006e5a:	f0 ca ff ff 	sub	r10,r8,-1
80006e5e:	76 09       	ld.w	r9,r11[0x0]
80006e60:	11 88       	ld.ub	r8,r8[0x0]
80006e62:	f2 08 07 08 	ld.ub	r8,r9[r8]
80006e66:	ed b8 00 03 	bld	r8,0x3
80006e6a:	ce 40       	breq	80006e32 <__svfscanf_r+0x4f6>
80006e6c:	58 21       	cp.w	r1,2
80006e6e:	e0 80 01 c1 	breq	800071f0 <__svfscanf_r+0x8b4>
80006e72:	e0 89 00 05 	brgt	80006e7c <__svfscanf_r+0x540>
80006e76:	58 11       	cp.w	r1,1
80006e78:	c0 81       	brne	80006e88 <__svfscanf_r+0x54c>
80006e7a:	c1 b9       	rjmp	800070b0 <__svfscanf_r+0x774>
80006e7c:	58 31       	cp.w	r1,3
80006e7e:	e0 80 03 13 	breq	800074a4 <__svfscanf_r+0xb68>
80006e82:	58 41       	cp.w	r1,4
80006e84:	e0 80 05 1c 	breq	800078bc <__svfscanf_r+0xf80>
80006e88:	00 9a       	mov	r10,r0
80006e8a:	e2 1a 00 10 	andl	r10,0x10,COH
80006e8e:	50 5a       	stdsp	sp[0x14],r10
80006e90:	58 02       	cp.w	r2,0
80006e92:	f9 b2 00 01 	moveq	r2,1
80006e96:	e1 d0 c0 01 	bfextu	r0,r0,0x0,0x1
80006e9a:	e0 80 00 9d 	breq	80006fd4 <__svfscanf_r+0x698>
80006e9e:	58 0a       	cp.w	r10,0
80006ea0:	c0 30       	breq	80006ea6 <__svfscanf_r+0x56a>
80006ea2:	30 00       	mov	r0,0
80006ea4:	c4 48       	rjmp	80006f2c <__svfscanf_r+0x5f0>
80006ea6:	40 69       	lddsp	r9,sp[0x18]
80006ea8:	58 09       	cp.w	r9,0
80006eaa:	c2 50       	breq	80006ef4 <__svfscanf_r+0x5b8>
80006eac:	0e 34       	cp.w	r4,r7
80006eae:	c0 64       	brge	80006eba <__svfscanf_r+0x57e>
80006eb0:	fa c8 fc d4 	sub	r8,sp,-812
80006eb4:	f0 04 00 24 	add	r4,r8,r4<<0x2
80006eb8:	c2 78       	rjmp	80006f06 <__svfscanf_r+0x5ca>
80006eba:	fa ca fd 60 	sub	r10,sp,-672
80006ebe:	0c 99       	mov	r9,r6
80006ec0:	f4 07 00 2a 	add	r10,r10,r7<<0x2
80006ec4:	0e 98       	mov	r8,r7
80006ec6:	13 0b       	ld.w	r11,r9++
80006ec8:	14 ab       	st.w	r10++,r11
80006eca:	2f f8       	sub	r8,-1
80006ecc:	10 34       	cp.w	r4,r8
80006ece:	cf c4       	brge	80006ec6 <__svfscanf_r+0x58a>
80006ed0:	ee c9 ff ff 	sub	r9,r7,-1
80006ed4:	ee 08 11 ff 	rsub	r8,r7,-1
80006ed8:	f0 c7 ff ff 	sub	r7,r8,-1
80006edc:	2f e8       	sub	r8,-2
80006ede:	08 08       	add	r8,r4
80006ee0:	08 07       	add	r7,r4
80006ee2:	ec 08 00 26 	add	r6,r6,r8<<0x2
80006ee6:	f2 07 00 07 	add	r7,r9,r7
80006eea:	fa c8 fd 60 	sub	r8,sp,-672
80006eee:	f0 04 03 24 	ld.w	r4,r8[r4<<0x2]
80006ef2:	c1 c8       	rjmp	80006f2a <__svfscanf_r+0x5ee>
80006ef4:	e6 c8 ff ff 	sub	r8,r3,-1
80006ef8:	0e 33       	cp.w	r3,r7
80006efa:	c0 94       	brge	80006f0c <__svfscanf_r+0x5d0>
80006efc:	fa cb fc d4 	sub	r11,sp,-812
80006f00:	10 93       	mov	r3,r8
80006f02:	f6 04 00 24 	add	r4,r11,r4<<0x2
80006f06:	e8 f4 ff 74 	ld.w	r4,r4[-140]
80006f0a:	c1 08       	rjmp	80006f2a <__svfscanf_r+0x5ee>
80006f0c:	6c 04       	ld.w	r4,r6[0x0]
80006f0e:	2f c6       	sub	r6,-4
80006f10:	59 f7       	cp.w	r7,31
80006f12:	e0 89 00 0b 	brgt	80006f28 <__svfscanf_r+0x5ec>
80006f16:	10 93       	mov	r3,r8
80006f18:	fa ca fc d4 	sub	r10,sp,-812
80006f1c:	f4 07 00 28 	add	r8,r10,r7<<0x2
80006f20:	2f f7       	sub	r7,-1
80006f22:	f1 44 ff 74 	st.w	r8[-140],r4
80006f26:	c0 28       	rjmp	80006f2a <__svfscanf_r+0x5ee>
80006f28:	10 93       	mov	r3,r8
80006f2a:	08 90       	mov	r0,r4
80006f2c:	30 04       	mov	r4,0
80006f2e:	e0 61 01 9c 	mov	r1,412
80006f32:	62 08       	ld.w	r8,r1[0x0]
80006f34:	10 34       	cp.w	r4,r8
80006f36:	e0 80 07 71 	breq	80007e18 <__svfscanf_r+0x14dc>
80006f3a:	6a 08       	ld.w	r8,r5[0x0]
80006f3c:	11 89       	ld.ub	r9,r8[0x0]
80006f3e:	fa c8 fc d4 	sub	r8,sp,-812
80006f42:	08 08       	add	r8,r4
80006f44:	f1 69 fd 14 	st.b	r8[-748],r9
80006f48:	6a 18       	ld.w	r8,r5[0x4]
80006f4a:	20 18       	sub	r8,1
80006f4c:	8b 18       	st.w	r5[0x4],r8
80006f4e:	6a 08       	ld.w	r8,r5[0x0]
80006f50:	2f f8       	sub	r8,-1
80006f52:	30 8a       	mov	r10,8
80006f54:	8b 08       	st.w	r5[0x0],r8
80006f56:	30 0b       	mov	r11,0
80006f58:	fa cc fc e0 	sub	r12,sp,-800
80006f5c:	fe b0 ea f6 	rcall	80004548 <memset>
80006f60:	2f f4       	sub	r4,-1
80006f62:	fa c8 fc e0 	sub	r8,sp,-800
80006f66:	08 99       	mov	r9,r4
80006f68:	fa ca ff c0 	sub	r10,sp,-64
80006f6c:	00 9b       	mov	r11,r0
80006f6e:	40 4c       	lddsp	r12,sp[0x10]
80006f70:	e0 a0 15 20 	rcall	800099b0 <_mbrtowc_r>
80006f74:	5b fc       	cp.w	r12,-1
80006f76:	e0 80 07 51 	breq	80007e18 <__svfscanf_r+0x14dc>
80006f7a:	58 0c       	cp.w	r12,0
80006f7c:	c0 61       	brne	80006f88 <__svfscanf_r+0x64c>
80006f7e:	40 59       	lddsp	r9,sp[0x14]
80006f80:	58 09       	cp.w	r9,0
80006f82:	c0 51       	brne	80006f8c <__svfscanf_r+0x650>
80006f84:	81 09       	st.w	r0[0x0],r9
80006f86:	c0 38       	rjmp	80006f8c <__svfscanf_r+0x650>
80006f88:	5b ec       	cp.w	r12,-2
80006f8a:	c0 d0       	breq	80006fa4 <__svfscanf_r+0x668>
80006f8c:	40 38       	lddsp	r8,sp[0xc]
80006f8e:	40 5b       	lddsp	r11,sp[0x14]
80006f90:	08 08       	add	r8,r4
80006f92:	20 12       	sub	r2,1
80006f94:	58 0b       	cp.w	r11,0
80006f96:	f9 b4 01 00 	movne	r4,0
80006f9a:	f7 b0 00 fc 	subeq	r0,-4
80006f9e:	fb f4 00 05 	ld.weq	r4,sp[0x14]
80006fa2:	50 38       	stdsp	sp[0xc],r8
80006fa4:	6a 18       	ld.w	r8,r5[0x4]
80006fa6:	58 08       	cp.w	r8,0
80006fa8:	e0 89 00 0b 	brgt	80006fbe <__svfscanf_r+0x682>
80006fac:	0a 9b       	mov	r11,r5
80006fae:	40 4c       	lddsp	r12,sp[0x10]
80006fb0:	e0 a0 1a b8 	rcall	8000a520 <__srefill_r>
80006fb4:	c0 50       	breq	80006fbe <__svfscanf_r+0x682>
80006fb6:	58 04       	cp.w	r4,0
80006fb8:	c0 50       	breq	80006fc2 <__svfscanf_r+0x686>
80006fba:	e0 8f 07 2f 	bral	80007e18 <__svfscanf_r+0x14dc>
80006fbe:	58 02       	cp.w	r2,0
80006fc0:	cb 91       	brne	80006f32 <__svfscanf_r+0x5f6>
80006fc2:	40 5a       	lddsp	r10,sp[0x14]
80006fc4:	58 0a       	cp.w	r10,0
80006fc6:	fe 91 fc ca 	brne	8000695a <__svfscanf_r+0x1e>
80006fca:	40 79       	lddsp	r9,sp[0x1c]
80006fcc:	2f f9       	sub	r9,-1
80006fce:	50 79       	stdsp	sp[0x1c],r9
80006fd0:	fe 9f fc c5 	bral	8000695a <__svfscanf_r+0x1e>
80006fd4:	40 58       	lddsp	r8,sp[0x14]
80006fd6:	58 08       	cp.w	r8,0
80006fd8:	c1 d0       	breq	80007012 <__svfscanf_r+0x6d6>
80006fda:	6a 18       	ld.w	r8,r5[0x4]
80006fdc:	6a 09       	ld.w	r9,r5[0x0]
80006fde:	04 38       	cp.w	r8,r2
80006fe0:	c0 e4       	brge	80006ffc <__svfscanf_r+0x6c0>
80006fe2:	10 09       	add	r9,r8
80006fe4:	10 12       	sub	r2,r8
80006fe6:	8b 09       	st.w	r5[0x0],r9
80006fe8:	10 00       	add	r0,r8
80006fea:	0a 9b       	mov	r11,r5
80006fec:	40 4c       	lddsp	r12,sp[0x10]
80006fee:	e0 a0 1a 99 	rcall	8000a520 <__srefill_r>
80006ff2:	cf 40       	breq	80006fda <__svfscanf_r+0x69e>
80006ff4:	58 00       	cp.w	r0,0
80006ff6:	c0 81       	brne	80007006 <__svfscanf_r+0x6ca>
80006ff8:	e0 8f 07 10 	bral	80007e18 <__svfscanf_r+0x14dc>
80006ffc:	04 09       	add	r9,r2
80006ffe:	04 18       	sub	r8,r2
80007000:	8b 09       	st.w	r5[0x0],r9
80007002:	8b 18       	st.w	r5[0x4],r8
80007004:	04 00       	add	r0,r2
80007006:	40 3b       	lddsp	r11,sp[0xc]
80007008:	e0 0b 00 0b 	add	r11,r0,r11
8000700c:	50 3b       	stdsp	sp[0xc],r11
8000700e:	fe 9f fc a6 	bral	8000695a <__svfscanf_r+0x1e>
80007012:	40 6a       	lddsp	r10,sp[0x18]
80007014:	58 0a       	cp.w	r10,0
80007016:	c2 50       	breq	80007060 <__svfscanf_r+0x724>
80007018:	0e 34       	cp.w	r4,r7
8000701a:	c0 64       	brge	80007026 <__svfscanf_r+0x6ea>
8000701c:	fa c9 fc d4 	sub	r9,sp,-812
80007020:	f2 04 00 24 	add	r4,r9,r4<<0x2
80007024:	c2 78       	rjmp	80007072 <__svfscanf_r+0x736>
80007026:	fa ca fd 60 	sub	r10,sp,-672
8000702a:	0c 99       	mov	r9,r6
8000702c:	f4 07 00 2a 	add	r10,r10,r7<<0x2
80007030:	0e 98       	mov	r8,r7
80007032:	13 0b       	ld.w	r11,r9++
80007034:	14 ab       	st.w	r10++,r11
80007036:	2f f8       	sub	r8,-1
80007038:	10 34       	cp.w	r4,r8
8000703a:	cf c4       	brge	80007032 <__svfscanf_r+0x6f6>
8000703c:	ee c9 ff ff 	sub	r9,r7,-1
80007040:	ee 08 11 ff 	rsub	r8,r7,-1
80007044:	f0 c7 ff ff 	sub	r7,r8,-1
80007048:	2f e8       	sub	r8,-2
8000704a:	08 08       	add	r8,r4
8000704c:	08 07       	add	r7,r4
8000704e:	ec 08 00 26 	add	r6,r6,r8<<0x2
80007052:	f2 07 00 07 	add	r7,r9,r7
80007056:	fa c8 fd 60 	sub	r8,sp,-672
8000705a:	f0 04 03 24 	ld.w	r4,r8[r4<<0x2]
8000705e:	c1 c8       	rjmp	80007096 <__svfscanf_r+0x75a>
80007060:	e6 c8 ff ff 	sub	r8,r3,-1
80007064:	0e 33       	cp.w	r3,r7
80007066:	c0 94       	brge	80007078 <__svfscanf_r+0x73c>
80007068:	fa cb fc d4 	sub	r11,sp,-812
8000706c:	10 93       	mov	r3,r8
8000706e:	f6 04 00 24 	add	r4,r11,r4<<0x2
80007072:	e8 f4 ff 74 	ld.w	r4,r4[-140]
80007076:	c1 08       	rjmp	80007096 <__svfscanf_r+0x75a>
80007078:	6c 04       	ld.w	r4,r6[0x0]
8000707a:	2f c6       	sub	r6,-4
8000707c:	59 f7       	cp.w	r7,31
8000707e:	e0 89 00 0b 	brgt	80007094 <__svfscanf_r+0x758>
80007082:	10 93       	mov	r3,r8
80007084:	fa ca fc d4 	sub	r10,sp,-812
80007088:	f4 07 00 28 	add	r8,r10,r7<<0x2
8000708c:	2f f7       	sub	r7,-1
8000708e:	f1 44 ff 74 	st.w	r8[-140],r4
80007092:	c0 28       	rjmp	80007096 <__svfscanf_r+0x75a>
80007094:	10 93       	mov	r3,r8
80007096:	04 9a       	mov	r10,r2
80007098:	08 9c       	mov	r12,r4
8000709a:	0a 99       	mov	r9,r5
8000709c:	30 1b       	mov	r11,1
8000709e:	e0 a0 0f 3f 	rcall	80008f1c <fread>
800070a2:	e0 80 06 bb 	breq	80007e18 <__svfscanf_r+0x14dc>
800070a6:	40 39       	lddsp	r9,sp[0xc]
800070a8:	f8 09 00 09 	add	r9,r12,r9
800070ac:	50 39       	stdsp	sp[0xc],r9
800070ae:	c6 39       	rjmp	80007374 <__svfscanf_r+0xa38>
800070b0:	58 02       	cp.w	r2,0
800070b2:	f9 b2 00 ff 	moveq	r2,-1
800070b6:	e2 10 00 10 	andl	r0,0x10,COH
800070ba:	c2 60       	breq	80007106 <__svfscanf_r+0x7ca>
800070bc:	30 04       	mov	r4,0
800070be:	08 91       	mov	r1,r4
800070c0:	c1 28       	rjmp	800070e4 <__svfscanf_r+0x7a8>
800070c2:	6a 18       	ld.w	r8,r5[0x4]
800070c4:	8b 09       	st.w	r5[0x0],r9
800070c6:	20 18       	sub	r8,1
800070c8:	8b 18       	st.w	r5[0x4],r8
800070ca:	2f f4       	sub	r4,-1
800070cc:	08 32       	cp.w	r2,r4
800070ce:	e0 80 00 8c 	breq	800071e6 <__svfscanf_r+0x8aa>
800070d2:	58 08       	cp.w	r8,0
800070d4:	e0 89 00 08 	brgt	800070e4 <__svfscanf_r+0x7a8>
800070d8:	0a 9b       	mov	r11,r5
800070da:	40 4c       	lddsp	r12,sp[0x10]
800070dc:	e0 a0 1a 22 	rcall	8000a520 <__srefill_r>
800070e0:	e0 81 00 83 	brne	800071e6 <__svfscanf_r+0x8aa>
800070e4:	6a 08       	ld.w	r8,r5[0x0]
800070e6:	fa cb fc d4 	sub	r11,sp,-812
800070ea:	f0 c9 ff ff 	sub	r9,r8,-1
800070ee:	11 88       	ld.ub	r8,r8[0x0]
800070f0:	f6 08 00 08 	add	r8,r11,r8
800070f4:	f1 38 fe 74 	ld.ub	r8,r8[-396]
800070f8:	e2 08 18 00 	cp.b	r8,r1
800070fc:	ce 31       	brne	800070c2 <__svfscanf_r+0x786>
800070fe:	58 04       	cp.w	r4,0
80007100:	c7 31       	brne	800071e6 <__svfscanf_r+0x8aa>
80007102:	e0 8f 06 94 	bral	80007e2a <__svfscanf_r+0x14ee>
80007106:	40 6a       	lddsp	r10,sp[0x18]
80007108:	58 0a       	cp.w	r10,0
8000710a:	c2 50       	breq	80007154 <__svfscanf_r+0x818>
8000710c:	0e 34       	cp.w	r4,r7
8000710e:	c0 64       	brge	8000711a <__svfscanf_r+0x7de>
80007110:	fa c9 fc d4 	sub	r9,sp,-812
80007114:	f2 04 00 24 	add	r4,r9,r4<<0x2
80007118:	c2 78       	rjmp	80007166 <__svfscanf_r+0x82a>
8000711a:	fa ca fd 60 	sub	r10,sp,-672
8000711e:	0c 99       	mov	r9,r6
80007120:	f4 07 00 2a 	add	r10,r10,r7<<0x2
80007124:	0e 98       	mov	r8,r7
80007126:	13 0b       	ld.w	r11,r9++
80007128:	14 ab       	st.w	r10++,r11
8000712a:	2f f8       	sub	r8,-1
8000712c:	10 34       	cp.w	r4,r8
8000712e:	cf c4       	brge	80007126 <__svfscanf_r+0x7ea>
80007130:	ee c9 ff ff 	sub	r9,r7,-1
80007134:	ee 08 11 ff 	rsub	r8,r7,-1
80007138:	f0 c7 ff ff 	sub	r7,r8,-1
8000713c:	2f e8       	sub	r8,-2
8000713e:	08 08       	add	r8,r4
80007140:	08 07       	add	r7,r4
80007142:	ec 08 00 26 	add	r6,r6,r8<<0x2
80007146:	f2 07 00 07 	add	r7,r9,r7
8000714a:	fa c8 fd 60 	sub	r8,sp,-672
8000714e:	f0 04 03 24 	ld.w	r4,r8[r4<<0x2]
80007152:	c1 c8       	rjmp	8000718a <__svfscanf_r+0x84e>
80007154:	e6 c8 ff ff 	sub	r8,r3,-1
80007158:	0e 33       	cp.w	r3,r7
8000715a:	c0 94       	brge	8000716c <__svfscanf_r+0x830>
8000715c:	fa cb fc d4 	sub	r11,sp,-812
80007160:	10 93       	mov	r3,r8
80007162:	f6 04 00 24 	add	r4,r11,r4<<0x2
80007166:	e8 f4 ff 74 	ld.w	r4,r4[-140]
8000716a:	c1 08       	rjmp	8000718a <__svfscanf_r+0x84e>
8000716c:	6c 04       	ld.w	r4,r6[0x0]
8000716e:	2f c6       	sub	r6,-4
80007170:	59 f7       	cp.w	r7,31
80007172:	e0 89 00 0b 	brgt	80007188 <__svfscanf_r+0x84c>
80007176:	10 93       	mov	r3,r8
80007178:	fa ca fc d4 	sub	r10,sp,-812
8000717c:	f4 07 00 28 	add	r8,r10,r7<<0x2
80007180:	2f f7       	sub	r7,-1
80007182:	f1 44 ff 74 	st.w	r8[-140],r4
80007186:	c0 28       	rjmp	8000718a <__svfscanf_r+0x84e>
80007188:	10 93       	mov	r3,r8
8000718a:	08 91       	mov	r1,r4
8000718c:	30 00       	mov	r0,0
8000718e:	c1 68       	rjmp	800071ba <__svfscanf_r+0x87e>
80007190:	6a 19       	ld.w	r9,r5[0x4]
80007192:	20 19       	sub	r9,1
80007194:	8b 19       	st.w	r5[0x4],r9
80007196:	11 39       	ld.ub	r9,r8++
80007198:	02 c9       	st.b	r1++,r9
8000719a:	8b 08       	st.w	r5[0x0],r8
8000719c:	58 02       	cp.w	r2,0
8000719e:	c1 b0       	breq	800071d4 <__svfscanf_r+0x898>
800071a0:	6a 18       	ld.w	r8,r5[0x4]
800071a2:	58 08       	cp.w	r8,0
800071a4:	e0 89 00 0b 	brgt	800071ba <__svfscanf_r+0x87e>
800071a8:	0a 9b       	mov	r11,r5
800071aa:	40 4c       	lddsp	r12,sp[0x10]
800071ac:	e0 a0 19 ba 	rcall	8000a520 <__srefill_r>
800071b0:	c0 50       	breq	800071ba <__svfscanf_r+0x87e>
800071b2:	08 31       	cp.w	r1,r4
800071b4:	c1 01       	brne	800071d4 <__svfscanf_r+0x898>
800071b6:	e0 8f 06 31 	bral	80007e18 <__svfscanf_r+0x14dc>
800071ba:	6a 09       	ld.w	r9,r5[0x0]
800071bc:	fa cb fc d4 	sub	r11,sp,-812
800071c0:	12 98       	mov	r8,r9
800071c2:	20 12       	sub	r2,1
800071c4:	13 89       	ld.ub	r9,r9[0x0]
800071c6:	f6 09 00 09 	add	r9,r11,r9
800071ca:	f3 39 fe 74 	ld.ub	r9,r9[-396]
800071ce:	e0 09 18 00 	cp.b	r9,r0
800071d2:	cd f1       	brne	80007190 <__svfscanf_r+0x854>
800071d4:	e2 04 01 04 	sub	r4,r1,r4
800071d8:	e0 80 06 29 	breq	80007e2a <__svfscanf_r+0x14ee>
800071dc:	40 7a       	lddsp	r10,sp[0x1c]
800071de:	2f fa       	sub	r10,-1
800071e0:	50 7a       	stdsp	sp[0x1c],r10
800071e2:	30 08       	mov	r8,0
800071e4:	a2 88       	st.b	r1[0x0],r8
800071e6:	40 39       	lddsp	r9,sp[0xc]
800071e8:	08 09       	add	r9,r4
800071ea:	50 39       	stdsp	sp[0xc],r9
800071ec:	fe 9f fb b7 	bral	8000695a <__svfscanf_r+0x1e>
800071f0:	00 98       	mov	r8,r0
800071f2:	e2 18 00 10 	andl	r8,0x10,COH
800071f6:	50 58       	stdsp	sp[0x14],r8
800071f8:	58 02       	cp.w	r2,0
800071fa:	f9 b2 00 ff 	moveq	r2,-1
800071fe:	e1 d0 c0 01 	bfextu	r0,r0,0x0,0x1
80007202:	e0 80 00 be 	breq	8000737e <__svfscanf_r+0xa42>
80007206:	58 08       	cp.w	r8,0
80007208:	c0 40       	breq	80007210 <__svfscanf_r+0x8d4>
8000720a:	fa c0 fc d8 	sub	r0,sp,-808
8000720e:	c4 48       	rjmp	80007296 <__svfscanf_r+0x95a>
80007210:	40 6b       	lddsp	r11,sp[0x18]
80007212:	58 0b       	cp.w	r11,0
80007214:	c2 50       	breq	8000725e <__svfscanf_r+0x922>
80007216:	0e 34       	cp.w	r4,r7
80007218:	c0 64       	brge	80007224 <__svfscanf_r+0x8e8>
8000721a:	fa ca fc d4 	sub	r10,sp,-812
8000721e:	f4 04 00 24 	add	r4,r10,r4<<0x2
80007222:	c2 78       	rjmp	80007270 <__svfscanf_r+0x934>
80007224:	fa ca fd 60 	sub	r10,sp,-672
80007228:	0c 99       	mov	r9,r6
8000722a:	f4 07 00 2a 	add	r10,r10,r7<<0x2
8000722e:	0e 98       	mov	r8,r7
80007230:	13 0b       	ld.w	r11,r9++
80007232:	14 ab       	st.w	r10++,r11
80007234:	2f f8       	sub	r8,-1
80007236:	10 34       	cp.w	r4,r8
80007238:	cf c4       	brge	80007230 <__svfscanf_r+0x8f4>
8000723a:	ee c9 ff ff 	sub	r9,r7,-1
8000723e:	ee 08 11 ff 	rsub	r8,r7,-1
80007242:	f0 c7 ff ff 	sub	r7,r8,-1
80007246:	2f e8       	sub	r8,-2
80007248:	08 08       	add	r8,r4
8000724a:	08 07       	add	r7,r4
8000724c:	ec 08 00 26 	add	r6,r6,r8<<0x2
80007250:	f2 07 00 07 	add	r7,r9,r7
80007254:	fa c8 fd 60 	sub	r8,sp,-672
80007258:	f0 04 03 24 	ld.w	r4,r8[r4<<0x2]
8000725c:	c1 c8       	rjmp	80007294 <__svfscanf_r+0x958>
8000725e:	e6 c8 ff ff 	sub	r8,r3,-1
80007262:	0e 33       	cp.w	r3,r7
80007264:	c0 94       	brge	80007276 <__svfscanf_r+0x93a>
80007266:	fa c9 fc d4 	sub	r9,sp,-812
8000726a:	10 93       	mov	r3,r8
8000726c:	f2 04 00 24 	add	r4,r9,r4<<0x2
80007270:	e8 f4 ff 74 	ld.w	r4,r4[-140]
80007274:	c1 08       	rjmp	80007294 <__svfscanf_r+0x958>
80007276:	6c 04       	ld.w	r4,r6[0x0]
80007278:	2f c6       	sub	r6,-4
8000727a:	59 f7       	cp.w	r7,31
8000727c:	e0 89 00 0b 	brgt	80007292 <__svfscanf_r+0x956>
80007280:	10 93       	mov	r3,r8
80007282:	fa cb fc d4 	sub	r11,sp,-812
80007286:	f6 07 00 28 	add	r8,r11,r7<<0x2
8000728a:	2f f7       	sub	r7,-1
8000728c:	f1 44 ff 74 	st.w	r8[-140],r4
80007290:	c0 28       	rjmp	80007294 <__svfscanf_r+0x958>
80007292:	10 93       	mov	r3,r8
80007294:	08 90       	mov	r0,r4
80007296:	30 01       	mov	r1,0
80007298:	e0 64 01 9c 	mov	r4,412
8000729c:	c5 68       	rjmp	80007348 <__svfscanf_r+0xa0c>
8000729e:	68 08       	ld.w	r8,r4[0x0]
800072a0:	10 31       	cp.w	r1,r8
800072a2:	e0 80 05 bb 	breq	80007e18 <__svfscanf_r+0x14dc>
800072a6:	fa c8 fc d4 	sub	r8,sp,-812
800072aa:	02 08       	add	r8,r1
800072ac:	f1 69 fd 14 	st.b	r8[-748],r9
800072b0:	6a 18       	ld.w	r8,r5[0x4]
800072b2:	20 18       	sub	r8,1
800072b4:	8b 18       	st.w	r5[0x4],r8
800072b6:	6a 08       	ld.w	r8,r5[0x0]
800072b8:	2f f8       	sub	r8,-1
800072ba:	30 8a       	mov	r10,8
800072bc:	8b 08       	st.w	r5[0x0],r8
800072be:	30 0b       	mov	r11,0
800072c0:	fa cc fc e0 	sub	r12,sp,-800
800072c4:	fe b0 e9 42 	rcall	80004548 <memset>
800072c8:	2f f1       	sub	r1,-1
800072ca:	fa c8 fc e0 	sub	r8,sp,-800
800072ce:	02 99       	mov	r9,r1
800072d0:	fa ca ff c0 	sub	r10,sp,-64
800072d4:	00 9b       	mov	r11,r0
800072d6:	40 4c       	lddsp	r12,sp[0x10]
800072d8:	e0 a0 13 6c 	rcall	800099b0 <_mbrtowc_r>
800072dc:	5b fc       	cp.w	r12,-1
800072de:	e0 80 05 9d 	breq	80007e18 <__svfscanf_r+0x14dc>
800072e2:	58 0c       	cp.w	r12,0
800072e4:	c0 31       	brne	800072ea <__svfscanf_r+0x9ae>
800072e6:	81 0c       	st.w	r0[0x0],r12
800072e8:	c0 38       	rjmp	800072ee <__svfscanf_r+0x9b2>
800072ea:	5b ec       	cp.w	r12,-2
800072ec:	c2 10       	breq	8000732e <__svfscanf_r+0x9f2>
800072ee:	60 0c       	ld.w	r12,r0[0x0]
800072f0:	e0 a0 10 d0 	rcall	80009490 <iswspace>
800072f4:	c1 10       	breq	80007316 <__svfscanf_r+0x9da>
800072f6:	fa c4 fc d4 	sub	r4,sp,-812
800072fa:	02 04       	add	r4,r1
800072fc:	e8 c4 02 ed 	sub	r4,r4,749
80007300:	c0 88       	rjmp	80007310 <__svfscanf_r+0x9d4>
80007302:	09 8b       	ld.ub	r11,r4[0x0]
80007304:	20 11       	sub	r1,1
80007306:	20 14       	sub	r4,1
80007308:	0a 9a       	mov	r10,r5
8000730a:	40 4c       	lddsp	r12,sp[0x10]
8000730c:	e0 a0 23 f6 	rcall	8000baf8 <_ungetc_r>
80007310:	58 01       	cp.w	r1,0
80007312:	cf 81       	brne	80007302 <__svfscanf_r+0x9c6>
80007314:	c2 b8       	rjmp	8000736a <__svfscanf_r+0xa2e>
80007316:	40 3a       	lddsp	r10,sp[0xc]
80007318:	40 59       	lddsp	r9,sp[0x14]
8000731a:	02 0a       	add	r10,r1
8000731c:	20 12       	sub	r2,1
8000731e:	58 09       	cp.w	r9,0
80007320:	f8 01 17 10 	movne	r1,r12
80007324:	f7 b0 00 fc 	subeq	r0,-4
80007328:	fb f1 00 05 	ld.weq	r1,sp[0x14]
8000732c:	50 3a       	stdsp	sp[0xc],r10
8000732e:	6a 18       	ld.w	r8,r5[0x4]
80007330:	58 08       	cp.w	r8,0
80007332:	e0 89 00 0b 	brgt	80007348 <__svfscanf_r+0xa0c>
80007336:	0a 9b       	mov	r11,r5
80007338:	40 4c       	lddsp	r12,sp[0x10]
8000733a:	e0 a0 18 f3 	rcall	8000a520 <__srefill_r>
8000733e:	c0 50       	breq	80007348 <__svfscanf_r+0xa0c>
80007340:	58 01       	cp.w	r1,0
80007342:	e0 81 05 6b 	brne	80007e18 <__svfscanf_r+0x14dc>
80007346:	c1 28       	rjmp	8000736a <__svfscanf_r+0xa2e>
80007348:	6a 08       	ld.w	r8,r5[0x0]
8000734a:	58 02       	cp.w	r2,0
8000734c:	5f 1a       	srne	r10
8000734e:	11 89       	ld.ub	r9,r8[0x0]
80007350:	e0 6b 01 98 	mov	r11,408
80007354:	76 08       	ld.w	r8,r11[0x0]
80007356:	f0 09 07 08 	ld.ub	r8,r8[r9]
8000735a:	ec 18 00 08 	eorl	r8,0x8
8000735e:	f5 e8 02 38 	and	r8,r10,r8>>0x3
80007362:	30 0a       	mov	r10,0
80007364:	f4 08 18 00 	cp.b	r8,r10
80007368:	c9 b1       	brne	8000729e <__svfscanf_r+0x962>
8000736a:	40 59       	lddsp	r9,sp[0x14]
8000736c:	58 09       	cp.w	r9,0
8000736e:	fe 91 fa f6 	brne	8000695a <__svfscanf_r+0x1e>
80007372:	81 09       	st.w	r0[0x0],r9
80007374:	40 78       	lddsp	r8,sp[0x1c]
80007376:	2f f8       	sub	r8,-1
80007378:	50 78       	stdsp	sp[0x1c],r8
8000737a:	fe 9f fa f0 	bral	8000695a <__svfscanf_r+0x1e>
8000737e:	40 5b       	lddsp	r11,sp[0x14]
80007380:	58 0b       	cp.w	r11,0
80007382:	c2 30       	breq	800073c8 <__svfscanf_r+0xa8c>
80007384:	c1 08       	rjmp	800073a4 <__svfscanf_r+0xa68>
80007386:	6a 18       	ld.w	r8,r5[0x4]
80007388:	8b 0a       	st.w	r5[0x0],r10
8000738a:	20 18       	sub	r8,1
8000738c:	8b 18       	st.w	r5[0x4],r8
8000738e:	2f f0       	sub	r0,-1
80007390:	00 32       	cp.w	r2,r0
80007392:	c1 50       	breq	800073bc <__svfscanf_r+0xa80>
80007394:	58 08       	cp.w	r8,0
80007396:	e0 89 00 07 	brgt	800073a4 <__svfscanf_r+0xa68>
8000739a:	0a 9b       	mov	r11,r5
8000739c:	40 4c       	lddsp	r12,sp[0x10]
8000739e:	e0 a0 18 c1 	rcall	8000a520 <__srefill_r>
800073a2:	c0 d1       	brne	800073bc <__svfscanf_r+0xa80>
800073a4:	6a 08       	ld.w	r8,r5[0x0]
800073a6:	e0 6b 01 98 	mov	r11,408
800073aa:	f0 ca ff ff 	sub	r10,r8,-1
800073ae:	76 09       	ld.w	r9,r11[0x0]
800073b0:	11 88       	ld.ub	r8,r8[0x0]
800073b2:	f2 08 07 08 	ld.ub	r8,r9[r8]
800073b6:	ed b8 00 03 	bld	r8,0x3
800073ba:	ce 61       	brne	80007386 <__svfscanf_r+0xa4a>
800073bc:	40 3a       	lddsp	r10,sp[0xc]
800073be:	00 0a       	add	r10,r0
800073c0:	50 3a       	stdsp	sp[0xc],r10
800073c2:	fe 9f fa cc 	bral	8000695a <__svfscanf_r+0x1e>
800073c6:	d7 03       	nop
800073c8:	40 69       	lddsp	r9,sp[0x18]
800073ca:	58 09       	cp.w	r9,0
800073cc:	c2 50       	breq	80007416 <__svfscanf_r+0xada>
800073ce:	0e 34       	cp.w	r4,r7
800073d0:	c0 64       	brge	800073dc <__svfscanf_r+0xaa0>
800073d2:	fa c8 fc d4 	sub	r8,sp,-812
800073d6:	f0 04 00 24 	add	r4,r8,r4<<0x2
800073da:	c2 78       	rjmp	80007428 <__svfscanf_r+0xaec>
800073dc:	fa ca fd 60 	sub	r10,sp,-672
800073e0:	0c 99       	mov	r9,r6
800073e2:	f4 07 00 2a 	add	r10,r10,r7<<0x2
800073e6:	0e 98       	mov	r8,r7
800073e8:	13 0b       	ld.w	r11,r9++
800073ea:	14 ab       	st.w	r10++,r11
800073ec:	2f f8       	sub	r8,-1
800073ee:	10 34       	cp.w	r4,r8
800073f0:	cf c4       	brge	800073e8 <__svfscanf_r+0xaac>
800073f2:	ee c9 ff ff 	sub	r9,r7,-1
800073f6:	ee 08 11 ff 	rsub	r8,r7,-1
800073fa:	f0 c7 ff ff 	sub	r7,r8,-1
800073fe:	2f e8       	sub	r8,-2
80007400:	08 08       	add	r8,r4
80007402:	08 07       	add	r7,r4
80007404:	ec 08 00 26 	add	r6,r6,r8<<0x2
80007408:	f2 07 00 07 	add	r7,r9,r7
8000740c:	fa c8 fd 60 	sub	r8,sp,-672
80007410:	f0 04 03 24 	ld.w	r4,r8[r4<<0x2]
80007414:	c1 c8       	rjmp	8000744c <__svfscanf_r+0xb10>
80007416:	e6 c8 ff ff 	sub	r8,r3,-1
8000741a:	0e 33       	cp.w	r3,r7
8000741c:	c0 94       	brge	8000742e <__svfscanf_r+0xaf2>
8000741e:	fa cb fc d4 	sub	r11,sp,-812
80007422:	10 93       	mov	r3,r8
80007424:	f6 04 00 24 	add	r4,r11,r4<<0x2
80007428:	e8 f4 ff 74 	ld.w	r4,r4[-140]
8000742c:	c1 08       	rjmp	8000744c <__svfscanf_r+0xb10>
8000742e:	6c 04       	ld.w	r4,r6[0x0]
80007430:	2f c6       	sub	r6,-4
80007432:	59 f7       	cp.w	r7,31
80007434:	e0 89 00 0b 	brgt	8000744a <__svfscanf_r+0xb0e>
80007438:	10 93       	mov	r3,r8
8000743a:	fa ca fc d4 	sub	r10,sp,-812
8000743e:	f4 07 00 28 	add	r8,r10,r7<<0x2
80007442:	2f f7       	sub	r7,-1
80007444:	f1 44 ff 74 	st.w	r8[-140],r4
80007448:	c0 28       	rjmp	8000744c <__svfscanf_r+0xb10>
8000744a:	10 93       	mov	r3,r8
8000744c:	08 91       	mov	r1,r4
8000744e:	c1 28       	rjmp	80007472 <__svfscanf_r+0xb36>
80007450:	6a 19       	ld.w	r9,r5[0x4]
80007452:	20 19       	sub	r9,1
80007454:	8b 19       	st.w	r5[0x4],r9
80007456:	11 39       	ld.ub	r9,r8++
80007458:	02 c9       	st.b	r1++,r9
8000745a:	8b 08       	st.w	r5[0x0],r8
8000745c:	58 02       	cp.w	r2,0
8000745e:	c1 60       	breq	8000748a <__svfscanf_r+0xb4e>
80007460:	6a 18       	ld.w	r8,r5[0x4]
80007462:	58 08       	cp.w	r8,0
80007464:	e0 89 00 07 	brgt	80007472 <__svfscanf_r+0xb36>
80007468:	0a 9b       	mov	r11,r5
8000746a:	40 4c       	lddsp	r12,sp[0x10]
8000746c:	e0 a0 18 5a 	rcall	8000a520 <__srefill_r>
80007470:	c0 d1       	brne	8000748a <__svfscanf_r+0xb4e>
80007472:	6a 09       	ld.w	r9,r5[0x0]
80007474:	e0 6b 01 98 	mov	r11,408
80007478:	12 98       	mov	r8,r9
8000747a:	76 0a       	ld.w	r10,r11[0x0]
8000747c:	13 89       	ld.ub	r9,r9[0x0]
8000747e:	20 12       	sub	r2,1
80007480:	f4 09 07 09 	ld.ub	r9,r10[r9]
80007484:	ed b9 00 03 	bld	r9,0x3
80007488:	ce 41       	brne	80007450 <__svfscanf_r+0xb14>
8000748a:	40 3a       	lddsp	r10,sp[0xc]
8000748c:	40 79       	lddsp	r9,sp[0x1c]
8000748e:	f4 04 01 04 	sub	r4,r10,r4
80007492:	2f f9       	sub	r9,-1
80007494:	e2 04 00 04 	add	r4,r1,r4
80007498:	50 79       	stdsp	sp[0x1c],r9
8000749a:	50 34       	stdsp	sp[0xc],r4
8000749c:	30 08       	mov	r8,0
8000749e:	a2 88       	st.b	r1[0x0],r8
800074a0:	fe 9f fa 5d 	bral	8000695a <__svfscanf_r+0x1e>
800074a4:	e4 c9 00 01 	sub	r9,r2,1
800074a8:	e4 c8 01 5d 	sub	r8,r2,349
800074ac:	e0 6a 01 5d 	mov	r10,349
800074b0:	e0 49 01 5c 	cp.w	r9,348
800074b4:	f9 b8 08 00 	movls	r8,0
800074b8:	f4 02 17 b0 	movhi	r2,r10
800074bc:	30 0b       	mov	r11,0
800074be:	50 c7       	stdsp	sp[0x30],r7
800074c0:	50 b3       	stdsp	sp[0x2c],r3
800074c2:	e8 10 0d 80 	orl	r0,0xd80
800074c6:	50 5b       	stdsp	sp[0x14],r11
800074c8:	fa c1 ff c0 	sub	r1,sp,-64
800074cc:	35 89       	mov	r9,88
800074ce:	40 87       	lddsp	r7,sp[0x20]
800074d0:	10 93       	mov	r3,r8
800074d2:	6a 0a       	ld.w	r10,r5[0x0]
800074d4:	33 98       	mov	r8,57
800074d6:	15 8a       	ld.ub	r10,r10[0x0]
800074d8:	f0 0a 18 00 	cp.b	r10,r8
800074dc:	e0 8b 00 15 	brhi	80007506 <__svfscanf_r+0xbca>
800074e0:	33 8b       	mov	r11,56
800074e2:	f6 0a 18 00 	cp.b	r10,r11
800074e6:	c4 b2       	brcc	8000757c <__svfscanf_r+0xc40>
800074e8:	33 0b       	mov	r11,48
800074ea:	f6 0a 18 00 	cp.b	r10,r11
800074ee:	c2 70       	breq	8000753c <__svfscanf_r+0xc00>
800074f0:	e0 8b 00 41 	brhi	80007572 <__svfscanf_r+0xc36>
800074f4:	32 bb       	mov	r11,43
800074f6:	f6 0a 18 00 	cp.b	r10,r11
800074fa:	c4 f0       	breq	80007598 <__svfscanf_r+0xc5c>
800074fc:	32 db       	mov	r11,45
800074fe:	f6 0a 18 00 	cp.b	r10,r11
80007502:	c6 f1       	brne	800075e0 <__svfscanf_r+0xca4>
80007504:	c4 a8       	rjmp	80007598 <__svfscanf_r+0xc5c>
80007506:	f2 0a 18 00 	cp.b	r10,r9
8000750a:	c4 c0       	breq	800075a2 <__svfscanf_r+0xc66>
8000750c:	e0 8b 00 0a 	brhi	80007520 <__svfscanf_r+0xbe4>
80007510:	f4 cb 00 41 	sub	r11,r10,65
80007514:	30 58       	mov	r8,5
80007516:	f0 0b 18 00 	cp.b	r11,r8
8000751a:	e0 8b 00 63 	brhi	800075e0 <__svfscanf_r+0xca4>
8000751e:	c3 78       	rjmp	8000758c <__svfscanf_r+0xc50>
80007520:	36 1b       	mov	r11,97
80007522:	f6 0a 18 00 	cp.b	r10,r11
80007526:	c5 d3       	brcs	800075e0 <__svfscanf_r+0xca4>
80007528:	36 68       	mov	r8,102
8000752a:	f0 0a 18 00 	cp.b	r10,r8
8000752e:	e0 88 00 2f 	brls	8000758c <__svfscanf_r+0xc50>
80007532:	37 8b       	mov	r11,120
80007534:	f6 0a 18 00 	cp.b	r10,r11
80007538:	c5 41       	brne	800075e0 <__svfscanf_r+0xca4>
8000753a:	c3 48       	rjmp	800075a2 <__svfscanf_r+0xc66>
8000753c:	ed b0 00 0b 	bld	r0,0xb
80007540:	c3 b1       	brne	800075b6 <__svfscanf_r+0xc7a>
80007542:	00 9b       	mov	r11,r0
80007544:	a9 bb       	sbr	r11,0x9
80007546:	58 07       	cp.w	r7,0
80007548:	f6 00 17 00 	moveq	r0,r11
8000754c:	f9 b7 00 08 	moveq	r7,8
80007550:	ed b0 00 0a 	bld	r0,0xa
80007554:	c0 41       	brne	8000755c <__svfscanf_r+0xc20>
80007556:	e0 10 fa 7f 	andl	r0,0xfa7f
8000755a:	c2 e8       	rjmp	800075b6 <__svfscanf_r+0xc7a>
8000755c:	40 5a       	lddsp	r10,sp[0x14]
8000755e:	58 03       	cp.w	r3,0
80007560:	f7 b3 01 01 	subne	r3,1
80007564:	f7 b2 01 ff 	subne	r2,-1
80007568:	2f fa       	sub	r10,-1
8000756a:	e0 10 fc 7f 	andl	r0,0xfc7f
8000756e:	50 5a       	stdsp	sp[0x14],r10
80007570:	c2 48       	rjmp	800075b8 <__svfscanf_r+0xc7c>
80007572:	fe c8 9a 06 	sub	r8,pc,-26106
80007576:	f0 07 04 17 	ld.sh	r7,r8[r7<<0x1]
8000757a:	c0 c8       	rjmp	80007592 <__svfscanf_r+0xc56>
8000757c:	fe cb 9a 10 	sub	r11,pc,-26096
80007580:	f6 07 04 17 	ld.sh	r7,r11[r7<<0x1]
80007584:	58 87       	cp.w	r7,8
80007586:	e0 89 00 06 	brgt	80007592 <__svfscanf_r+0xc56>
8000758a:	c2 b8       	rjmp	800075e0 <__svfscanf_r+0xca4>
8000758c:	58 a7       	cp.w	r7,10
8000758e:	e0 8a 00 29 	brle	800075e0 <__svfscanf_r+0xca4>
80007592:	e0 10 f4 7f 	andl	r0,0xf47f
80007596:	c1 08       	rjmp	800075b6 <__svfscanf_r+0xc7a>
80007598:	ed b0 00 07 	bld	r0,0x7
8000759c:	c2 21       	brne	800075e0 <__svfscanf_r+0xca4>
8000759e:	a7 d0       	cbr	r0,0x7
800075a0:	c0 b8       	rjmp	800075b6 <__svfscanf_r+0xc7a>
800075a2:	00 9b       	mov	r11,r0
800075a4:	e2 1b 06 00 	andl	r11,0x600,COH
800075a8:	e0 4b 02 00 	cp.w	r11,512
800075ac:	c1 a1       	brne	800075e0 <__svfscanf_r+0xca4>
800075ae:	a9 d0       	cbr	r0,0x9
800075b0:	31 07       	mov	r7,16
800075b2:	e8 10 05 00 	orl	r0,0x500
800075b6:	02 ca       	st.b	r1++,r10
800075b8:	6a 1a       	ld.w	r10,r5[0x4]
800075ba:	20 1a       	sub	r10,1
800075bc:	8b 1a       	st.w	r5[0x4],r10
800075be:	58 0a       	cp.w	r10,0
800075c0:	e0 8a 00 06 	brle	800075cc <__svfscanf_r+0xc90>
800075c4:	6a 0a       	ld.w	r10,r5[0x0]
800075c6:	2f fa       	sub	r10,-1
800075c8:	8b 0a       	st.w	r5[0x0],r10
800075ca:	c0 88       	rjmp	800075da <__svfscanf_r+0xc9e>
800075cc:	50 19       	stdsp	sp[0x4],r9
800075ce:	0a 9b       	mov	r11,r5
800075d0:	40 4c       	lddsp	r12,sp[0x10]
800075d2:	e0 a0 17 a7 	rcall	8000a520 <__srefill_r>
800075d6:	40 19       	lddsp	r9,sp[0x4]
800075d8:	c0 41       	brne	800075e0 <__svfscanf_r+0xca4>
800075da:	20 12       	sub	r2,1
800075dc:	fe 91 ff 7b 	brne	800074d2 <__svfscanf_r+0xb96>
800075e0:	50 87       	stdsp	sp[0x20],r7
800075e2:	40 b3       	lddsp	r3,sp[0x2c]
800075e4:	40 c7       	lddsp	r7,sp[0x30]
800075e6:	ed b0 00 08 	bld	r0,0x8
800075ea:	c1 01       	brne	8000760a <__svfscanf_r+0xcce>
800075ec:	fa c8 ff c0 	sub	r8,sp,-64
800075f0:	10 31       	cp.w	r1,r8
800075f2:	e0 88 00 07 	brls	80007600 <__svfscanf_r+0xcc4>
800075f6:	0a 9a       	mov	r10,r5
800075f8:	03 7b       	ld.ub	r11,--r1
800075fa:	40 4c       	lddsp	r12,sp[0x10]
800075fc:	e0 a0 22 7e 	rcall	8000baf8 <_ungetc_r>
80007600:	fa c8 ff c0 	sub	r8,sp,-64
80007604:	10 31       	cp.w	r1,r8
80007606:	e0 80 04 12 	breq	80007e2a <__svfscanf_r+0x14ee>
8000760a:	00 9a       	mov	r10,r0
8000760c:	e2 1a 00 10 	andl	r10,0x10,COH
80007610:	e0 81 01 49 	brne	800078a2 <__svfscanf_r+0xf66>
80007614:	a2 8a       	st.b	r1[0x0],r10
80007616:	fa c2 ff c0 	sub	r2,sp,-64
8000761a:	40 89       	lddsp	r9,sp[0x20]
8000761c:	04 9b       	mov	r11,r2
8000761e:	40 4c       	lddsp	r12,sp[0x10]
80007620:	40 a8       	lddsp	r8,sp[0x28]
80007622:	5d 18       	icall	r8
80007624:	ed b0 00 05 	bld	r0,0x5
80007628:	c2 b1       	brne	8000767e <__svfscanf_r+0xd42>
8000762a:	40 6b       	lddsp	r11,sp[0x18]
8000762c:	58 0b       	cp.w	r11,0
8000762e:	c1 40       	breq	80007656 <__svfscanf_r+0xd1a>
80007630:	0e 34       	cp.w	r4,r7
80007632:	c0 64       	brge	8000763e <__svfscanf_r+0xd02>
80007634:	fa ca fc d4 	sub	r10,sp,-812
80007638:	f4 04 00 24 	add	r4,r10,r4<<0x2
8000763c:	c1 d9       	rjmp	80007876 <__svfscanf_r+0xf3a>
8000763e:	fa ca fd 60 	sub	r10,sp,-672
80007642:	0c 99       	mov	r9,r6
80007644:	f4 07 00 2a 	add	r10,r10,r7<<0x2
80007648:	0e 98       	mov	r8,r7
8000764a:	13 0b       	ld.w	r11,r9++
8000764c:	14 ab       	st.w	r10++,r11
8000764e:	2f f8       	sub	r8,-1
80007650:	10 34       	cp.w	r4,r8
80007652:	cf c4       	brge	8000764a <__svfscanf_r+0xd0e>
80007654:	cf 68       	rjmp	80007840 <__svfscanf_r+0xf04>
80007656:	e6 c8 ff ff 	sub	r8,r3,-1
8000765a:	0e 33       	cp.w	r3,r7
8000765c:	c0 64       	brge	80007668 <__svfscanf_r+0xd2c>
8000765e:	fa c9 fc d4 	sub	r9,sp,-812
80007662:	f2 04 00 24 	add	r4,r9,r4<<0x2
80007666:	c0 79       	rjmp	80007874 <__svfscanf_r+0xf38>
80007668:	6c 04       	ld.w	r4,r6[0x0]
8000766a:	2f c6       	sub	r6,-4
8000766c:	59 f7       	cp.w	r7,31
8000766e:	e0 89 01 15 	brgt	80007898 <__svfscanf_r+0xf5c>
80007672:	10 93       	mov	r3,r8
80007674:	fa cb fc d4 	sub	r11,sp,-812
80007678:	f6 07 00 28 	add	r8,r11,r7<<0x2
8000767c:	c0 a9       	rjmp	80007890 <__svfscanf_r+0xf54>
8000767e:	ed b0 00 02 	bld	r0,0x2
80007682:	c4 51       	brne	8000770c <__svfscanf_r+0xdd0>
80007684:	40 6a       	lddsp	r10,sp[0x18]
80007686:	58 0a       	cp.w	r10,0
80007688:	c2 50       	breq	800076d2 <__svfscanf_r+0xd96>
8000768a:	0e 34       	cp.w	r4,r7
8000768c:	c0 64       	brge	80007698 <__svfscanf_r+0xd5c>
8000768e:	fa c9 fc d4 	sub	r9,sp,-812
80007692:	f2 04 00 24 	add	r4,r9,r4<<0x2
80007696:	c2 78       	rjmp	800076e4 <__svfscanf_r+0xda8>
80007698:	fa ca fd 60 	sub	r10,sp,-672
8000769c:	0c 99       	mov	r9,r6
8000769e:	f4 07 00 2a 	add	r10,r10,r7<<0x2
800076a2:	0e 98       	mov	r8,r7
800076a4:	13 0b       	ld.w	r11,r9++
800076a6:	14 ab       	st.w	r10++,r11
800076a8:	2f f8       	sub	r8,-1
800076aa:	10 34       	cp.w	r4,r8
800076ac:	cf c4       	brge	800076a4 <__svfscanf_r+0xd68>
800076ae:	ee c9 ff ff 	sub	r9,r7,-1
800076b2:	ee 08 11 ff 	rsub	r8,r7,-1
800076b6:	f0 c7 ff ff 	sub	r7,r8,-1
800076ba:	2f e8       	sub	r8,-2
800076bc:	08 08       	add	r8,r4
800076be:	08 07       	add	r7,r4
800076c0:	ec 08 00 26 	add	r6,r6,r8<<0x2
800076c4:	f2 07 00 07 	add	r7,r9,r7
800076c8:	fa c8 fd 60 	sub	r8,sp,-672
800076cc:	f0 04 03 24 	ld.w	r4,r8[r4<<0x2]
800076d0:	c1 c8       	rjmp	80007708 <__svfscanf_r+0xdcc>
800076d2:	e6 c8 ff ff 	sub	r8,r3,-1
800076d6:	0e 33       	cp.w	r3,r7
800076d8:	c0 94       	brge	800076ea <__svfscanf_r+0xdae>
800076da:	fa cb fc d4 	sub	r11,sp,-812
800076de:	10 93       	mov	r3,r8
800076e0:	f6 04 00 24 	add	r4,r11,r4<<0x2
800076e4:	e8 f4 ff 74 	ld.w	r4,r4[-140]
800076e8:	c1 08       	rjmp	80007708 <__svfscanf_r+0xdcc>
800076ea:	6c 04       	ld.w	r4,r6[0x0]
800076ec:	2f c6       	sub	r6,-4
800076ee:	59 f7       	cp.w	r7,31
800076f0:	e0 89 00 0b 	brgt	80007706 <__svfscanf_r+0xdca>
800076f4:	10 93       	mov	r3,r8
800076f6:	fa ca fc d4 	sub	r10,sp,-812
800076fa:	f4 07 00 28 	add	r8,r10,r7<<0x2
800076fe:	2f f7       	sub	r7,-1
80007700:	f1 44 ff 74 	st.w	r8[-140],r4
80007704:	c0 28       	rjmp	80007708 <__svfscanf_r+0xdcc>
80007706:	10 93       	mov	r3,r8
80007708:	a8 0c       	st.h	r4[0x0],r12
8000770a:	cc 98       	rjmp	8000789c <__svfscanf_r+0xf60>
8000770c:	f5 d0 c0 01 	bfextu	r10,r0,0x0,0x1
80007710:	c2 b0       	breq	80007766 <__svfscanf_r+0xe2a>
80007712:	40 69       	lddsp	r9,sp[0x18]
80007714:	58 09       	cp.w	r9,0
80007716:	c1 40       	breq	8000773e <__svfscanf_r+0xe02>
80007718:	0e 34       	cp.w	r4,r7
8000771a:	c0 64       	brge	80007726 <__svfscanf_r+0xdea>
8000771c:	fa c8 fc d4 	sub	r8,sp,-812
80007720:	f0 04 00 24 	add	r4,r8,r4<<0x2
80007724:	ca 98       	rjmp	80007876 <__svfscanf_r+0xf3a>
80007726:	fa ca fd 60 	sub	r10,sp,-672
8000772a:	0c 99       	mov	r9,r6
8000772c:	f4 07 00 2a 	add	r10,r10,r7<<0x2
80007730:	0e 98       	mov	r8,r7
80007732:	13 0b       	ld.w	r11,r9++
80007734:	14 ab       	st.w	r10++,r11
80007736:	2f f8       	sub	r8,-1
80007738:	10 34       	cp.w	r4,r8
8000773a:	cf c4       	brge	80007732 <__svfscanf_r+0xdf6>
8000773c:	c8 28       	rjmp	80007840 <__svfscanf_r+0xf04>
8000773e:	e6 c8 ff ff 	sub	r8,r3,-1
80007742:	0e 33       	cp.w	r3,r7
80007744:	c0 64       	brge	80007750 <__svfscanf_r+0xe14>
80007746:	fa cb fc d4 	sub	r11,sp,-812
8000774a:	f6 04 00 24 	add	r4,r11,r4<<0x2
8000774e:	c9 38       	rjmp	80007874 <__svfscanf_r+0xf38>
80007750:	6c 04       	ld.w	r4,r6[0x0]
80007752:	2f c6       	sub	r6,-4
80007754:	59 f7       	cp.w	r7,31
80007756:	e0 89 00 a1 	brgt	80007898 <__svfscanf_r+0xf5c>
8000775a:	10 93       	mov	r3,r8
8000775c:	fa ca fc d4 	sub	r10,sp,-812
80007760:	f4 07 00 28 	add	r8,r10,r7<<0x2
80007764:	c9 68       	rjmp	80007890 <__svfscanf_r+0xf54>
80007766:	e2 10 00 02 	andl	r0,0x2,COH
8000776a:	c5 60       	breq	80007816 <__svfscanf_r+0xeda>
8000776c:	fe c8 c0 38 	sub	r8,pc,-16328
80007770:	40 a9       	lddsp	r9,sp[0x28]
80007772:	10 39       	cp.w	r9,r8
80007774:	c0 71       	brne	80007782 <__svfscanf_r+0xe46>
80007776:	04 9b       	mov	r11,r2
80007778:	40 89       	lddsp	r9,sp[0x20]
8000777a:	40 4c       	lddsp	r12,sp[0x10]
8000777c:	e0 a0 20 66 	rcall	8000b848 <_strtoull_r>
80007780:	c0 68       	rjmp	8000778c <__svfscanf_r+0xe50>
80007782:	04 9b       	mov	r11,r2
80007784:	40 89       	lddsp	r9,sp[0x20]
80007786:	40 4c       	lddsp	r12,sp[0x10]
80007788:	e0 a0 1f 08 	rcall	8000b598 <_strtoll_r>
8000778c:	40 68       	lddsp	r8,sp[0x18]
8000778e:	58 08       	cp.w	r8,0
80007790:	c2 50       	breq	800077da <__svfscanf_r+0xe9e>
80007792:	0e 34       	cp.w	r4,r7
80007794:	c0 64       	brge	800077a0 <__svfscanf_r+0xe64>
80007796:	fa c9 fc d4 	sub	r9,sp,-812
8000779a:	f2 04 00 24 	add	r4,r9,r4<<0x2
8000779e:	c2 78       	rjmp	800077ec <__svfscanf_r+0xeb0>
800077a0:	fa cc fd 60 	sub	r12,sp,-672
800077a4:	0c 99       	mov	r9,r6
800077a6:	f8 07 00 2c 	add	r12,r12,r7<<0x2
800077aa:	0e 98       	mov	r8,r7
800077ac:	13 0e       	ld.w	lr,r9++
800077ae:	18 ae       	st.w	r12++,lr
800077b0:	2f f8       	sub	r8,-1
800077b2:	10 34       	cp.w	r4,r8
800077b4:	cf c4       	brge	800077ac <__svfscanf_r+0xe70>
800077b6:	ee c9 ff ff 	sub	r9,r7,-1
800077ba:	ee 08 11 ff 	rsub	r8,r7,-1
800077be:	f0 c7 ff ff 	sub	r7,r8,-1
800077c2:	2f e8       	sub	r8,-2
800077c4:	08 08       	add	r8,r4
800077c6:	08 07       	add	r7,r4
800077c8:	ec 08 00 26 	add	r6,r6,r8<<0x2
800077cc:	f2 07 00 07 	add	r7,r9,r7
800077d0:	fa c8 fd 60 	sub	r8,sp,-672
800077d4:	f0 04 03 24 	ld.w	r4,r8[r4<<0x2]
800077d8:	c1 c8       	rjmp	80007810 <__svfscanf_r+0xed4>
800077da:	e6 c8 ff ff 	sub	r8,r3,-1
800077de:	0e 33       	cp.w	r3,r7
800077e0:	c0 94       	brge	800077f2 <__svfscanf_r+0xeb6>
800077e2:	fa c9 fc d4 	sub	r9,sp,-812
800077e6:	10 93       	mov	r3,r8
800077e8:	f2 04 00 24 	add	r4,r9,r4<<0x2
800077ec:	e8 f4 ff 74 	ld.w	r4,r4[-140]
800077f0:	c1 08       	rjmp	80007810 <__svfscanf_r+0xed4>
800077f2:	6c 04       	ld.w	r4,r6[0x0]
800077f4:	2f c6       	sub	r6,-4
800077f6:	59 f7       	cp.w	r7,31
800077f8:	e0 89 00 0b 	brgt	8000780e <__svfscanf_r+0xed2>
800077fc:	10 93       	mov	r3,r8
800077fe:	fa c9 fc d4 	sub	r9,sp,-812
80007802:	f2 07 00 28 	add	r8,r9,r7<<0x2
80007806:	2f f7       	sub	r7,-1
80007808:	f1 44 ff 74 	st.w	r8[-140],r4
8000780c:	c0 28       	rjmp	80007810 <__svfscanf_r+0xed4>
8000780e:	10 93       	mov	r3,r8
80007810:	89 1a       	st.w	r4[0x4],r10
80007812:	89 0b       	st.w	r4[0x0],r11
80007814:	c4 48       	rjmp	8000789c <__svfscanf_r+0xf60>
80007816:	40 68       	lddsp	r8,sp[0x18]
80007818:	58 08       	cp.w	r8,0
8000781a:	c2 50       	breq	80007864 <__svfscanf_r+0xf28>
8000781c:	0e 34       	cp.w	r4,r7
8000781e:	c0 64       	brge	8000782a <__svfscanf_r+0xeee>
80007820:	fa cb fc d4 	sub	r11,sp,-812
80007824:	f6 04 00 24 	add	r4,r11,r4<<0x2
80007828:	c2 78       	rjmp	80007876 <__svfscanf_r+0xf3a>
8000782a:	fa ca fd 60 	sub	r10,sp,-672
8000782e:	0c 99       	mov	r9,r6
80007830:	f4 07 00 2a 	add	r10,r10,r7<<0x2
80007834:	0e 98       	mov	r8,r7
80007836:	13 0b       	ld.w	r11,r9++
80007838:	14 ab       	st.w	r10++,r11
8000783a:	2f f8       	sub	r8,-1
8000783c:	10 34       	cp.w	r4,r8
8000783e:	cf c4       	brge	80007836 <__svfscanf_r+0xefa>
80007840:	ee c9 ff ff 	sub	r9,r7,-1
80007844:	ee 08 11 ff 	rsub	r8,r7,-1
80007848:	f0 c7 ff ff 	sub	r7,r8,-1
8000784c:	2f e8       	sub	r8,-2
8000784e:	08 08       	add	r8,r4
80007850:	08 07       	add	r7,r4
80007852:	ec 08 00 26 	add	r6,r6,r8<<0x2
80007856:	f2 07 00 07 	add	r7,r9,r7
8000785a:	fa c8 fd 60 	sub	r8,sp,-672
8000785e:	f0 04 03 24 	ld.w	r4,r8[r4<<0x2]
80007862:	c1 c8       	rjmp	8000789a <__svfscanf_r+0xf5e>
80007864:	e6 c8 ff ff 	sub	r8,r3,-1
80007868:	0e 33       	cp.w	r3,r7
8000786a:	c0 94       	brge	8000787c <__svfscanf_r+0xf40>
8000786c:	fa ca fc d4 	sub	r10,sp,-812
80007870:	f4 04 00 24 	add	r4,r10,r4<<0x2
80007874:	10 93       	mov	r3,r8
80007876:	e8 f4 ff 74 	ld.w	r4,r4[-140]
8000787a:	c1 08       	rjmp	8000789a <__svfscanf_r+0xf5e>
8000787c:	6c 04       	ld.w	r4,r6[0x0]
8000787e:	2f c6       	sub	r6,-4
80007880:	59 f7       	cp.w	r7,31
80007882:	e0 89 00 0b 	brgt	80007898 <__svfscanf_r+0xf5c>
80007886:	10 93       	mov	r3,r8
80007888:	fa c9 fc d4 	sub	r9,sp,-812
8000788c:	f2 07 00 28 	add	r8,r9,r7<<0x2
80007890:	f1 44 ff 74 	st.w	r8[-140],r4
80007894:	2f f7       	sub	r7,-1
80007896:	c0 28       	rjmp	8000789a <__svfscanf_r+0xf5e>
80007898:	10 93       	mov	r3,r8
8000789a:	89 0c       	st.w	r4[0x0],r12
8000789c:	40 78       	lddsp	r8,sp[0x1c]
8000789e:	2f f8       	sub	r8,-1
800078a0:	50 78       	stdsp	sp[0x1c],r8
800078a2:	40 3b       	lddsp	r11,sp[0xc]
800078a4:	fa c8 ff c0 	sub	r8,sp,-64
800078a8:	40 5a       	lddsp	r10,sp[0x14]
800078aa:	f6 08 01 08 	sub	r8,r11,r8
800078ae:	14 08       	add	r8,r10
800078b0:	e2 08 00 08 	add	r8,r1,r8
800078b4:	50 38       	stdsp	sp[0xc],r8
800078b6:	fe 9f f8 52 	bral	8000695a <__svfscanf_r+0x1e>
800078ba:	d7 03       	nop
800078bc:	30 01       	mov	r1,0
800078be:	e4 c8 00 01 	sub	r8,r2,1
800078c2:	e4 c9 01 5d 	sub	r9,r2,349
800078c6:	e0 48 01 5c 	cp.w	r8,348
800078ca:	e2 09 17 80 	movls	r9,r1
800078ce:	50 b9       	stdsp	sp[0x2c],r9
800078d0:	e0 69 01 5d 	mov	r9,349
800078d4:	50 f7       	stdsp	sp[0x3c],r7
800078d6:	f2 02 17 b0 	movhi	r2,r9
800078da:	e8 10 07 80 	orl	r0,0x780
800078de:	fa c8 ff c0 	sub	r8,sp,-64
800078e2:	02 99       	mov	r9,r1
800078e4:	50 51       	stdsp	sp[0x14],r1
800078e6:	50 d1       	stdsp	sp[0x34],r1
800078e8:	50 c1       	stdsp	sp[0x30],r1
800078ea:	50 e1       	stdsp	sp[0x38],r1
800078ec:	10 97       	mov	r7,r8
800078ee:	02 9a       	mov	r10,r1
800078f0:	6a 0b       	ld.w	r11,r5[0x0]
800078f2:	34 e8       	mov	r8,78
800078f4:	17 8b       	ld.ub	r11,r11[0x0]
800078f6:	f0 0b 18 00 	cp.b	r11,r8
800078fa:	e0 80 00 86 	breq	80007a06 <__svfscanf_r+0x10ca>
800078fe:	e0 8b 00 36 	brhi	8000796a <__svfscanf_r+0x102e>
80007902:	33 9c       	mov	r12,57
80007904:	f8 0b 18 00 	cp.b	r11,r12
80007908:	e0 8b 00 1d 	brhi	80007942 <__svfscanf_r+0x1006>
8000790c:	33 1c       	mov	r12,49
8000790e:	f8 0b 18 00 	cp.b	r11,r12
80007912:	c6 d2       	brcc	800079ec <__svfscanf_r+0x10b0>
80007914:	32 ec       	mov	r12,46
80007916:	f8 0b 18 00 	cp.b	r11,r12
8000791a:	e0 80 00 c6 	breq	80007aa6 <__svfscanf_r+0x116a>
8000791e:	e0 8b 00 0c 	brhi	80007936 <__svfscanf_r+0xffa>
80007922:	32 bc       	mov	r12,43
80007924:	f8 0b 18 00 	cp.b	r11,r12
80007928:	c6 90       	breq	800079fa <__svfscanf_r+0x10be>
8000792a:	32 dc       	mov	r12,45
8000792c:	f8 0b 18 00 	cp.b	r11,r12
80007930:	e0 81 00 fa 	brne	80007b24 <__svfscanf_r+0x11e8>
80007934:	c6 38       	rjmp	800079fa <__svfscanf_r+0x10be>
80007936:	33 0c       	mov	r12,48
80007938:	f8 0b 18 00 	cp.b	r11,r12
8000793c:	e0 81 00 f4 	brne	80007b24 <__svfscanf_r+0x11e8>
80007940:	c4 98       	rjmp	800079d2 <__svfscanf_r+0x1096>
80007942:	34 5c       	mov	r12,69
80007944:	f8 0b 18 00 	cp.b	r11,r12
80007948:	e0 80 00 b6 	breq	80007ab4 <__svfscanf_r+0x1178>
8000794c:	e0 8b 00 08 	brhi	8000795c <__svfscanf_r+0x1020>
80007950:	34 1c       	mov	r12,65
80007952:	f8 0b 18 00 	cp.b	r11,r12
80007956:	e0 81 00 e7 	brne	80007b24 <__svfscanf_r+0x11e8>
8000795a:	c7 18       	rjmp	80007a3c <__svfscanf_r+0x1100>
8000795c:	34 6c       	mov	r12,70
8000795e:	f8 0b 18 00 	cp.b	r11,r12
80007962:	e0 80 00 90 	breq	80007a82 <__svfscanf_r+0x1146>
80007966:	34 9c       	mov	r12,73
80007968:	c2 68       	rjmp	800079b4 <__svfscanf_r+0x1078>
8000796a:	36 6c       	mov	r12,102
8000796c:	f8 0b 18 00 	cp.b	r11,r12
80007970:	e0 80 00 89 	breq	80007a82 <__svfscanf_r+0x1146>
80007974:	e0 8b 00 19 	brhi	800079a6 <__svfscanf_r+0x106a>
80007978:	35 9c       	mov	r12,89
8000797a:	f8 0b 18 00 	cp.b	r11,r12
8000797e:	e0 80 00 8e 	breq	80007a9a <__svfscanf_r+0x115e>
80007982:	e0 8b 00 08 	brhi	80007992 <__svfscanf_r+0x1056>
80007986:	35 4c       	mov	r12,84
80007988:	f8 0b 18 00 	cp.b	r11,r12
8000798c:	e0 81 00 cc 	brne	80007b24 <__svfscanf_r+0x11e8>
80007990:	c7 f8       	rjmp	80007a8e <__svfscanf_r+0x1152>
80007992:	36 1c       	mov	r12,97
80007994:	f8 0b 18 00 	cp.b	r11,r12
80007998:	c5 20       	breq	80007a3c <__svfscanf_r+0x1100>
8000799a:	36 5c       	mov	r12,101
8000799c:	f8 0b 18 00 	cp.b	r11,r12
800079a0:	e0 81 00 c2 	brne	80007b24 <__svfscanf_r+0x11e8>
800079a4:	c8 88       	rjmp	80007ab4 <__svfscanf_r+0x1178>
800079a6:	36 e8       	mov	r8,110
800079a8:	f0 0b 18 00 	cp.b	r11,r8
800079ac:	c2 d0       	breq	80007a06 <__svfscanf_r+0x10ca>
800079ae:	e0 8b 00 08 	brhi	800079be <__svfscanf_r+0x1082>
800079b2:	36 9c       	mov	r12,105
800079b4:	f8 0b 18 00 	cp.b	r11,r12
800079b8:	e0 81 00 b6 	brne	80007b24 <__svfscanf_r+0x11e8>
800079bc:	c4 68       	rjmp	80007a48 <__svfscanf_r+0x110c>
800079be:	37 4c       	mov	r12,116
800079c0:	f8 0b 18 00 	cp.b	r11,r12
800079c4:	c6 50       	breq	80007a8e <__svfscanf_r+0x1152>
800079c6:	37 9c       	mov	r12,121
800079c8:	f8 0b 18 00 	cp.b	r11,r12
800079cc:	e0 81 00 ac 	brne	80007b24 <__svfscanf_r+0x11e8>
800079d0:	c6 58       	rjmp	80007a9a <__svfscanf_r+0x115e>
800079d2:	ed b0 00 08 	bld	r0,0x8
800079d6:	c0 b1       	brne	800079ec <__svfscanf_r+0x10b0>
800079d8:	a7 d0       	cbr	r0,0x7
800079da:	2f fa       	sub	r10,-1
800079dc:	40 bb       	lddsp	r11,sp[0x2c]
800079de:	58 0b       	cp.w	r11,0
800079e0:	e0 80 00 89 	breq	80007af2 <__svfscanf_r+0x11b6>
800079e4:	20 1b       	sub	r11,1
800079e6:	2f f2       	sub	r2,-1
800079e8:	50 bb       	stdsp	sp[0x2c],r11
800079ea:	c8 48       	rjmp	80007af2 <__svfscanf_r+0x11b6>
800079ec:	e2 09 00 0c 	add	r12,r1,r9
800079f0:	e0 81 00 9a 	brne	80007b24 <__svfscanf_r+0x11e8>
800079f4:	e0 10 fe 7f 	andl	r0,0xfe7f
800079f8:	c7 c8       	rjmp	80007af0 <__svfscanf_r+0x11b4>
800079fa:	ed b0 00 07 	bld	r0,0x7
800079fe:	e0 81 00 93 	brne	80007b24 <__svfscanf_r+0x11e8>
80007a02:	a7 d0       	cbr	r0,0x7
80007a04:	c7 68       	rjmp	80007af0 <__svfscanf_r+0x11b4>
80007a06:	58 09       	cp.w	r9,0
80007a08:	c0 b1       	brne	80007a1e <__svfscanf_r+0x10e2>
80007a0a:	00 9c       	mov	r12,r0
80007a0c:	e2 1c 07 00 	andl	r12,0x700,COH
80007a10:	e0 4c 07 00 	cp.w	r12,1792
80007a14:	c0 b1       	brne	80007a2a <__svfscanf_r+0x10ee>
80007a16:	e0 10 f8 7f 	andl	r0,0xf87f
80007a1a:	30 19       	mov	r9,1
80007a1c:	c6 a8       	rjmp	80007af0 <__svfscanf_r+0x11b4>
80007a1e:	30 28       	mov	r8,2
80007a20:	f0 09 18 00 	cp.b	r9,r8
80007a24:	c0 31       	brne	80007a2a <__svfscanf_r+0x10ee>
80007a26:	30 39       	mov	r9,3
80007a28:	c6 48       	rjmp	80007af0 <__svfscanf_r+0x11b4>
80007a2a:	30 48       	mov	r8,4
80007a2c:	f0 01 18 00 	cp.b	r1,r8
80007a30:	5f 0e       	sreq	lr
80007a32:	30 18       	mov	r8,1
80007a34:	f0 01 18 00 	cp.b	r1,r8
80007a38:	5f 0c       	sreq	r12
80007a3a:	c1 b8       	rjmp	80007a70 <__svfscanf_r+0x1134>
80007a3c:	30 18       	mov	r8,1
80007a3e:	f0 09 18 00 	cp.b	r9,r8
80007a42:	c7 11       	brne	80007b24 <__svfscanf_r+0x11e8>
80007a44:	30 29       	mov	r9,2
80007a46:	c5 58       	rjmp	80007af0 <__svfscanf_r+0x11b4>
80007a48:	58 01       	cp.w	r1,0
80007a4a:	c0 b1       	brne	80007a60 <__svfscanf_r+0x1124>
80007a4c:	00 9c       	mov	r12,r0
80007a4e:	e2 1c 07 00 	andl	r12,0x700,COH
80007a52:	e0 4c 07 00 	cp.w	r12,1792
80007a56:	c0 51       	brne	80007a60 <__svfscanf_r+0x1124>
80007a58:	e0 10 f8 7f 	andl	r0,0xf87f
80007a5c:	30 11       	mov	r1,1
80007a5e:	c4 98       	rjmp	80007af0 <__svfscanf_r+0x11b4>
80007a60:	30 58       	mov	r8,5
80007a62:	30 3c       	mov	r12,3
80007a64:	f0 01 18 00 	cp.b	r1,r8
80007a68:	5f 0e       	sreq	lr
80007a6a:	f8 01 18 00 	cp.b	r1,r12
80007a6e:	5f 0c       	sreq	r12
80007a70:	fd ec 10 0c 	or	r12,lr,r12
80007a74:	30 08       	mov	r8,0
80007a76:	f0 0c 18 00 	cp.b	r12,r8
80007a7a:	c5 50       	breq	80007b24 <__svfscanf_r+0x11e8>
80007a7c:	2f f1       	sub	r1,-1
80007a7e:	5c 51       	castu.b	r1
80007a80:	c3 88       	rjmp	80007af0 <__svfscanf_r+0x11b4>
80007a82:	30 28       	mov	r8,2
80007a84:	f0 01 18 00 	cp.b	r1,r8
80007a88:	c4 e1       	brne	80007b24 <__svfscanf_r+0x11e8>
80007a8a:	30 31       	mov	r1,3
80007a8c:	c3 28       	rjmp	80007af0 <__svfscanf_r+0x11b4>
80007a8e:	30 6c       	mov	r12,6
80007a90:	f8 01 18 00 	cp.b	r1,r12
80007a94:	c4 81       	brne	80007b24 <__svfscanf_r+0x11e8>
80007a96:	30 71       	mov	r1,7
80007a98:	c2 c8       	rjmp	80007af0 <__svfscanf_r+0x11b4>
80007a9a:	30 7c       	mov	r12,7
80007a9c:	f8 01 18 00 	cp.b	r1,r12
80007aa0:	c4 21       	brne	80007b24 <__svfscanf_r+0x11e8>
80007aa2:	30 81       	mov	r1,8
80007aa4:	c2 68       	rjmp	80007af0 <__svfscanf_r+0x11b4>
80007aa6:	ed b0 00 09 	bld	r0,0x9
80007aaa:	c3 d1       	brne	80007b24 <__svfscanf_r+0x11e8>
80007aac:	e0 10 fd 7f 	andl	r0,0xfd7f
80007ab0:	50 ea       	stdsp	sp[0x38],r10
80007ab2:	c1 f8       	rjmp	80007af0 <__svfscanf_r+0x11b4>
80007ab4:	00 9c       	mov	r12,r0
80007ab6:	e2 1c 05 00 	andl	r12,0x500,COH
80007aba:	e0 4c 04 00 	cp.w	r12,1024
80007abe:	c0 90       	breq	80007ad0 <__svfscanf_r+0x1194>
80007ac0:	58 0a       	cp.w	r10,0
80007ac2:	5f 1c       	srne	r12
80007ac4:	30 08       	mov	r8,0
80007ac6:	f9 e0 02 ac 	and	r12,r12,r0>>0xa
80007aca:	f0 0c 18 00 	cp.b	r12,r8
80007ace:	c2 b0       	breq	80007b24 <__svfscanf_r+0x11e8>
80007ad0:	ed b0 00 09 	bld	r0,0x9
80007ad4:	fb f8 10 0e 	ld.wne	r8,sp[0x38]
80007ad8:	f5 d8 e1 1a 	subne	r10,r10,r8
80007adc:	fb fa 1a 0d 	st.wne	sp[0x34],r10
80007ae0:	fb f7 1a 05 	st.wne	sp[0x14],r7
80007ae4:	00 9c       	mov	r12,r0
80007ae6:	30 0a       	mov	r10,0
80007ae8:	e0 10 f8 7f 	andl	r0,0xf87f
80007aec:	e8 10 01 80 	orl	r0,0x180
80007af0:	0e cb       	st.b	r7++,r11
80007af2:	6a 1b       	ld.w	r11,r5[0x4]
80007af4:	40 38       	lddsp	r8,sp[0xc]
80007af6:	20 1b       	sub	r11,1
80007af8:	2f f8       	sub	r8,-1
80007afa:	8b 1b       	st.w	r5[0x4],r11
80007afc:	50 38       	stdsp	sp[0xc],r8
80007afe:	58 0b       	cp.w	r11,0
80007b00:	e0 8a 00 06 	brle	80007b0c <__svfscanf_r+0x11d0>
80007b04:	6a 0b       	ld.w	r11,r5[0x0]
80007b06:	2f fb       	sub	r11,-1
80007b08:	8b 0b       	st.w	r5[0x0],r11
80007b0a:	c0 a8       	rjmp	80007b1e <__svfscanf_r+0x11e2>
80007b0c:	50 2a       	stdsp	sp[0x8],r10
80007b0e:	50 19       	stdsp	sp[0x4],r9
80007b10:	0a 9b       	mov	r11,r5
80007b12:	40 4c       	lddsp	r12,sp[0x10]
80007b14:	e0 a0 15 06 	rcall	8000a520 <__srefill_r>
80007b18:	40 2a       	lddsp	r10,sp[0x8]
80007b1a:	40 19       	lddsp	r9,sp[0x4]
80007b1c:	c0 41       	brne	80007b24 <__svfscanf_r+0x11e8>
80007b1e:	20 12       	sub	r2,1
80007b20:	fe 91 fe e8 	brne	800078f0 <__svfscanf_r+0xfb4>
80007b24:	50 ca       	stdsp	sp[0x30],r10
80007b26:	0e 98       	mov	r8,r7
80007b28:	00 9a       	mov	r10,r0
80007b2a:	40 cb       	lddsp	r11,sp[0x30]
80007b2c:	a9 ca       	cbr	r10,0x8
80007b2e:	40 f7       	lddsp	r7,sp[0x3c]
80007b30:	20 19       	sub	r9,1
80007b32:	58 0b       	cp.w	r11,0
80007b34:	f4 00 17 10 	movne	r0,r10
80007b38:	58 19       	cp.w	r9,1
80007b3a:	e0 8b 00 10 	brhi	80007b5a <__svfscanf_r+0x121e>
80007b3e:	c0 78       	rjmp	80007b4c <__svfscanf_r+0x1210>
80007b40:	0a 9a       	mov	r10,r5
80007b42:	0d 7b       	ld.ub	r11,--r6
80007b44:	40 4c       	lddsp	r12,sp[0x10]
80007b46:	e0 a0 1f d9 	rcall	8000baf8 <_ungetc_r>
80007b4a:	c0 48       	rjmp	80007b52 <__svfscanf_r+0x1216>
80007b4c:	fa c7 ff c0 	sub	r7,sp,-64
80007b50:	10 96       	mov	r6,r8
80007b52:	0e 36       	cp.w	r6,r7
80007b54:	fe 9b ff f6 	brhi	80007b40 <__svfscanf_r+0x1204>
80007b58:	c6 99       	rjmp	80007e2a <__svfscanf_r+0x14ee>
80007b5a:	e2 c9 00 01 	sub	r9,r1,1
80007b5e:	58 69       	cp.w	r9,6
80007b60:	e0 8b 00 2d 	brhi	80007bba <__svfscanf_r+0x127e>
80007b64:	30 29       	mov	r9,2
80007b66:	f2 01 18 00 	cp.b	r1,r9
80007b6a:	e0 88 00 21 	brls	80007bac <__svfscanf_r+0x1270>
80007b6e:	50 b7       	stdsp	sp[0x2c],r7
80007b70:	02 92       	mov	r2,r1
80007b72:	10 97       	mov	r7,r8
80007b74:	c0 a8       	rjmp	80007b88 <__svfscanf_r+0x124c>
80007b76:	0f 7b       	ld.ub	r11,--r7
80007b78:	0a 9a       	mov	r10,r5
80007b7a:	50 28       	stdsp	sp[0x8],r8
80007b7c:	40 4c       	lddsp	r12,sp[0x10]
80007b7e:	e0 a0 1f bd 	rcall	8000baf8 <_ungetc_r>
80007b82:	20 12       	sub	r2,1
80007b84:	40 28       	lddsp	r8,sp[0x8]
80007b86:	5c 52       	castu.b	r2
80007b88:	30 3a       	mov	r10,3
80007b8a:	f4 02 18 00 	cp.b	r2,r10
80007b8e:	cf 41       	brne	80007b76 <__svfscanf_r+0x123a>
80007b90:	40 39       	lddsp	r9,sp[0xc]
80007b92:	20 31       	sub	r1,3
80007b94:	40 b7       	lddsp	r7,sp[0x2c]
80007b96:	5c 51       	castu.b	r1
80007b98:	02 19       	sub	r9,r1
80007b9a:	02 18       	sub	r8,r1
80007b9c:	50 39       	stdsp	sp[0xc],r9
80007b9e:	c0 e8       	rjmp	80007bba <__svfscanf_r+0x127e>
80007ba0:	0a 9a       	mov	r10,r5
80007ba2:	0d 7b       	ld.ub	r11,--r6
80007ba4:	40 4c       	lddsp	r12,sp[0x10]
80007ba6:	e0 a0 1f a9 	rcall	8000baf8 <_ungetc_r>
80007baa:	c0 48       	rjmp	80007bb2 <__svfscanf_r+0x1276>
80007bac:	fa c7 ff c0 	sub	r7,sp,-64
80007bb0:	10 96       	mov	r6,r8
80007bb2:	0e 36       	cp.w	r6,r7
80007bb4:	fe 9b ff f6 	brhi	80007ba0 <__svfscanf_r+0x1264>
80007bb8:	c3 99       	rjmp	80007e2a <__svfscanf_r+0x14ee>
80007bba:	ed b0 00 08 	bld	r0,0x8
80007bbe:	c3 21       	brne	80007c22 <__svfscanf_r+0x12e6>
80007bc0:	00 99       	mov	r9,r0
80007bc2:	e2 19 04 00 	andl	r9,0x400,COH
80007bc6:	c0 f0       	breq	80007be4 <__svfscanf_r+0x12a8>
80007bc8:	c0 78       	rjmp	80007bd6 <__svfscanf_r+0x129a>
80007bca:	0a 9a       	mov	r10,r5
80007bcc:	0d 7b       	ld.ub	r11,--r6
80007bce:	40 4c       	lddsp	r12,sp[0x10]
80007bd0:	e0 a0 1f 94 	rcall	8000baf8 <_ungetc_r>
80007bd4:	c0 48       	rjmp	80007bdc <__svfscanf_r+0x12a0>
80007bd6:	fa c7 ff c0 	sub	r7,sp,-64
80007bda:	10 96       	mov	r6,r8
80007bdc:	0e 36       	cp.w	r6,r7
80007bde:	fe 9b ff f6 	brhi	80007bca <__svfscanf_r+0x128e>
80007be2:	c2 49       	rjmp	80007e2a <__svfscanf_r+0x14ee>
80007be4:	40 3b       	lddsp	r11,sp[0xc]
80007be6:	20 1b       	sub	r11,1
80007be8:	50 3b       	stdsp	sp[0xc],r11
80007bea:	11 7b       	ld.ub	r11,--r8
80007bec:	e0 4b 00 45 	cp.w	r11,69
80007bf0:	5f 1c       	srne	r12
80007bf2:	e0 4b 00 65 	cp.w	r11,101
80007bf6:	5f 1a       	srne	r10
80007bf8:	f9 ea 00 0a 	and	r10,r12,r10
80007bfc:	f2 0a 18 00 	cp.b	r10,r9
80007c00:	c0 b0       	breq	80007c16 <__svfscanf_r+0x12da>
80007c02:	40 3a       	lddsp	r10,sp[0xc]
80007c04:	20 1a       	sub	r10,1
80007c06:	50 28       	stdsp	sp[0x8],r8
80007c08:	50 3a       	stdsp	sp[0xc],r10
80007c0a:	40 4c       	lddsp	r12,sp[0x10]
80007c0c:	0a 9a       	mov	r10,r5
80007c0e:	e0 a0 1f 75 	rcall	8000baf8 <_ungetc_r>
80007c12:	40 28       	lddsp	r8,sp[0x8]
80007c14:	11 7b       	ld.ub	r11,--r8
80007c16:	50 28       	stdsp	sp[0x8],r8
80007c18:	0a 9a       	mov	r10,r5
80007c1a:	40 4c       	lddsp	r12,sp[0x10]
80007c1c:	e0 a0 1f 6e 	rcall	8000baf8 <_ungetc_r>
80007c20:	40 28       	lddsp	r8,sp[0x8]
80007c22:	00 9a       	mov	r10,r0
80007c24:	e2 1a 00 10 	andl	r10,0x10,COH
80007c28:	fe 91 f6 99 	brne	8000695a <__svfscanf_r+0x1e>
80007c2c:	b0 8a       	st.b	r8[0x0],r10
80007c2e:	00 99       	mov	r9,r0
80007c30:	e2 19 06 00 	andl	r9,0x600,COH
80007c34:	e0 49 04 00 	cp.w	r9,1024
80007c38:	c0 81       	brne	80007c48 <__svfscanf_r+0x130c>
80007c3a:	40 cc       	lddsp	r12,sp[0x30]
80007c3c:	40 e9       	lddsp	r9,sp[0x38]
80007c3e:	12 1c       	sub	r12,r9
80007c40:	c1 f0       	breq	80007c7e <__svfscanf_r+0x1342>
80007c42:	5c 3c       	neg	r12
80007c44:	50 58       	stdsp	sp[0x14],r8
80007c46:	c0 c8       	rjmp	80007c5e <__svfscanf_r+0x1322>
80007c48:	40 d8       	lddsp	r8,sp[0x34]
80007c4a:	58 08       	cp.w	r8,0
80007c4c:	c1 90       	breq	80007c7e <__svfscanf_r+0x1342>
80007c4e:	40 5b       	lddsp	r11,sp[0x14]
80007c50:	30 a9       	mov	r9,10
80007c52:	2f fb       	sub	r11,-1
80007c54:	40 4c       	lddsp	r12,sp[0x10]
80007c56:	e0 a0 1c 07 	rcall	8000b464 <_strtol_r>
80007c5a:	40 db       	lddsp	r11,sp[0x34]
80007c5c:	16 1c       	sub	r12,r11
80007c5e:	1a dc       	st.w	--sp,r12
80007c60:	fa c8 fe 6a 	sub	r8,sp,-406
80007c64:	40 6a       	lddsp	r10,sp[0x18]
80007c66:	fa cc fe 69 	sub	r12,sp,-407
80007c6a:	fe cb a0 da 	sub	r11,pc,-24358
80007c6e:	18 3a       	cp.w	r10,r12
80007c70:	f4 0c 17 30 	movlo	r12,r10
80007c74:	f0 0c 17 20 	movhs	r12,r8
80007c78:	e0 a0 15 5a 	rcall	8000a72c <sprintf>
80007c7c:	2f fd       	sub	sp,-4
80007c7e:	30 0a       	mov	r10,0
80007c80:	fa cb ff c0 	sub	r11,sp,-64
80007c84:	40 4c       	lddsp	r12,sp[0x10]
80007c86:	e0 a0 15 bd 	rcall	8000a800 <_strtod_r>
80007c8a:	14 98       	mov	r8,r10
80007c8c:	16 99       	mov	r9,r11
80007c8e:	ed b0 00 00 	bld	r0,0x0
80007c92:	c1 91       	brne	80007cc4 <__svfscanf_r+0x1388>
80007c94:	40 6b       	lddsp	r11,sp[0x18]
80007c96:	58 0b       	cp.w	r11,0
80007c98:	c4 40       	breq	80007d20 <__svfscanf_r+0x13e4>
80007c9a:	0e 34       	cp.w	r4,r7
80007c9c:	c0 64       	brge	80007ca8 <__svfscanf_r+0x136c>
80007c9e:	fa ca fc d4 	sub	r10,sp,-812
80007ca2:	f4 04 00 24 	add	r4,r10,r4<<0x2
80007ca6:	c4 68       	rjmp	80007d32 <__svfscanf_r+0x13f6>
80007ca8:	fa cc fd 60 	sub	r12,sp,-672
80007cac:	0c 9b       	mov	r11,r6
80007cae:	f8 07 00 2c 	add	r12,r12,r7<<0x2
80007cb2:	0e 9a       	mov	r10,r7
80007cb4:	10 90       	mov	r0,r8
80007cb6:	12 91       	mov	r1,r9
80007cb8:	17 08       	ld.w	r8,r11++
80007cba:	18 a8       	st.w	r12++,r8
80007cbc:	2f fa       	sub	r10,-1
80007cbe:	14 34       	cp.w	r4,r10
80007cc0:	cf c4       	brge	80007cb8 <__svfscanf_r+0x137c>
80007cc2:	c1 b8       	rjmp	80007cf8 <__svfscanf_r+0x13bc>
80007cc4:	e2 10 00 02 	andl	r0,0x2,COH
80007cc8:	c4 a0       	breq	80007d5c <__svfscanf_r+0x1420>
80007cca:	40 6a       	lddsp	r10,sp[0x18]
80007ccc:	58 0a       	cp.w	r10,0
80007cce:	c2 90       	breq	80007d20 <__svfscanf_r+0x13e4>
80007cd0:	0e 34       	cp.w	r4,r7
80007cd2:	c0 64       	brge	80007cde <__svfscanf_r+0x13a2>
80007cd4:	fa cb fc d4 	sub	r11,sp,-812
80007cd8:	f6 04 00 24 	add	r4,r11,r4<<0x2
80007cdc:	c2 b8       	rjmp	80007d32 <__svfscanf_r+0x13f6>
80007cde:	fa cc fd 60 	sub	r12,sp,-672
80007ce2:	0c 9b       	mov	r11,r6
80007ce4:	f8 07 00 2c 	add	r12,r12,r7<<0x2
80007ce8:	0e 9a       	mov	r10,r7
80007cea:	10 90       	mov	r0,r8
80007cec:	12 91       	mov	r1,r9
80007cee:	17 08       	ld.w	r8,r11++
80007cf0:	18 a8       	st.w	r12++,r8
80007cf2:	2f fa       	sub	r10,-1
80007cf4:	14 34       	cp.w	r4,r10
80007cf6:	cf c4       	brge	80007cee <__svfscanf_r+0x13b2>
80007cf8:	ee cb ff ff 	sub	r11,r7,-1
80007cfc:	ee 0a 11 ff 	rsub	r10,r7,-1
80007d00:	f4 c7 ff ff 	sub	r7,r10,-1
80007d04:	2f ea       	sub	r10,-2
80007d06:	08 0a       	add	r10,r4
80007d08:	08 07       	add	r7,r4
80007d0a:	ec 0a 00 26 	add	r6,r6,r10<<0x2
80007d0e:	00 98       	mov	r8,r0
80007d10:	fa ca fd 60 	sub	r10,sp,-672
80007d14:	02 99       	mov	r9,r1
80007d16:	f6 07 00 07 	add	r7,r11,r7
80007d1a:	f4 04 03 24 	ld.w	r4,r10[r4<<0x2]
80007d1e:	c1 c8       	rjmp	80007d56 <__svfscanf_r+0x141a>
80007d20:	e6 ca ff ff 	sub	r10,r3,-1
80007d24:	0e 33       	cp.w	r3,r7
80007d26:	c0 94       	brge	80007d38 <__svfscanf_r+0x13fc>
80007d28:	fa cb fc d4 	sub	r11,sp,-812
80007d2c:	14 93       	mov	r3,r10
80007d2e:	f6 04 00 24 	add	r4,r11,r4<<0x2
80007d32:	e8 f4 ff 74 	ld.w	r4,r4[-140]
80007d36:	c1 08       	rjmp	80007d56 <__svfscanf_r+0x141a>
80007d38:	6c 04       	ld.w	r4,r6[0x0]
80007d3a:	2f c6       	sub	r6,-4
80007d3c:	59 f7       	cp.w	r7,31
80007d3e:	e0 89 00 0b 	brgt	80007d54 <__svfscanf_r+0x1418>
80007d42:	14 93       	mov	r3,r10
80007d44:	fa cb fc d4 	sub	r11,sp,-812
80007d48:	f6 07 00 2a 	add	r10,r11,r7<<0x2
80007d4c:	2f f7       	sub	r7,-1
80007d4e:	f5 44 ff 74 	st.w	r10[-140],r4
80007d52:	c0 28       	rjmp	80007d56 <__svfscanf_r+0x141a>
80007d54:	14 93       	mov	r3,r10
80007d56:	e8 e9 00 00 	st.d	r4[0],r8
80007d5a:	c5 a8       	rjmp	80007e0e <__svfscanf_r+0x14d2>
80007d5c:	40 6a       	lddsp	r10,sp[0x18]
80007d5e:	58 0a       	cp.w	r10,0
80007d60:	c2 90       	breq	80007db2 <__svfscanf_r+0x1476>
80007d62:	0e 34       	cp.w	r4,r7
80007d64:	c0 64       	brge	80007d70 <__svfscanf_r+0x1434>
80007d66:	fa cb fc d4 	sub	r11,sp,-812
80007d6a:	f6 04 00 24 	add	r4,r11,r4<<0x2
80007d6e:	c2 b8       	rjmp	80007dc4 <__svfscanf_r+0x1488>
80007d70:	fa cc fd 60 	sub	r12,sp,-672
80007d74:	0c 9b       	mov	r11,r6
80007d76:	f8 07 00 2c 	add	r12,r12,r7<<0x2
80007d7a:	0e 9a       	mov	r10,r7
80007d7c:	10 90       	mov	r0,r8
80007d7e:	12 91       	mov	r1,r9
80007d80:	17 08       	ld.w	r8,r11++
80007d82:	18 a8       	st.w	r12++,r8
80007d84:	2f fa       	sub	r10,-1
80007d86:	14 34       	cp.w	r4,r10
80007d88:	cf c4       	brge	80007d80 <__svfscanf_r+0x1444>
80007d8a:	ee cb ff ff 	sub	r11,r7,-1
80007d8e:	ee 0a 11 ff 	rsub	r10,r7,-1
80007d92:	f4 c7 ff ff 	sub	r7,r10,-1
80007d96:	2f ea       	sub	r10,-2
80007d98:	08 0a       	add	r10,r4
80007d9a:	08 07       	add	r7,r4
80007d9c:	ec 0a 00 26 	add	r6,r6,r10<<0x2
80007da0:	00 98       	mov	r8,r0
80007da2:	fa ca fd 60 	sub	r10,sp,-672
80007da6:	02 99       	mov	r9,r1
80007da8:	f6 07 00 07 	add	r7,r11,r7
80007dac:	f4 04 03 24 	ld.w	r4,r10[r4<<0x2]
80007db0:	c1 d8       	rjmp	80007dea <__svfscanf_r+0x14ae>
80007db2:	e6 ca ff ff 	sub	r10,r3,-1
80007db6:	0e 33       	cp.w	r3,r7
80007db8:	c0 a4       	brge	80007dcc <__svfscanf_r+0x1490>
80007dba:	fa cb fc d4 	sub	r11,sp,-812
80007dbe:	14 93       	mov	r3,r10
80007dc0:	f6 04 00 24 	add	r4,r11,r4<<0x2
80007dc4:	e8 f4 ff 74 	ld.w	r4,r4[-140]
80007dc8:	c1 18       	rjmp	80007dea <__svfscanf_r+0x14ae>
80007dca:	d7 03       	nop
80007dcc:	6c 04       	ld.w	r4,r6[0x0]
80007dce:	2f c6       	sub	r6,-4
80007dd0:	59 f7       	cp.w	r7,31
80007dd2:	e0 89 00 0b 	brgt	80007de8 <__svfscanf_r+0x14ac>
80007dd6:	14 93       	mov	r3,r10
80007dd8:	fa cb fc d4 	sub	r11,sp,-812
80007ddc:	f6 07 00 2a 	add	r10,r11,r7<<0x2
80007de0:	2f f7       	sub	r7,-1
80007de2:	f5 44 ff 74 	st.w	r10[-140],r4
80007de6:	c0 28       	rjmp	80007dea <__svfscanf_r+0x14ae>
80007de8:	14 93       	mov	r3,r10
80007dea:	10 9a       	mov	r10,r8
80007dec:	12 9b       	mov	r11,r9
80007dee:	50 19       	stdsp	sp[0x4],r9
80007df0:	50 28       	stdsp	sp[0x8],r8
80007df2:	e0 a0 14 32 	rcall	8000a656 <__isnand>
80007df6:	40 19       	lddsp	r9,sp[0x4]
80007df8:	40 28       	lddsp	r8,sp[0x8]
80007dfa:	c0 50       	breq	80007e04 <__svfscanf_r+0x14c8>
80007dfc:	30 0c       	mov	r12,0
80007dfe:	e0 a0 14 94 	rcall	8000a726 <nanf>
80007e02:	c0 58       	rjmp	80007e0c <__svfscanf_r+0x14d0>
80007e04:	10 9a       	mov	r10,r8
80007e06:	12 9b       	mov	r11,r9
80007e08:	e0 a0 27 e2 	rcall	8000cdcc <__avr32_f64_to_f32>
80007e0c:	89 0c       	st.w	r4[0x0],r12
80007e0e:	40 7a       	lddsp	r10,sp[0x1c]
80007e10:	2f fa       	sub	r10,-1
80007e12:	50 7a       	stdsp	sp[0x1c],r10
80007e14:	fe 9f f5 a3 	bral	8000695a <__svfscanf_r+0x1e>
80007e18:	40 79       	lddsp	r9,sp[0x1c]
80007e1a:	58 09       	cp.w	r9,0
80007e1c:	c0 50       	breq	80007e26 <__svfscanf_r+0x14ea>
80007e1e:	8a 68       	ld.sh	r8,r5[0xc]
80007e20:	ed b8 00 06 	bld	r8,0x6
80007e24:	c0 31       	brne	80007e2a <__svfscanf_r+0x14ee>
80007e26:	3f f8       	mov	r8,-1
80007e28:	50 78       	stdsp	sp[0x1c],r8
80007e2a:	40 7c       	lddsp	r12,sp[0x1c]
80007e2c:	fe 3d fc d4 	sub	sp,-812
80007e30:	d8 32       	popm	r0-r7,pc
80007e32:	d7 03       	nop

80007e34 <__swsetup_r>:
80007e34:	d4 21       	pushm	r4-r7,lr
80007e36:	e0 68 01 94 	mov	r8,404
80007e3a:	18 96       	mov	r6,r12
80007e3c:	16 97       	mov	r7,r11
80007e3e:	70 0c       	ld.w	r12,r8[0x0]
80007e40:	58 0c       	cp.w	r12,0
80007e42:	c0 60       	breq	80007e4e <__swsetup_r+0x1a>
80007e44:	78 68       	ld.w	r8,r12[0x18]
80007e46:	58 08       	cp.w	r8,0
80007e48:	c0 31       	brne	80007e4e <__swsetup_r+0x1a>
80007e4a:	e0 a0 07 cb 	rcall	80008de0 <__sinit>
80007e4e:	fe c8 a1 a2 	sub	r8,pc,-24158
80007e52:	10 37       	cp.w	r7,r8
80007e54:	c0 61       	brne	80007e60 <__swsetup_r+0x2c>
80007e56:	e0 68 01 94 	mov	r8,404
80007e5a:	70 08       	ld.w	r8,r8[0x0]
80007e5c:	70 07       	ld.w	r7,r8[0x0]
80007e5e:	c1 28       	rjmp	80007e82 <__swsetup_r+0x4e>
80007e60:	fe c8 a1 94 	sub	r8,pc,-24172
80007e64:	10 37       	cp.w	r7,r8
80007e66:	c0 61       	brne	80007e72 <__swsetup_r+0x3e>
80007e68:	e0 68 01 94 	mov	r8,404
80007e6c:	70 08       	ld.w	r8,r8[0x0]
80007e6e:	70 17       	ld.w	r7,r8[0x4]
80007e70:	c0 98       	rjmp	80007e82 <__swsetup_r+0x4e>
80007e72:	fe c8 a1 86 	sub	r8,pc,-24186
80007e76:	10 37       	cp.w	r7,r8
80007e78:	c0 51       	brne	80007e82 <__swsetup_r+0x4e>
80007e7a:	e0 68 01 94 	mov	r8,404
80007e7e:	70 08       	ld.w	r8,r8[0x0]
80007e80:	70 27       	ld.w	r7,r8[0x8]
80007e82:	8e 68       	ld.sh	r8,r7[0xc]
80007e84:	ed b8 00 03 	bld	r8,0x3
80007e88:	c1 e0       	breq	80007ec4 <__swsetup_r+0x90>
80007e8a:	ed b8 00 04 	bld	r8,0x4
80007e8e:	c3 e1       	brne	80007f0a <__swsetup_r+0xd6>
80007e90:	ed b8 00 02 	bld	r8,0x2
80007e94:	c1 51       	brne	80007ebe <__swsetup_r+0x8a>
80007e96:	6e db       	ld.w	r11,r7[0x34]
80007e98:	58 0b       	cp.w	r11,0
80007e9a:	c0 a0       	breq	80007eae <__swsetup_r+0x7a>
80007e9c:	ee c8 ff bc 	sub	r8,r7,-68
80007ea0:	10 3b       	cp.w	r11,r8
80007ea2:	c0 40       	breq	80007eaa <__swsetup_r+0x76>
80007ea4:	0c 9c       	mov	r12,r6
80007ea6:	e0 a0 08 91 	rcall	80008fc8 <_free_r>
80007eaa:	30 08       	mov	r8,0
80007eac:	8f d8       	st.w	r7[0x34],r8
80007eae:	8e 68       	ld.sh	r8,r7[0xc]
80007eb0:	e0 18 ff db 	andl	r8,0xffdb
80007eb4:	ae 68       	st.h	r7[0xc],r8
80007eb6:	30 08       	mov	r8,0
80007eb8:	8f 18       	st.w	r7[0x4],r8
80007eba:	6e 48       	ld.w	r8,r7[0x10]
80007ebc:	8f 08       	st.w	r7[0x0],r8
80007ebe:	8e 68       	ld.sh	r8,r7[0xc]
80007ec0:	a3 b8       	sbr	r8,0x3
80007ec2:	ae 68       	st.h	r7[0xc],r8
80007ec4:	6e 48       	ld.w	r8,r7[0x10]
80007ec6:	58 08       	cp.w	r8,0
80007ec8:	c0 b1       	brne	80007ede <__swsetup_r+0xaa>
80007eca:	8e 68       	ld.sh	r8,r7[0xc]
80007ecc:	e2 18 02 80 	andl	r8,0x280,COH
80007ed0:	e0 48 02 00 	cp.w	r8,512
80007ed4:	c0 50       	breq	80007ede <__swsetup_r+0xaa>
80007ed6:	0c 9c       	mov	r12,r6
80007ed8:	0e 9b       	mov	r11,r7
80007eda:	e0 a0 0a ed 	rcall	800094b4 <__smakebuf_r>
80007ede:	8e 69       	ld.sh	r9,r7[0xc]
80007ee0:	f1 d9 c0 01 	bfextu	r8,r9,0x0,0x1
80007ee4:	c0 70       	breq	80007ef2 <__swsetup_r+0xbe>
80007ee6:	30 08       	mov	r8,0
80007ee8:	8f 28       	st.w	r7[0x8],r8
80007eea:	6e 58       	ld.w	r8,r7[0x14]
80007eec:	5c 38       	neg	r8
80007eee:	8f 68       	st.w	r7[0x18],r8
80007ef0:	c0 68       	rjmp	80007efc <__swsetup_r+0xc8>
80007ef2:	ed b9 00 01 	bld	r9,0x1
80007ef6:	ef f8 10 05 	ld.wne	r8,r7[0x14]
80007efa:	8f 28       	st.w	r7[0x8],r8
80007efc:	6e 48       	ld.w	r8,r7[0x10]
80007efe:	58 08       	cp.w	r8,0
80007f00:	c0 61       	brne	80007f0c <__swsetup_r+0xd8>
80007f02:	8e 68       	ld.sh	r8,r7[0xc]
80007f04:	ed b8 00 07 	bld	r8,0x7
80007f08:	c0 21       	brne	80007f0c <__swsetup_r+0xd8>
80007f0a:	dc 2a       	popm	r4-r7,pc,r12=-1
80007f0c:	d8 2a       	popm	r4-r7,pc,r12=0
80007f0e:	d7 03       	nop

80007f10 <quorem>:
80007f10:	d4 31       	pushm	r0-r7,lr
80007f12:	20 2d       	sub	sp,8
80007f14:	18 97       	mov	r7,r12
80007f16:	78 48       	ld.w	r8,r12[0x10]
80007f18:	76 46       	ld.w	r6,r11[0x10]
80007f1a:	0c 38       	cp.w	r8,r6
80007f1c:	c0 34       	brge	80007f22 <quorem+0x12>
80007f1e:	30 0c       	mov	r12,0
80007f20:	c8 58       	rjmp	8000802a <quorem+0x11a>
80007f22:	ec c2 ff fc 	sub	r2,r6,-4
80007f26:	f6 c3 ff ec 	sub	r3,r11,-20
80007f2a:	f6 02 03 29 	ld.w	r9,r11[r2<<0x2]
80007f2e:	f8 02 03 2c 	ld.w	r12,r12[r2<<0x2]
80007f32:	2f f9       	sub	r9,-1
80007f34:	20 16       	sub	r6,1
80007f36:	f8 09 0d 08 	divu	r8,r12,r9
80007f3a:	f6 02 00 22 	add	r2,r11,r2<<0x2
80007f3e:	ee c4 ff ec 	sub	r4,r7,-20
80007f42:	10 95       	mov	r5,r8
80007f44:	58 08       	cp.w	r8,0
80007f46:	c4 10       	breq	80007fc8 <quorem+0xb8>
80007f48:	30 09       	mov	r9,0
80007f4a:	06 9a       	mov	r10,r3
80007f4c:	08 98       	mov	r8,r4
80007f4e:	12 91       	mov	r1,r9
80007f50:	50 0b       	stdsp	sp[0x0],r11
80007f52:	70 0e       	ld.w	lr,r8[0x0]
80007f54:	b1 8e       	lsr	lr,0x10
80007f56:	50 1e       	stdsp	sp[0x4],lr
80007f58:	15 0e       	ld.w	lr,r10++
80007f5a:	fc 00 16 10 	lsr	r0,lr,0x10
80007f5e:	fd de c0 10 	bfextu	lr,lr,0x0,0x10
80007f62:	ea 0e 03 41 	mac	r1,r5,lr
80007f66:	fd d1 c0 10 	bfextu	lr,r1,0x0,0x10
80007f6a:	b1 81       	lsr	r1,0x10
80007f6c:	40 1b       	lddsp	r11,sp[0x4]
80007f6e:	ea 00 02 40 	mul	r0,r5,r0
80007f72:	e2 00 00 00 	add	r0,r1,r0
80007f76:	e3 d0 c0 10 	bfextu	r1,r0,0x0,0x10
80007f7a:	02 1b       	sub	r11,r1
80007f7c:	50 1b       	stdsp	sp[0x4],r11
80007f7e:	70 0b       	ld.w	r11,r8[0x0]
80007f80:	e3 db c0 10 	bfextu	r1,r11,0x0,0x10
80007f84:	02 09       	add	r9,r1
80007f86:	f2 0e 01 0e 	sub	lr,r9,lr
80007f8a:	b0 1e       	st.h	r8[0x2],lr
80007f8c:	fc 09 14 10 	asr	r9,lr,0x10
80007f90:	40 1e       	lddsp	lr,sp[0x4]
80007f92:	fc 09 00 09 	add	r9,lr,r9
80007f96:	b0 09       	st.h	r8[0x0],r9
80007f98:	e0 01 16 10 	lsr	r1,r0,0x10
80007f9c:	2f c8       	sub	r8,-4
80007f9e:	b1 49       	asr	r9,0x10
80007fa0:	04 3a       	cp.w	r10,r2
80007fa2:	fe 98 ff d8 	brls	80007f52 <quorem+0x42>
80007fa6:	40 0b       	lddsp	r11,sp[0x0]
80007fa8:	58 0c       	cp.w	r12,0
80007faa:	c0 f1       	brne	80007fc8 <quorem+0xb8>
80007fac:	ec c8 ff fb 	sub	r8,r6,-5
80007fb0:	ee 08 00 28 	add	r8,r7,r8<<0x2
80007fb4:	c0 28       	rjmp	80007fb8 <quorem+0xa8>
80007fb6:	20 16       	sub	r6,1
80007fb8:	20 48       	sub	r8,4
80007fba:	08 38       	cp.w	r8,r4
80007fbc:	e0 88 00 05 	brls	80007fc6 <quorem+0xb6>
80007fc0:	70 09       	ld.w	r9,r8[0x0]
80007fc2:	58 09       	cp.w	r9,0
80007fc4:	cf 90       	breq	80007fb6 <quorem+0xa6>
80007fc6:	8f 46       	st.w	r7[0x10],r6
80007fc8:	0e 9c       	mov	r12,r7
80007fca:	e0 a0 0d c4 	rcall	80009b52 <__mcmp>
80007fce:	c2 d5       	brlt	80008028 <quorem+0x118>
80007fd0:	2f f5       	sub	r5,-1
80007fd2:	08 98       	mov	r8,r4
80007fd4:	30 09       	mov	r9,0
80007fd6:	07 0b       	ld.w	r11,r3++
80007fd8:	f6 0a 16 10 	lsr	r10,r11,0x10
80007fdc:	70 0c       	ld.w	r12,r8[0x0]
80007fde:	f7 db c0 10 	bfextu	r11,r11,0x0,0x10
80007fe2:	f8 0e 16 10 	lsr	lr,r12,0x10
80007fe6:	14 1e       	sub	lr,r10
80007fe8:	f5 dc c0 10 	bfextu	r10,r12,0x0,0x10
80007fec:	16 1a       	sub	r10,r11
80007fee:	12 0a       	add	r10,r9
80007ff0:	b0 1a       	st.h	r8[0x2],r10
80007ff2:	b1 4a       	asr	r10,0x10
80007ff4:	fc 0a 00 09 	add	r9,lr,r10
80007ff8:	b0 09       	st.h	r8[0x0],r9
80007ffa:	2f c8       	sub	r8,-4
80007ffc:	b1 49       	asr	r9,0x10
80007ffe:	04 33       	cp.w	r3,r2
80008000:	fe 98 ff eb 	brls	80007fd6 <quorem+0xc6>
80008004:	ec c8 ff fb 	sub	r8,r6,-5
80008008:	ee 08 03 29 	ld.w	r9,r7[r8<<0x2]
8000800c:	58 09       	cp.w	r9,0
8000800e:	c0 d1       	brne	80008028 <quorem+0x118>
80008010:	ee 08 00 28 	add	r8,r7,r8<<0x2
80008014:	c0 28       	rjmp	80008018 <quorem+0x108>
80008016:	20 16       	sub	r6,1
80008018:	20 48       	sub	r8,4
8000801a:	08 38       	cp.w	r8,r4
8000801c:	e0 88 00 05 	brls	80008026 <quorem+0x116>
80008020:	70 09       	ld.w	r9,r8[0x0]
80008022:	58 09       	cp.w	r9,0
80008024:	cf 90       	breq	80008016 <quorem+0x106>
80008026:	8f 46       	st.w	r7[0x10],r6
80008028:	0a 9c       	mov	r12,r5
8000802a:	2f ed       	sub	sp,-8
8000802c:	d8 32       	popm	r0-r7,pc
8000802e:	d7 03       	nop

80008030 <_dtoa_r>:
80008030:	d4 31       	pushm	r0-r7,lr
80008032:	21 ad       	sub	sp,104
80008034:	fa c4 ff 74 	sub	r4,sp,-140
80008038:	18 97       	mov	r7,r12
8000803a:	16 95       	mov	r5,r11
8000803c:	68 2c       	ld.w	r12,r4[0x8]
8000803e:	50 c9       	stdsp	sp[0x30],r9
80008040:	68 16       	ld.w	r6,r4[0x4]
80008042:	68 09       	ld.w	r9,r4[0x0]
80008044:	50 e8       	stdsp	sp[0x38],r8
80008046:	14 94       	mov	r4,r10
80008048:	51 2c       	stdsp	sp[0x48],r12
8000804a:	fa e5 00 08 	st.d	sp[8],r4
8000804e:	51 59       	stdsp	sp[0x54],r9
80008050:	6e 95       	ld.w	r5,r7[0x24]
80008052:	58 05       	cp.w	r5,0
80008054:	c0 91       	brne	80008066 <_dtoa_r+0x36>
80008056:	31 0c       	mov	r12,16
80008058:	e0 a0 0a 8c 	rcall	80009570 <malloc>
8000805c:	99 35       	st.w	r12[0xc],r5
8000805e:	8f 9c       	st.w	r7[0x24],r12
80008060:	99 15       	st.w	r12[0x4],r5
80008062:	99 25       	st.w	r12[0x8],r5
80008064:	99 05       	st.w	r12[0x0],r5
80008066:	6e 99       	ld.w	r9,r7[0x24]
80008068:	72 08       	ld.w	r8,r9[0x0]
8000806a:	58 08       	cp.w	r8,0
8000806c:	c0 f0       	breq	8000808a <_dtoa_r+0x5a>
8000806e:	72 1a       	ld.w	r10,r9[0x4]
80008070:	91 1a       	st.w	r8[0x4],r10
80008072:	30 1a       	mov	r10,1
80008074:	72 19       	ld.w	r9,r9[0x4]
80008076:	f4 09 09 49 	lsl	r9,r10,r9
8000807a:	10 9b       	mov	r11,r8
8000807c:	91 29       	st.w	r8[0x8],r9
8000807e:	0e 9c       	mov	r12,r7
80008080:	e0 a0 0e 58 	rcall	80009d30 <_Bfree>
80008084:	6e 98       	ld.w	r8,r7[0x24]
80008086:	30 09       	mov	r9,0
80008088:	91 09       	st.w	r8[0x0],r9
8000808a:	40 28       	lddsp	r8,sp[0x8]
8000808c:	10 94       	mov	r4,r8
8000808e:	58 08       	cp.w	r8,0
80008090:	c0 64       	brge	8000809c <_dtoa_r+0x6c>
80008092:	f1 d8 c0 1f 	bfextu	r8,r8,0x0,0x1f
80008096:	50 28       	stdsp	sp[0x8],r8
80008098:	30 18       	mov	r8,1
8000809a:	c0 28       	rjmp	8000809e <_dtoa_r+0x6e>
8000809c:	30 08       	mov	r8,0
8000809e:	8d 08       	st.w	r6[0x0],r8
800080a0:	fc 1c 7f f0 	movh	r12,0x7ff0
800080a4:	40 26       	lddsp	r6,sp[0x8]
800080a6:	0c 98       	mov	r8,r6
800080a8:	e6 18 7f f0 	andh	r8,0x7ff0,COH
800080ac:	18 38       	cp.w	r8,r12
800080ae:	c2 01       	brne	800080ee <_dtoa_r+0xbe>
800080b0:	e0 68 27 0f 	mov	r8,9999
800080b4:	41 5b       	lddsp	r11,sp[0x54]
800080b6:	97 08       	st.w	r11[0x0],r8
800080b8:	40 3a       	lddsp	r10,sp[0xc]
800080ba:	58 0a       	cp.w	r10,0
800080bc:	c0 71       	brne	800080ca <_dtoa_r+0x9a>
800080be:	ed d6 c0 14 	bfextu	r6,r6,0x0,0x14
800080c2:	c0 41       	brne	800080ca <_dtoa_r+0x9a>
800080c4:	fe cc a4 28 	sub	r12,pc,-23512
800080c8:	c0 38       	rjmp	800080ce <_dtoa_r+0x9e>
800080ca:	fe cc a4 22 	sub	r12,pc,-23518
800080ce:	41 29       	lddsp	r9,sp[0x48]
800080d0:	58 09       	cp.w	r9,0
800080d2:	e0 80 05 9a 	breq	80008c06 <_dtoa_r+0xbd6>
800080d6:	f8 c8 ff fd 	sub	r8,r12,-3
800080da:	f8 c9 ff f8 	sub	r9,r12,-8
800080de:	11 8b       	ld.ub	r11,r8[0x0]
800080e0:	30 0a       	mov	r10,0
800080e2:	41 25       	lddsp	r5,sp[0x48]
800080e4:	f4 0b 18 00 	cp.b	r11,r10
800080e8:	f2 08 17 10 	movne	r8,r9
800080ec:	c1 68       	rjmp	80008118 <_dtoa_r+0xe8>
800080ee:	fa ea 00 08 	ld.d	r10,sp[8]
800080f2:	30 08       	mov	r8,0
800080f4:	fa eb 00 3c 	st.d	sp[60],r10
800080f8:	30 09       	mov	r9,0
800080fa:	e0 a0 24 62 	rcall	8000c9be <__avr32_f64_cmp_eq>
800080fe:	c1 00       	breq	8000811e <_dtoa_r+0xee>
80008100:	30 18       	mov	r8,1
80008102:	41 5a       	lddsp	r10,sp[0x54]
80008104:	95 08       	st.w	r10[0x0],r8
80008106:	fe cc a6 be 	sub	r12,pc,-22850
8000810a:	41 29       	lddsp	r9,sp[0x48]
8000810c:	f8 08 00 08 	add	r8,r12,r8
80008110:	58 09       	cp.w	r9,0
80008112:	e0 80 05 7a 	breq	80008c06 <_dtoa_r+0xbd6>
80008116:	12 95       	mov	r5,r9
80008118:	8b 08       	st.w	r5[0x0],r8
8000811a:	e0 8f 05 76 	bral	80008c06 <_dtoa_r+0xbd6>
8000811e:	fa c8 ff 9c 	sub	r8,sp,-100
80008122:	fa c9 ff a0 	sub	r9,sp,-96
80008126:	fa ea 00 3c 	ld.d	r10,sp[60]
8000812a:	0e 9c       	mov	r12,r7
8000812c:	eb d6 c2 8b 	bfextu	r5,r6,0x14,0xb
80008130:	e0 a0 0e 52 	rcall	80009dd4 <__d2b>
80008134:	18 93       	mov	r3,r12
80008136:	58 05       	cp.w	r5,0
80008138:	c0 d0       	breq	80008152 <_dtoa_r+0x122>
8000813a:	fa ea 00 3c 	ld.d	r10,sp[60]
8000813e:	30 04       	mov	r4,0
80008140:	f1 db c0 14 	bfextu	r8,r11,0x0,0x14
80008144:	ea c5 03 ff 	sub	r5,r5,1023
80008148:	10 9b       	mov	r11,r8
8000814a:	51 74       	stdsp	sp[0x5c],r4
8000814c:	ea 1b 3f f0 	orh	r11,0x3ff0
80008150:	c2 58       	rjmp	8000819a <_dtoa_r+0x16a>
80008152:	41 88       	lddsp	r8,sp[0x60]
80008154:	41 9c       	lddsp	r12,sp[0x64]
80008156:	10 0c       	add	r12,r8
80008158:	f8 c5 fb ce 	sub	r5,r12,-1074
8000815c:	e0 45 00 20 	cp.w	r5,32
80008160:	e0 8a 00 0e 	brle	8000817c <_dtoa_r+0x14c>
80008164:	f8 cc fb ee 	sub	r12,r12,-1042
80008168:	40 3b       	lddsp	r11,sp[0xc]
8000816a:	ea 08 11 40 	rsub	r8,r5,64
8000816e:	f6 0c 0a 4c 	lsr	r12,r11,r12
80008172:	ec 08 09 46 	lsl	r6,r6,r8
80008176:	0c 4c       	or	r12,r6
80008178:	c0 78       	rjmp	80008186 <_dtoa_r+0x156>
8000817a:	d7 03       	nop
8000817c:	ea 0c 11 20 	rsub	r12,r5,32
80008180:	40 3a       	lddsp	r10,sp[0xc]
80008182:	f4 0c 09 4c 	lsl	r12,r10,r12
80008186:	e0 a0 23 a8 	rcall	8000c8d6 <__avr32_u32_to_f64>
8000818a:	fc 18 fe 10 	movh	r8,0xfe10
8000818e:	30 19       	mov	r9,1
80008190:	ea c5 04 33 	sub	r5,r5,1075
80008194:	f0 0b 00 0b 	add	r11,r8,r11
80008198:	51 79       	stdsp	sp[0x5c],r9
8000819a:	30 08       	mov	r8,0
8000819c:	fc 19 3f f8 	movh	r9,0x3ff8
800081a0:	e0 a0 22 30 	rcall	8000c600 <__avr32_f64_sub>
800081a4:	e0 68 43 61 	mov	r8,17249
800081a8:	ea 18 63 6f 	orh	r8,0x636f
800081ac:	e0 69 87 a7 	mov	r9,34727
800081b0:	ea 19 3f d2 	orh	r9,0x3fd2
800081b4:	e0 a0 21 3a 	rcall	8000c428 <__avr32_f64_mul>
800081b8:	e0 68 c8 b3 	mov	r8,51379
800081bc:	ea 18 8b 60 	orh	r8,0x8b60
800081c0:	e0 69 8a 28 	mov	r9,35368
800081c4:	ea 19 3f c6 	orh	r9,0x3fc6
800081c8:	e0 a0 22 ea 	rcall	8000c79c <__avr32_f64_add>
800081cc:	0a 9c       	mov	r12,r5
800081ce:	14 90       	mov	r0,r10
800081d0:	16 91       	mov	r1,r11
800081d2:	e0 a0 23 86 	rcall	8000c8de <__avr32_s32_to_f64>
800081d6:	e0 68 79 fb 	mov	r8,31227
800081da:	ea 18 50 9f 	orh	r8,0x509f
800081de:	e0 69 44 13 	mov	r9,17427
800081e2:	ea 19 3f d3 	orh	r9,0x3fd3
800081e6:	e0 a0 21 21 	rcall	8000c428 <__avr32_f64_mul>
800081ea:	14 98       	mov	r8,r10
800081ec:	16 99       	mov	r9,r11
800081ee:	00 9a       	mov	r10,r0
800081f0:	02 9b       	mov	r11,r1
800081f2:	e0 a0 22 d5 	rcall	8000c79c <__avr32_f64_add>
800081f6:	14 90       	mov	r0,r10
800081f8:	16 91       	mov	r1,r11
800081fa:	e0 a0 23 5b 	rcall	8000c8b0 <__avr32_f64_to_s32>
800081fe:	30 08       	mov	r8,0
80008200:	18 96       	mov	r6,r12
80008202:	30 09       	mov	r9,0
80008204:	00 9a       	mov	r10,r0
80008206:	02 9b       	mov	r11,r1
80008208:	e0 a0 24 22 	rcall	8000ca4c <__avr32_f64_cmp_lt>
8000820c:	c0 c0       	breq	80008224 <_dtoa_r+0x1f4>
8000820e:	0c 9c       	mov	r12,r6
80008210:	e0 a0 23 67 	rcall	8000c8de <__avr32_s32_to_f64>
80008214:	14 98       	mov	r8,r10
80008216:	16 99       	mov	r9,r11
80008218:	00 9a       	mov	r10,r0
8000821a:	02 9b       	mov	r11,r1
8000821c:	e0 a0 23 d1 	rcall	8000c9be <__avr32_f64_cmp_eq>
80008220:	f7 b6 00 01 	subeq	r6,1
80008224:	59 66       	cp.w	r6,22
80008226:	e0 88 00 05 	brls	80008230 <_dtoa_r+0x200>
8000822a:	30 18       	mov	r8,1
8000822c:	51 48       	stdsp	sp[0x50],r8
8000822e:	c1 38       	rjmp	80008254 <_dtoa_r+0x224>
80008230:	fe c8 a4 d8 	sub	r8,pc,-23336
80008234:	fa ea 00 3c 	ld.d	r10,sp[60]
80008238:	f0 06 02 38 	ld.d	r8,r8[r6<<0x3]
8000823c:	e0 a0 24 08 	rcall	8000ca4c <__avr32_f64_cmp_lt>
80008240:	f9 b4 00 00 	moveq	r4,0
80008244:	fb f4 0a 14 	st.weq	sp[0x50],r4
80008248:	f7 b6 01 01 	subne	r6,1
8000824c:	f9 bc 01 00 	movne	r12,0
80008250:	fb fc 1a 14 	st.wne	sp[0x50],r12
80008254:	41 90       	lddsp	r0,sp[0x64]
80008256:	20 10       	sub	r0,1
80008258:	0a 10       	sub	r0,r5
8000825a:	c0 46       	brmi	80008262 <_dtoa_r+0x232>
8000825c:	50 40       	stdsp	sp[0x10],r0
8000825e:	30 00       	mov	r0,0
80008260:	c0 48       	rjmp	80008268 <_dtoa_r+0x238>
80008262:	30 0b       	mov	r11,0
80008264:	5c 30       	neg	r0
80008266:	50 4b       	stdsp	sp[0x10],r11
80008268:	ec 02 11 00 	rsub	r2,r6,0
8000826c:	58 06       	cp.w	r6,0
8000826e:	fb fa 40 04 	ld.wge	r10,sp[0x10]
80008272:	f5 d6 e4 0a 	addge	r10,r10,r6
80008276:	fb fa 4a 04 	st.wge	sp[0x10],r10
8000827a:	fb f6 4a 11 	st.wge	sp[0x44],r6
8000827e:	f9 b2 04 00 	movge	r2,0
80008282:	e1 d6 e5 10 	sublt	r0,r0,r6
80008286:	f9 b9 05 00 	movlt	r9,0
8000828a:	fb f9 5a 11 	st.wlt	sp[0x44],r9
8000828e:	40 c8       	lddsp	r8,sp[0x30]
80008290:	58 98       	cp.w	r8,9
80008292:	e0 8b 00 20 	brhi	800082d2 <_dtoa_r+0x2a2>
80008296:	58 58       	cp.w	r8,5
80008298:	f9 b4 0a 01 	movle	r4,1
8000829c:	fb f5 90 0c 	ld.wgt	r5,sp[0x30]
800082a0:	f7 b5 09 04 	subgt	r5,4
800082a4:	fb f5 9a 0c 	st.wgt	sp[0x30],r5
800082a8:	f9 b4 09 00 	movgt	r4,0
800082ac:	40 cc       	lddsp	r12,sp[0x30]
800082ae:	58 3c       	cp.w	r12,3
800082b0:	c2 d0       	breq	8000830a <_dtoa_r+0x2da>
800082b2:	e0 89 00 05 	brgt	800082bc <_dtoa_r+0x28c>
800082b6:	58 2c       	cp.w	r12,2
800082b8:	c1 01       	brne	800082d8 <_dtoa_r+0x2a8>
800082ba:	c1 88       	rjmp	800082ea <_dtoa_r+0x2ba>
800082bc:	40 cb       	lddsp	r11,sp[0x30]
800082be:	58 4b       	cp.w	r11,4
800082c0:	c0 60       	breq	800082cc <_dtoa_r+0x29c>
800082c2:	58 5b       	cp.w	r11,5
800082c4:	c0 a1       	brne	800082d8 <_dtoa_r+0x2a8>
800082c6:	30 1a       	mov	r10,1
800082c8:	50 da       	stdsp	sp[0x34],r10
800082ca:	c2 28       	rjmp	8000830e <_dtoa_r+0x2de>
800082cc:	30 19       	mov	r9,1
800082ce:	50 d9       	stdsp	sp[0x34],r9
800082d0:	c0 f8       	rjmp	800082ee <_dtoa_r+0x2be>
800082d2:	30 08       	mov	r8,0
800082d4:	30 14       	mov	r4,1
800082d6:	50 c8       	stdsp	sp[0x30],r8
800082d8:	3f f5       	mov	r5,-1
800082da:	30 1c       	mov	r12,1
800082dc:	30 0b       	mov	r11,0
800082de:	50 95       	stdsp	sp[0x24],r5
800082e0:	50 dc       	stdsp	sp[0x34],r12
800082e2:	0a 91       	mov	r1,r5
800082e4:	31 28       	mov	r8,18
800082e6:	50 eb       	stdsp	sp[0x38],r11
800082e8:	c2 08       	rjmp	80008328 <_dtoa_r+0x2f8>
800082ea:	30 0a       	mov	r10,0
800082ec:	50 da       	stdsp	sp[0x34],r10
800082ee:	40 e9       	lddsp	r9,sp[0x38]
800082f0:	58 09       	cp.w	r9,0
800082f2:	e0 89 00 07 	brgt	80008300 <_dtoa_r+0x2d0>
800082f6:	30 18       	mov	r8,1
800082f8:	50 98       	stdsp	sp[0x24],r8
800082fa:	10 91       	mov	r1,r8
800082fc:	50 e8       	stdsp	sp[0x38],r8
800082fe:	c1 58       	rjmp	80008328 <_dtoa_r+0x2f8>
80008300:	40 e5       	lddsp	r5,sp[0x38]
80008302:	50 95       	stdsp	sp[0x24],r5
80008304:	0a 91       	mov	r1,r5
80008306:	0a 98       	mov	r8,r5
80008308:	c1 08       	rjmp	80008328 <_dtoa_r+0x2f8>
8000830a:	30 0c       	mov	r12,0
8000830c:	50 dc       	stdsp	sp[0x34],r12
8000830e:	40 eb       	lddsp	r11,sp[0x38]
80008310:	ec 0b 00 0b 	add	r11,r6,r11
80008314:	50 9b       	stdsp	sp[0x24],r11
80008316:	16 98       	mov	r8,r11
80008318:	2f f8       	sub	r8,-1
8000831a:	58 08       	cp.w	r8,0
8000831c:	e0 89 00 05 	brgt	80008326 <_dtoa_r+0x2f6>
80008320:	10 91       	mov	r1,r8
80008322:	30 18       	mov	r8,1
80008324:	c0 28       	rjmp	80008328 <_dtoa_r+0x2f8>
80008326:	10 91       	mov	r1,r8
80008328:	30 09       	mov	r9,0
8000832a:	6e 9a       	ld.w	r10,r7[0x24]
8000832c:	95 19       	st.w	r10[0x4],r9
8000832e:	30 49       	mov	r9,4
80008330:	c0 68       	rjmp	8000833c <_dtoa_r+0x30c>
80008332:	d7 03       	nop
80008334:	6a 1a       	ld.w	r10,r5[0x4]
80008336:	a1 79       	lsl	r9,0x1
80008338:	2f fa       	sub	r10,-1
8000833a:	8b 1a       	st.w	r5[0x4],r10
8000833c:	6e 95       	ld.w	r5,r7[0x24]
8000833e:	f2 ca ff ec 	sub	r10,r9,-20
80008342:	10 3a       	cp.w	r10,r8
80008344:	fe 98 ff f8 	brls	80008334 <_dtoa_r+0x304>
80008348:	6a 1b       	ld.w	r11,r5[0x4]
8000834a:	0e 9c       	mov	r12,r7
8000834c:	e0 a0 0d 0c 	rcall	80009d64 <_Balloc>
80008350:	58 e1       	cp.w	r1,14
80008352:	5f 88       	srls	r8
80008354:	8b 0c       	st.w	r5[0x0],r12
80008356:	f1 e4 00 04 	and	r4,r8,r4
8000835a:	6e 98       	ld.w	r8,r7[0x24]
8000835c:	70 08       	ld.w	r8,r8[0x0]
8000835e:	50 88       	stdsp	sp[0x20],r8
80008360:	e0 80 01 82 	breq	80008664 <_dtoa_r+0x634>
80008364:	58 06       	cp.w	r6,0
80008366:	e0 8a 00 43 	brle	800083ec <_dtoa_r+0x3bc>
8000836a:	f3 d6 c0 04 	bfextu	r9,r6,0x0,0x4
8000836e:	fe c8 a6 16 	sub	r8,pc,-23018
80008372:	f0 09 02 34 	ld.d	r4,r8[r9<<0x3]
80008376:	fa e5 00 18 	st.d	sp[24],r4
8000837a:	ec 04 14 04 	asr	r4,r6,0x4
8000837e:	ed b4 00 04 	bld	r4,0x4
80008382:	c0 30       	breq	80008388 <_dtoa_r+0x358>
80008384:	30 25       	mov	r5,2
80008386:	c1 08       	rjmp	800083a6 <_dtoa_r+0x376>
80008388:	fe c8 a5 68 	sub	r8,pc,-23192
8000838c:	f0 e8 00 20 	ld.d	r8,r8[32]
80008390:	fa ea 00 3c 	ld.d	r10,sp[60]
80008394:	e9 d4 c0 04 	bfextu	r4,r4,0x0,0x4
80008398:	e0 a0 23 8e 	rcall	8000cab4 <__avr32_f64_div>
8000839c:	30 35       	mov	r5,3
8000839e:	14 98       	mov	r8,r10
800083a0:	16 99       	mov	r9,r11
800083a2:	fa e9 00 08 	st.d	sp[8],r8
800083a6:	fe cc a5 86 	sub	r12,pc,-23162
800083aa:	50 a3       	stdsp	sp[0x28],r3
800083ac:	0c 93       	mov	r3,r6
800083ae:	18 96       	mov	r6,r12
800083b0:	c0 f8       	rjmp	800083ce <_dtoa_r+0x39e>
800083b2:	fa ea 00 18 	ld.d	r10,sp[24]
800083b6:	ed b4 00 00 	bld	r4,0x0
800083ba:	c0 81       	brne	800083ca <_dtoa_r+0x39a>
800083bc:	ec e8 00 00 	ld.d	r8,r6[0]
800083c0:	2f f5       	sub	r5,-1
800083c2:	e0 a0 20 33 	rcall	8000c428 <__avr32_f64_mul>
800083c6:	fa eb 00 18 	st.d	sp[24],r10
800083ca:	a1 54       	asr	r4,0x1
800083cc:	2f 86       	sub	r6,-8
800083ce:	58 04       	cp.w	r4,0
800083d0:	cf 11       	brne	800083b2 <_dtoa_r+0x382>
800083d2:	fa e8 00 18 	ld.d	r8,sp[24]
800083d6:	fa ea 00 08 	ld.d	r10,sp[8]
800083da:	06 96       	mov	r6,r3
800083dc:	e0 a0 23 6c 	rcall	8000cab4 <__avr32_f64_div>
800083e0:	40 a3       	lddsp	r3,sp[0x28]
800083e2:	14 98       	mov	r8,r10
800083e4:	16 99       	mov	r9,r11
800083e6:	fa e9 00 08 	st.d	sp[8],r8
800083ea:	c2 f8       	rjmp	80008448 <_dtoa_r+0x418>
800083ec:	ec 08 11 00 	rsub	r8,r6,0
800083f0:	c0 31       	brne	800083f6 <_dtoa_r+0x3c6>
800083f2:	30 25       	mov	r5,2
800083f4:	c2 a8       	rjmp	80008448 <_dtoa_r+0x418>
800083f6:	fe cc a5 d6 	sub	r12,pc,-23082
800083fa:	f0 04 14 04 	asr	r4,r8,0x4
800083fe:	50 1c       	stdsp	sp[0x4],r12
80008400:	f1 d8 c0 04 	bfextu	r8,r8,0x0,0x4
80008404:	fe c9 a6 ac 	sub	r9,pc,-22868
80008408:	fa ea 00 3c 	ld.d	r10,sp[60]
8000840c:	f2 08 02 38 	ld.d	r8,r9[r8<<0x3]
80008410:	e0 a0 20 0c 	rcall	8000c428 <__avr32_f64_mul>
80008414:	40 1c       	lddsp	r12,sp[0x4]
80008416:	50 63       	stdsp	sp[0x18],r3
80008418:	30 25       	mov	r5,2
8000841a:	0c 93       	mov	r3,r6
8000841c:	fa eb 00 08 	st.d	sp[8],r10
80008420:	18 96       	mov	r6,r12
80008422:	c0 f8       	rjmp	80008440 <_dtoa_r+0x410>
80008424:	fa ea 00 08 	ld.d	r10,sp[8]
80008428:	ed b4 00 00 	bld	r4,0x0
8000842c:	c0 81       	brne	8000843c <_dtoa_r+0x40c>
8000842e:	ec e8 00 00 	ld.d	r8,r6[0]
80008432:	2f f5       	sub	r5,-1
80008434:	e0 a0 1f fa 	rcall	8000c428 <__avr32_f64_mul>
80008438:	fa eb 00 08 	st.d	sp[8],r10
8000843c:	a1 54       	asr	r4,0x1
8000843e:	2f 86       	sub	r6,-8
80008440:	58 04       	cp.w	r4,0
80008442:	cf 11       	brne	80008424 <_dtoa_r+0x3f4>
80008444:	06 96       	mov	r6,r3
80008446:	40 63       	lddsp	r3,sp[0x18]
80008448:	41 4a       	lddsp	r10,sp[0x50]
8000844a:	58 0a       	cp.w	r10,0
8000844c:	c2 a0       	breq	800084a0 <_dtoa_r+0x470>
8000844e:	fa e8 00 08 	ld.d	r8,sp[8]
80008452:	58 01       	cp.w	r1,0
80008454:	5f 94       	srgt	r4
80008456:	fa e9 00 18 	st.d	sp[24],r8
8000845a:	30 08       	mov	r8,0
8000845c:	fc 19 3f f0 	movh	r9,0x3ff0
80008460:	fa ea 00 18 	ld.d	r10,sp[24]
80008464:	e0 a0 22 f4 	rcall	8000ca4c <__avr32_f64_cmp_lt>
80008468:	f9 bc 00 00 	moveq	r12,0
8000846c:	f9 bc 01 01 	movne	r12,1
80008470:	e9 ec 00 0c 	and	r12,r4,r12
80008474:	c1 60       	breq	800084a0 <_dtoa_r+0x470>
80008476:	40 98       	lddsp	r8,sp[0x24]
80008478:	58 08       	cp.w	r8,0
8000847a:	e0 8a 00 f1 	brle	8000865c <_dtoa_r+0x62c>
8000847e:	30 08       	mov	r8,0
80008480:	fc 19 40 24 	movh	r9,0x4024
80008484:	ec c4 00 01 	sub	r4,r6,1
80008488:	fa ea 00 18 	ld.d	r10,sp[24]
8000848c:	2f f5       	sub	r5,-1
8000848e:	50 64       	stdsp	sp[0x18],r4
80008490:	e0 a0 1f cc 	rcall	8000c428 <__avr32_f64_mul>
80008494:	40 94       	lddsp	r4,sp[0x24]
80008496:	14 98       	mov	r8,r10
80008498:	16 99       	mov	r9,r11
8000849a:	fa e9 00 08 	st.d	sp[8],r8
8000849e:	c0 38       	rjmp	800084a4 <_dtoa_r+0x474>
800084a0:	50 66       	stdsp	sp[0x18],r6
800084a2:	02 94       	mov	r4,r1
800084a4:	0a 9c       	mov	r12,r5
800084a6:	e0 a0 22 1c 	rcall	8000c8de <__avr32_s32_to_f64>
800084aa:	fa e8 00 08 	ld.d	r8,sp[8]
800084ae:	e0 a0 1f bd 	rcall	8000c428 <__avr32_f64_mul>
800084b2:	30 08       	mov	r8,0
800084b4:	fc 19 40 1c 	movh	r9,0x401c
800084b8:	e0 a0 21 72 	rcall	8000c79c <__avr32_f64_add>
800084bc:	14 98       	mov	r8,r10
800084be:	16 99       	mov	r9,r11
800084c0:	fa e9 00 28 	st.d	sp[40],r8
800084c4:	fc 18 fc c0 	movh	r8,0xfcc0
800084c8:	40 a5       	lddsp	r5,sp[0x28]
800084ca:	10 05       	add	r5,r8
800084cc:	50 a5       	stdsp	sp[0x28],r5
800084ce:	58 04       	cp.w	r4,0
800084d0:	c2 11       	brne	80008512 <_dtoa_r+0x4e2>
800084d2:	fa ea 00 08 	ld.d	r10,sp[8]
800084d6:	30 08       	mov	r8,0
800084d8:	fc 19 40 14 	movh	r9,0x4014
800084dc:	e0 a0 20 92 	rcall	8000c600 <__avr32_f64_sub>
800084e0:	40 bc       	lddsp	r12,sp[0x2c]
800084e2:	fa eb 00 08 	st.d	sp[8],r10
800084e6:	14 98       	mov	r8,r10
800084e8:	16 99       	mov	r9,r11
800084ea:	18 9a       	mov	r10,r12
800084ec:	0a 9b       	mov	r11,r5
800084ee:	e0 a0 22 af 	rcall	8000ca4c <__avr32_f64_cmp_lt>
800084f2:	e0 81 02 54 	brne	8000899a <_dtoa_r+0x96a>
800084f6:	0a 98       	mov	r8,r5
800084f8:	40 b9       	lddsp	r9,sp[0x2c]
800084fa:	ee 18 80 00 	eorh	r8,0x8000
800084fe:	fa ea 00 08 	ld.d	r10,sp[8]
80008502:	10 95       	mov	r5,r8
80008504:	12 98       	mov	r8,r9
80008506:	0a 99       	mov	r9,r5
80008508:	e0 a0 22 a2 	rcall	8000ca4c <__avr32_f64_cmp_lt>
8000850c:	e0 81 02 3e 	brne	80008988 <_dtoa_r+0x958>
80008510:	ca 68       	rjmp	8000865c <_dtoa_r+0x62c>
80008512:	fe c9 a7 ba 	sub	r9,pc,-22598
80008516:	e8 c8 00 01 	sub	r8,r4,1
8000851a:	40 d5       	lddsp	r5,sp[0x34]
8000851c:	58 05       	cp.w	r5,0
8000851e:	c4 f0       	breq	800085bc <_dtoa_r+0x58c>
80008520:	30 0c       	mov	r12,0
80008522:	f2 08 02 38 	ld.d	r8,r9[r8<<0x3]
80008526:	51 3c       	stdsp	sp[0x4c],r12
80008528:	30 0a       	mov	r10,0
8000852a:	fc 1b 3f e0 	movh	r11,0x3fe0
8000852e:	e0 a0 22 c3 	rcall	8000cab4 <__avr32_f64_div>
80008532:	fa e8 00 28 	ld.d	r8,sp[40]
80008536:	40 85       	lddsp	r5,sp[0x20]
80008538:	e0 a0 20 64 	rcall	8000c600 <__avr32_f64_sub>
8000853c:	fa eb 00 28 	st.d	sp[40],r10
80008540:	fa ea 00 08 	ld.d	r10,sp[8]
80008544:	e0 a0 21 b6 	rcall	8000c8b0 <__avr32_f64_to_s32>
80008548:	51 6c       	stdsp	sp[0x58],r12
8000854a:	e0 a0 21 ca 	rcall	8000c8de <__avr32_s32_to_f64>
8000854e:	14 98       	mov	r8,r10
80008550:	16 99       	mov	r9,r11
80008552:	fa ea 00 08 	ld.d	r10,sp[8]
80008556:	e0 a0 20 55 	rcall	8000c600 <__avr32_f64_sub>
8000855a:	fa eb 00 08 	st.d	sp[8],r10
8000855e:	41 68       	lddsp	r8,sp[0x58]
80008560:	2d 08       	sub	r8,-48
80008562:	0a c8       	st.b	r5++,r8
80008564:	41 39       	lddsp	r9,sp[0x4c]
80008566:	2f f9       	sub	r9,-1
80008568:	51 39       	stdsp	sp[0x4c],r9
8000856a:	fa e8 00 28 	ld.d	r8,sp[40]
8000856e:	e0 a0 22 6f 	rcall	8000ca4c <__avr32_f64_cmp_lt>
80008572:	e0 81 03 39 	brne	80008be4 <_dtoa_r+0xbb4>
80008576:	fa e8 00 08 	ld.d	r8,sp[8]
8000857a:	30 0a       	mov	r10,0
8000857c:	fc 1b 3f f0 	movh	r11,0x3ff0
80008580:	e0 a0 20 40 	rcall	8000c600 <__avr32_f64_sub>
80008584:	fa e8 00 28 	ld.d	r8,sp[40]
80008588:	e0 a0 22 62 	rcall	8000ca4c <__avr32_f64_cmp_lt>
8000858c:	fa ea 00 28 	ld.d	r10,sp[40]
80008590:	30 08       	mov	r8,0
80008592:	fc 19 40 24 	movh	r9,0x4024
80008596:	e0 81 00 da 	brne	8000874a <_dtoa_r+0x71a>
8000859a:	41 3c       	lddsp	r12,sp[0x4c]
8000859c:	08 3c       	cp.w	r12,r4
8000859e:	c5 f4       	brge	8000865c <_dtoa_r+0x62c>
800085a0:	e0 a0 1f 44 	rcall	8000c428 <__avr32_f64_mul>
800085a4:	30 08       	mov	r8,0
800085a6:	fa eb 00 28 	st.d	sp[40],r10
800085aa:	fc 19 40 24 	movh	r9,0x4024
800085ae:	fa ea 00 08 	ld.d	r10,sp[8]
800085b2:	e0 a0 1f 3b 	rcall	8000c428 <__avr32_f64_mul>
800085b6:	fa eb 00 08 	st.d	sp[8],r10
800085ba:	cc 3b       	rjmp	80008540 <_dtoa_r+0x510>
800085bc:	40 85       	lddsp	r5,sp[0x20]
800085be:	08 05       	add	r5,r4
800085c0:	f2 08 02 3a 	ld.d	r10,r9[r8<<0x3]
800085c4:	51 35       	stdsp	sp[0x4c],r5
800085c6:	fa e8 00 28 	ld.d	r8,sp[40]
800085ca:	40 85       	lddsp	r5,sp[0x20]
800085cc:	e0 a0 1f 2e 	rcall	8000c428 <__avr32_f64_mul>
800085d0:	fa eb 00 28 	st.d	sp[40],r10
800085d4:	fa ea 00 08 	ld.d	r10,sp[8]
800085d8:	e0 a0 21 6c 	rcall	8000c8b0 <__avr32_f64_to_s32>
800085dc:	51 6c       	stdsp	sp[0x58],r12
800085de:	e0 a0 21 80 	rcall	8000c8de <__avr32_s32_to_f64>
800085e2:	14 98       	mov	r8,r10
800085e4:	16 99       	mov	r9,r11
800085e6:	fa ea 00 08 	ld.d	r10,sp[8]
800085ea:	e0 a0 20 0b 	rcall	8000c600 <__avr32_f64_sub>
800085ee:	fa eb 00 08 	st.d	sp[8],r10
800085f2:	41 68       	lddsp	r8,sp[0x58]
800085f4:	2d 08       	sub	r8,-48
800085f6:	0a c8       	st.b	r5++,r8
800085f8:	41 3c       	lddsp	r12,sp[0x4c]
800085fa:	18 35       	cp.w	r5,r12
800085fc:	c2 81       	brne	8000864c <_dtoa_r+0x61c>
800085fe:	30 08       	mov	r8,0
80008600:	fc 19 3f e0 	movh	r9,0x3fe0
80008604:	fa ea 00 28 	ld.d	r10,sp[40]
80008608:	e0 a0 20 ca 	rcall	8000c79c <__avr32_f64_add>
8000860c:	40 85       	lddsp	r5,sp[0x20]
8000860e:	fa e8 00 08 	ld.d	r8,sp[8]
80008612:	08 05       	add	r5,r4
80008614:	e0 a0 22 1c 	rcall	8000ca4c <__avr32_f64_cmp_lt>
80008618:	e0 81 00 99 	brne	8000874a <_dtoa_r+0x71a>
8000861c:	fa e8 00 28 	ld.d	r8,sp[40]
80008620:	30 0a       	mov	r10,0
80008622:	fc 1b 3f e0 	movh	r11,0x3fe0
80008626:	e0 a0 1f ed 	rcall	8000c600 <__avr32_f64_sub>
8000862a:	14 98       	mov	r8,r10
8000862c:	16 99       	mov	r9,r11
8000862e:	fa ea 00 08 	ld.d	r10,sp[8]
80008632:	e0 a0 22 0d 	rcall	8000ca4c <__avr32_f64_cmp_lt>
80008636:	c1 30       	breq	8000865c <_dtoa_r+0x62c>
80008638:	33 09       	mov	r9,48
8000863a:	0a 98       	mov	r8,r5
8000863c:	11 7a       	ld.ub	r10,--r8
8000863e:	f2 0a 18 00 	cp.b	r10,r9
80008642:	e0 81 02 d1 	brne	80008be4 <_dtoa_r+0xbb4>
80008646:	10 95       	mov	r5,r8
80008648:	cf 9b       	rjmp	8000863a <_dtoa_r+0x60a>
8000864a:	d7 03       	nop
8000864c:	30 08       	mov	r8,0
8000864e:	fc 19 40 24 	movh	r9,0x4024
80008652:	e0 a0 1e eb 	rcall	8000c428 <__avr32_f64_mul>
80008656:	fa eb 00 08 	st.d	sp[8],r10
8000865a:	cb db       	rjmp	800085d4 <_dtoa_r+0x5a4>
8000865c:	fa ea 00 3c 	ld.d	r10,sp[60]
80008660:	fa eb 00 08 	st.d	sp[8],r10
80008664:	58 e6       	cp.w	r6,14
80008666:	5f ab       	srle	r11
80008668:	41 8a       	lddsp	r10,sp[0x60]
8000866a:	30 08       	mov	r8,0
8000866c:	f4 09 11 ff 	rsub	r9,r10,-1
80008670:	f7 e9 03 f9 	and	r9,r11,r9>>0x1f
80008674:	f0 09 18 00 	cp.b	r9,r8
80008678:	e0 80 00 82 	breq	8000877c <_dtoa_r+0x74c>
8000867c:	40 ea       	lddsp	r10,sp[0x38]
8000867e:	58 01       	cp.w	r1,0
80008680:	5f a9       	srle	r9
80008682:	f3 ea 03 f9 	and	r9,r9,r10>>0x1f
80008686:	fe ca a9 2e 	sub	r10,pc,-22226
8000868a:	f4 06 02 34 	ld.d	r4,r10[r6<<0x3]
8000868e:	fa e5 00 10 	st.d	sp[16],r4
80008692:	f0 09 18 00 	cp.b	r9,r8
80008696:	c1 40       	breq	800086be <_dtoa_r+0x68e>
80008698:	58 01       	cp.w	r1,0
8000869a:	e0 81 01 77 	brne	80008988 <_dtoa_r+0x958>
8000869e:	30 08       	mov	r8,0
800086a0:	fc 19 40 14 	movh	r9,0x4014
800086a4:	08 9a       	mov	r10,r4
800086a6:	0a 9b       	mov	r11,r5
800086a8:	e0 a0 1e c0 	rcall	8000c428 <__avr32_f64_mul>
800086ac:	fa e8 00 08 	ld.d	r8,sp[8]
800086b0:	e0 a0 21 9a 	rcall	8000c9e4 <__avr32_f64_cmp_ge>
800086b4:	e0 81 01 6a 	brne	80008988 <_dtoa_r+0x958>
800086b8:	02 92       	mov	r2,r1
800086ba:	e0 8f 01 72 	bral	8000899e <_dtoa_r+0x96e>
800086be:	40 85       	lddsp	r5,sp[0x20]
800086c0:	30 14       	mov	r4,1
800086c2:	fa e8 00 10 	ld.d	r8,sp[16]
800086c6:	fa ea 00 08 	ld.d	r10,sp[8]
800086ca:	e0 a0 21 f5 	rcall	8000cab4 <__avr32_f64_div>
800086ce:	e0 a0 20 f1 	rcall	8000c8b0 <__avr32_f64_to_s32>
800086d2:	18 92       	mov	r2,r12
800086d4:	e0 a0 21 05 	rcall	8000c8de <__avr32_s32_to_f64>
800086d8:	fa e8 00 10 	ld.d	r8,sp[16]
800086dc:	e0 a0 1e a6 	rcall	8000c428 <__avr32_f64_mul>
800086e0:	14 98       	mov	r8,r10
800086e2:	16 99       	mov	r9,r11
800086e4:	fa ea 00 08 	ld.d	r10,sp[8]
800086e8:	e0 a0 1f 8c 	rcall	8000c600 <__avr32_f64_sub>
800086ec:	fa eb 00 08 	st.d	sp[8],r10
800086f0:	e4 c8 ff d0 	sub	r8,r2,-48
800086f4:	0a c8       	st.b	r5++,r8
800086f6:	fc 19 40 24 	movh	r9,0x4024
800086fa:	30 08       	mov	r8,0
800086fc:	02 34       	cp.w	r4,r1
800086fe:	c3 31       	brne	80008764 <_dtoa_r+0x734>
80008700:	fa e8 00 08 	ld.d	r8,sp[8]
80008704:	e0 a0 20 4c 	rcall	8000c79c <__avr32_f64_add>
80008708:	16 91       	mov	r1,r11
8000870a:	14 90       	mov	r0,r10
8000870c:	14 98       	mov	r8,r10
8000870e:	02 99       	mov	r9,r1
80008710:	fa ea 00 10 	ld.d	r10,sp[16]
80008714:	e0 a0 21 9c 	rcall	8000ca4c <__avr32_f64_cmp_lt>
80008718:	c1 a1       	brne	8000874c <_dtoa_r+0x71c>
8000871a:	fa e8 00 10 	ld.d	r8,sp[16]
8000871e:	00 9a       	mov	r10,r0
80008720:	02 9b       	mov	r11,r1
80008722:	e0 a0 21 4e 	rcall	8000c9be <__avr32_f64_cmp_eq>
80008726:	e0 80 02 5e 	breq	80008be2 <_dtoa_r+0xbb2>
8000872a:	e5 d2 c0 01 	bfextu	r2,r2,0x0,0x1
8000872e:	c0 f1       	brne	8000874c <_dtoa_r+0x71c>
80008730:	e0 8f 02 59 	bral	80008be2 <_dtoa_r+0xbb2>
80008734:	40 8a       	lddsp	r10,sp[0x20]
80008736:	14 38       	cp.w	r8,r10
80008738:	c0 30       	breq	8000873e <_dtoa_r+0x70e>
8000873a:	10 95       	mov	r5,r8
8000873c:	c0 98       	rjmp	8000874e <_dtoa_r+0x71e>
8000873e:	33 08       	mov	r8,48
80008740:	40 89       	lddsp	r9,sp[0x20]
80008742:	2f f6       	sub	r6,-1
80008744:	b2 88       	st.b	r9[0x0],r8
80008746:	40 88       	lddsp	r8,sp[0x20]
80008748:	c0 88       	rjmp	80008758 <_dtoa_r+0x728>
8000874a:	40 66       	lddsp	r6,sp[0x18]
8000874c:	33 99       	mov	r9,57
8000874e:	0a 98       	mov	r8,r5
80008750:	11 7a       	ld.ub	r10,--r8
80008752:	f2 0a 18 00 	cp.b	r10,r9
80008756:	ce f0       	breq	80008734 <_dtoa_r+0x704>
80008758:	50 66       	stdsp	sp[0x18],r6
8000875a:	11 89       	ld.ub	r9,r8[0x0]
8000875c:	2f f9       	sub	r9,-1
8000875e:	b0 89       	st.b	r8[0x0],r9
80008760:	e0 8f 02 42 	bral	80008be4 <_dtoa_r+0xbb4>
80008764:	e0 a0 1e 62 	rcall	8000c428 <__avr32_f64_mul>
80008768:	2f f4       	sub	r4,-1
8000876a:	fa eb 00 08 	st.d	sp[8],r10
8000876e:	30 08       	mov	r8,0
80008770:	30 09       	mov	r9,0
80008772:	e0 a0 21 26 	rcall	8000c9be <__avr32_f64_cmp_eq>
80008776:	ca 60       	breq	800086c2 <_dtoa_r+0x692>
80008778:	e0 8f 02 35 	bral	80008be2 <_dtoa_r+0xbb2>
8000877c:	40 d8       	lddsp	r8,sp[0x34]
8000877e:	58 08       	cp.w	r8,0
80008780:	c0 51       	brne	8000878a <_dtoa_r+0x75a>
80008782:	04 98       	mov	r8,r2
80008784:	00 95       	mov	r5,r0
80008786:	40 d4       	lddsp	r4,sp[0x34]
80008788:	c3 78       	rjmp	800087f6 <_dtoa_r+0x7c6>
8000878a:	40 c5       	lddsp	r5,sp[0x30]
8000878c:	58 15       	cp.w	r5,1
8000878e:	e0 89 00 0f 	brgt	800087ac <_dtoa_r+0x77c>
80008792:	41 74       	lddsp	r4,sp[0x5c]
80008794:	58 04       	cp.w	r4,0
80008796:	c0 40       	breq	8000879e <_dtoa_r+0x76e>
80008798:	f4 c9 fb cd 	sub	r9,r10,-1075
8000879c:	c0 48       	rjmp	800087a4 <_dtoa_r+0x774>
8000879e:	41 99       	lddsp	r9,sp[0x64]
800087a0:	f2 09 11 36 	rsub	r9,r9,54
800087a4:	04 98       	mov	r8,r2
800087a6:	00 95       	mov	r5,r0
800087a8:	c1 c8       	rjmp	800087e0 <_dtoa_r+0x7b0>
800087aa:	d7 03       	nop
800087ac:	e2 c8 00 01 	sub	r8,r1,1
800087b0:	58 01       	cp.w	r1,0
800087b2:	e0 05 17 40 	movge	r5,r0
800087b6:	e2 09 17 40 	movge	r9,r1
800087ba:	e1 d1 e5 15 	sublt	r5,r0,r1
800087be:	f9 b9 05 00 	movlt	r9,0
800087c2:	10 32       	cp.w	r2,r8
800087c4:	e5 d8 e4 18 	subge	r8,r2,r8
800087c8:	f1 d2 e5 18 	sublt	r8,r8,r2
800087cc:	e5 d8 e5 02 	addlt	r2,r2,r8
800087d0:	fb fc 50 11 	ld.wlt	r12,sp[0x44]
800087d4:	f9 d8 e5 0c 	addlt	r12,r12,r8
800087d8:	fb fc 5a 11 	st.wlt	sp[0x44],r12
800087dc:	f9 b8 05 00 	movlt	r8,0
800087e0:	40 4b       	lddsp	r11,sp[0x10]
800087e2:	12 0b       	add	r11,r9
800087e4:	50 08       	stdsp	sp[0x0],r8
800087e6:	50 4b       	stdsp	sp[0x10],r11
800087e8:	12 00       	add	r0,r9
800087ea:	30 1b       	mov	r11,1
800087ec:	0e 9c       	mov	r12,r7
800087ee:	e0 a0 0c 71 	rcall	8000a0d0 <__i2b>
800087f2:	40 08       	lddsp	r8,sp[0x0]
800087f4:	18 94       	mov	r4,r12
800087f6:	40 4a       	lddsp	r10,sp[0x10]
800087f8:	58 05       	cp.w	r5,0
800087fa:	5f 99       	srgt	r9
800087fc:	58 0a       	cp.w	r10,0
800087fe:	5f 9a       	srgt	r10
80008800:	f5 e9 00 09 	and	r9,r10,r9
80008804:	c0 80       	breq	80008814 <_dtoa_r+0x7e4>
80008806:	40 4c       	lddsp	r12,sp[0x10]
80008808:	f8 05 0d 49 	min	r9,r12,r5
8000880c:	12 1c       	sub	r12,r9
8000880e:	12 10       	sub	r0,r9
80008810:	50 4c       	stdsp	sp[0x10],r12
80008812:	12 15       	sub	r5,r9
80008814:	58 02       	cp.w	r2,0
80008816:	e0 8a 00 27 	brle	80008864 <_dtoa_r+0x834>
8000881a:	40 db       	lddsp	r11,sp[0x34]
8000881c:	58 0b       	cp.w	r11,0
8000881e:	c1 d0       	breq	80008858 <_dtoa_r+0x828>
80008820:	58 08       	cp.w	r8,0
80008822:	e0 8a 00 17 	brle	80008850 <_dtoa_r+0x820>
80008826:	10 9a       	mov	r10,r8
80008828:	50 08       	stdsp	sp[0x0],r8
8000882a:	08 9b       	mov	r11,r4
8000882c:	0e 9c       	mov	r12,r7
8000882e:	e0 a0 0c 97 	rcall	8000a15c <__pow5mult>
80008832:	06 9a       	mov	r10,r3
80008834:	18 9b       	mov	r11,r12
80008836:	18 94       	mov	r4,r12
80008838:	0e 9c       	mov	r12,r7
8000883a:	e0 a0 0b cb 	rcall	80009fd0 <__multiply>
8000883e:	18 99       	mov	r9,r12
80008840:	06 9b       	mov	r11,r3
80008842:	50 19       	stdsp	sp[0x4],r9
80008844:	0e 9c       	mov	r12,r7
80008846:	e0 a0 0a 75 	rcall	80009d30 <_Bfree>
8000884a:	40 19       	lddsp	r9,sp[0x4]
8000884c:	40 08       	lddsp	r8,sp[0x0]
8000884e:	12 93       	mov	r3,r9
80008850:	e4 08 01 0a 	sub	r10,r2,r8
80008854:	c0 80       	breq	80008864 <_dtoa_r+0x834>
80008856:	c0 28       	rjmp	8000885a <_dtoa_r+0x82a>
80008858:	04 9a       	mov	r10,r2
8000885a:	06 9b       	mov	r11,r3
8000885c:	0e 9c       	mov	r12,r7
8000885e:	e0 a0 0c 7f 	rcall	8000a15c <__pow5mult>
80008862:	18 93       	mov	r3,r12
80008864:	30 1b       	mov	r11,1
80008866:	0e 9c       	mov	r12,r7
80008868:	e0 a0 0c 34 	rcall	8000a0d0 <__i2b>
8000886c:	41 1a       	lddsp	r10,sp[0x44]
8000886e:	18 92       	mov	r2,r12
80008870:	58 0a       	cp.w	r10,0
80008872:	e0 8a 00 07 	brle	80008880 <_dtoa_r+0x850>
80008876:	18 9b       	mov	r11,r12
80008878:	0e 9c       	mov	r12,r7
8000887a:	e0 a0 0c 71 	rcall	8000a15c <__pow5mult>
8000887e:	18 92       	mov	r2,r12
80008880:	40 c9       	lddsp	r9,sp[0x30]
80008882:	58 19       	cp.w	r9,1
80008884:	e0 89 00 14 	brgt	800088ac <_dtoa_r+0x87c>
80008888:	40 38       	lddsp	r8,sp[0xc]
8000888a:	58 08       	cp.w	r8,0
8000888c:	c1 01       	brne	800088ac <_dtoa_r+0x87c>
8000888e:	40 29       	lddsp	r9,sp[0x8]
80008890:	f1 d9 c0 14 	bfextu	r8,r9,0x0,0x14
80008894:	c0 c1       	brne	800088ac <_dtoa_r+0x87c>
80008896:	12 98       	mov	r8,r9
80008898:	e6 18 7f f0 	andh	r8,0x7ff0,COH
8000889c:	c0 80       	breq	800088ac <_dtoa_r+0x87c>
8000889e:	40 4c       	lddsp	r12,sp[0x10]
800088a0:	30 1b       	mov	r11,1
800088a2:	2f fc       	sub	r12,-1
800088a4:	2f f0       	sub	r0,-1
800088a6:	50 4c       	stdsp	sp[0x10],r12
800088a8:	50 6b       	stdsp	sp[0x18],r11
800088aa:	c0 38       	rjmp	800088b0 <_dtoa_r+0x880>
800088ac:	30 0a       	mov	r10,0
800088ae:	50 6a       	stdsp	sp[0x18],r10
800088b0:	41 19       	lddsp	r9,sp[0x44]
800088b2:	58 09       	cp.w	r9,0
800088b4:	c0 31       	brne	800088ba <_dtoa_r+0x88a>
800088b6:	30 1c       	mov	r12,1
800088b8:	c0 98       	rjmp	800088ca <_dtoa_r+0x89a>
800088ba:	64 48       	ld.w	r8,r2[0x10]
800088bc:	2f c8       	sub	r8,-4
800088be:	e4 08 03 2c 	ld.w	r12,r2[r8<<0x2]
800088c2:	e0 a0 08 d1 	rcall	80009a64 <__hi0bits>
800088c6:	f8 0c 11 20 	rsub	r12,r12,32
800088ca:	40 4b       	lddsp	r11,sp[0x10]
800088cc:	f8 0b 00 08 	add	r8,r12,r11
800088d0:	f1 d8 c0 05 	bfextu	r8,r8,0x0,0x5
800088d4:	c0 c0       	breq	800088ec <_dtoa_r+0x8bc>
800088d6:	f0 08 11 20 	rsub	r8,r8,32
800088da:	58 48       	cp.w	r8,4
800088dc:	e0 8a 00 06 	brle	800088e8 <_dtoa_r+0x8b8>
800088e0:	20 48       	sub	r8,4
800088e2:	10 0b       	add	r11,r8
800088e4:	50 4b       	stdsp	sp[0x10],r11
800088e6:	c0 78       	rjmp	800088f4 <_dtoa_r+0x8c4>
800088e8:	58 48       	cp.w	r8,4
800088ea:	c0 70       	breq	800088f8 <_dtoa_r+0x8c8>
800088ec:	40 4a       	lddsp	r10,sp[0x10]
800088ee:	2e 48       	sub	r8,-28
800088f0:	10 0a       	add	r10,r8
800088f2:	50 4a       	stdsp	sp[0x10],r10
800088f4:	10 00       	add	r0,r8
800088f6:	10 05       	add	r5,r8
800088f8:	58 00       	cp.w	r0,0
800088fa:	e0 8a 00 08 	brle	8000890a <_dtoa_r+0x8da>
800088fe:	06 9b       	mov	r11,r3
80008900:	00 9a       	mov	r10,r0
80008902:	0e 9c       	mov	r12,r7
80008904:	e0 a0 0b 22 	rcall	80009f48 <__lshift>
80008908:	18 93       	mov	r3,r12
8000890a:	40 49       	lddsp	r9,sp[0x10]
8000890c:	58 09       	cp.w	r9,0
8000890e:	e0 8a 00 08 	brle	8000891e <_dtoa_r+0x8ee>
80008912:	04 9b       	mov	r11,r2
80008914:	12 9a       	mov	r10,r9
80008916:	0e 9c       	mov	r12,r7
80008918:	e0 a0 0b 18 	rcall	80009f48 <__lshift>
8000891c:	18 92       	mov	r2,r12
8000891e:	41 48       	lddsp	r8,sp[0x50]
80008920:	58 08       	cp.w	r8,0
80008922:	c1 b0       	breq	80008958 <_dtoa_r+0x928>
80008924:	04 9b       	mov	r11,r2
80008926:	06 9c       	mov	r12,r3
80008928:	e0 a0 09 15 	rcall	80009b52 <__mcmp>
8000892c:	c1 64       	brge	80008958 <_dtoa_r+0x928>
8000892e:	06 9b       	mov	r11,r3
80008930:	30 09       	mov	r9,0
80008932:	30 aa       	mov	r10,10
80008934:	0e 9c       	mov	r12,r7
80008936:	e0 a0 0b d5 	rcall	8000a0e0 <__multadd>
8000893a:	20 16       	sub	r6,1
8000893c:	18 93       	mov	r3,r12
8000893e:	40 dc       	lddsp	r12,sp[0x34]
80008940:	58 0c       	cp.w	r12,0
80008942:	c0 31       	brne	80008948 <_dtoa_r+0x918>
80008944:	40 91       	lddsp	r1,sp[0x24]
80008946:	c0 98       	rjmp	80008958 <_dtoa_r+0x928>
80008948:	08 9b       	mov	r11,r4
8000894a:	40 91       	lddsp	r1,sp[0x24]
8000894c:	30 09       	mov	r9,0
8000894e:	30 aa       	mov	r10,10
80008950:	0e 9c       	mov	r12,r7
80008952:	e0 a0 0b c7 	rcall	8000a0e0 <__multadd>
80008956:	18 94       	mov	r4,r12
80008958:	58 01       	cp.w	r1,0
8000895a:	5f a9       	srle	r9
8000895c:	40 cb       	lddsp	r11,sp[0x30]
8000895e:	58 2b       	cp.w	r11,2
80008960:	5f 98       	srgt	r8
80008962:	f3 e8 00 08 	and	r8,r9,r8
80008966:	c2 50       	breq	800089b0 <_dtoa_r+0x980>
80008968:	58 01       	cp.w	r1,0
8000896a:	c1 11       	brne	8000898c <_dtoa_r+0x95c>
8000896c:	04 9b       	mov	r11,r2
8000896e:	02 99       	mov	r9,r1
80008970:	30 5a       	mov	r10,5
80008972:	0e 9c       	mov	r12,r7
80008974:	e0 a0 0b b6 	rcall	8000a0e0 <__multadd>
80008978:	18 92       	mov	r2,r12
8000897a:	18 9b       	mov	r11,r12
8000897c:	06 9c       	mov	r12,r3
8000897e:	e0 a0 08 ea 	rcall	80009b52 <__mcmp>
80008982:	e0 89 00 0f 	brgt	800089a0 <_dtoa_r+0x970>
80008986:	c0 38       	rjmp	8000898c <_dtoa_r+0x95c>
80008988:	30 02       	mov	r2,0
8000898a:	04 94       	mov	r4,r2
8000898c:	40 ea       	lddsp	r10,sp[0x38]
8000898e:	30 09       	mov	r9,0
80008990:	5c da       	com	r10
80008992:	40 85       	lddsp	r5,sp[0x20]
80008994:	50 6a       	stdsp	sp[0x18],r10
80008996:	50 49       	stdsp	sp[0x10],r9
80008998:	c0 f9       	rjmp	80008bb6 <_dtoa_r+0xb86>
8000899a:	08 92       	mov	r2,r4
8000899c:	40 66       	lddsp	r6,sp[0x18]
8000899e:	04 94       	mov	r4,r2
800089a0:	2f f6       	sub	r6,-1
800089a2:	50 66       	stdsp	sp[0x18],r6
800089a4:	33 18       	mov	r8,49
800089a6:	40 85       	lddsp	r5,sp[0x20]
800089a8:	0a c8       	st.b	r5++,r8
800089aa:	30 08       	mov	r8,0
800089ac:	50 48       	stdsp	sp[0x10],r8
800089ae:	c0 49       	rjmp	80008bb6 <_dtoa_r+0xb86>
800089b0:	40 dc       	lddsp	r12,sp[0x34]
800089b2:	58 0c       	cp.w	r12,0
800089b4:	e0 80 00 b5 	breq	80008b1e <_dtoa_r+0xaee>
800089b8:	58 05       	cp.w	r5,0
800089ba:	e0 8a 00 08 	brle	800089ca <_dtoa_r+0x99a>
800089be:	08 9b       	mov	r11,r4
800089c0:	0a 9a       	mov	r10,r5
800089c2:	0e 9c       	mov	r12,r7
800089c4:	e0 a0 0a c2 	rcall	80009f48 <__lshift>
800089c8:	18 94       	mov	r4,r12
800089ca:	40 6b       	lddsp	r11,sp[0x18]
800089cc:	58 0b       	cp.w	r11,0
800089ce:	c0 31       	brne	800089d4 <_dtoa_r+0x9a4>
800089d0:	08 9c       	mov	r12,r4
800089d2:	c1 38       	rjmp	800089f8 <_dtoa_r+0x9c8>
800089d4:	68 1b       	ld.w	r11,r4[0x4]
800089d6:	0e 9c       	mov	r12,r7
800089d8:	e0 a0 09 c6 	rcall	80009d64 <_Balloc>
800089dc:	68 4a       	ld.w	r10,r4[0x10]
800089de:	18 95       	mov	r5,r12
800089e0:	e8 cb ff f4 	sub	r11,r4,-12
800089e4:	2f ea       	sub	r10,-2
800089e6:	2f 4c       	sub	r12,-12
800089e8:	a3 6a       	lsl	r10,0x2
800089ea:	fe b0 dd 0b 	rcall	80004400 <memcpy>
800089ee:	0a 9b       	mov	r11,r5
800089f0:	30 1a       	mov	r10,1
800089f2:	0e 9c       	mov	r12,r7
800089f4:	e0 a0 0a aa 	rcall	80009f48 <__lshift>
800089f8:	50 44       	stdsp	sp[0x10],r4
800089fa:	40 3a       	lddsp	r10,sp[0xc]
800089fc:	30 19       	mov	r9,1
800089fe:	f5 da c0 01 	bfextu	r10,r10,0x0,0x1
80008a02:	18 94       	mov	r4,r12
80008a04:	50 da       	stdsp	sp[0x34],r10
80008a06:	40 85       	lddsp	r5,sp[0x20]
80008a08:	50 99       	stdsp	sp[0x24],r9
80008a0a:	50 26       	stdsp	sp[0x8],r6
80008a0c:	50 e1       	stdsp	sp[0x38],r1
80008a0e:	04 9b       	mov	r11,r2
80008a10:	06 9c       	mov	r12,r3
80008a12:	fe b0 fa 7f 	rcall	80007f10 <quorem>
80008a16:	40 4b       	lddsp	r11,sp[0x10]
80008a18:	f8 c0 ff d0 	sub	r0,r12,-48
80008a1c:	06 9c       	mov	r12,r3
80008a1e:	e0 a0 08 9a 	rcall	80009b52 <__mcmp>
80008a22:	08 9a       	mov	r10,r4
80008a24:	50 6c       	stdsp	sp[0x18],r12
80008a26:	04 9b       	mov	r11,r2
80008a28:	0e 9c       	mov	r12,r7
80008a2a:	e0 a0 0a 27 	rcall	80009e78 <__mdiff>
80008a2e:	18 91       	mov	r1,r12
80008a30:	78 38       	ld.w	r8,r12[0xc]
80008a32:	58 08       	cp.w	r8,0
80008a34:	c0 30       	breq	80008a3a <_dtoa_r+0xa0a>
80008a36:	30 16       	mov	r6,1
80008a38:	c0 68       	rjmp	80008a44 <_dtoa_r+0xa14>
80008a3a:	18 9b       	mov	r11,r12
80008a3c:	06 9c       	mov	r12,r3
80008a3e:	e0 a0 08 8a 	rcall	80009b52 <__mcmp>
80008a42:	18 96       	mov	r6,r12
80008a44:	0e 9c       	mov	r12,r7
80008a46:	02 9b       	mov	r11,r1
80008a48:	e0 a0 09 74 	rcall	80009d30 <_Bfree>
80008a4c:	40 cc       	lddsp	r12,sp[0x30]
80008a4e:	ed ec 10 08 	or	r8,r6,r12
80008a52:	c0 d1       	brne	80008a6c <_dtoa_r+0xa3c>
80008a54:	40 db       	lddsp	r11,sp[0x34]
80008a56:	58 0b       	cp.w	r11,0
80008a58:	c0 a1       	brne	80008a6c <_dtoa_r+0xa3c>
80008a5a:	40 26       	lddsp	r6,sp[0x8]
80008a5c:	e0 40 00 39 	cp.w	r0,57
80008a60:	c3 00       	breq	80008ac0 <_dtoa_r+0xa90>
80008a62:	40 6a       	lddsp	r10,sp[0x18]
80008a64:	58 0a       	cp.w	r10,0
80008a66:	e0 89 00 24 	brgt	80008aae <_dtoa_r+0xa7e>
80008a6a:	c2 f8       	rjmp	80008ac8 <_dtoa_r+0xa98>
80008a6c:	40 69       	lddsp	r9,sp[0x18]
80008a6e:	58 09       	cp.w	r9,0
80008a70:	c0 85       	brlt	80008a80 <_dtoa_r+0xa50>
80008a72:	12 98       	mov	r8,r9
80008a74:	40 cc       	lddsp	r12,sp[0x30]
80008a76:	18 48       	or	r8,r12
80008a78:	c1 d1       	brne	80008ab2 <_dtoa_r+0xa82>
80008a7a:	40 db       	lddsp	r11,sp[0x34]
80008a7c:	58 0b       	cp.w	r11,0
80008a7e:	c1 a1       	brne	80008ab2 <_dtoa_r+0xa82>
80008a80:	0c 99       	mov	r9,r6
80008a82:	40 26       	lddsp	r6,sp[0x8]
80008a84:	58 09       	cp.w	r9,0
80008a86:	e0 8a 00 21 	brle	80008ac8 <_dtoa_r+0xa98>
80008a8a:	06 9b       	mov	r11,r3
80008a8c:	30 1a       	mov	r10,1
80008a8e:	0e 9c       	mov	r12,r7
80008a90:	e0 a0 0a 5c 	rcall	80009f48 <__lshift>
80008a94:	04 9b       	mov	r11,r2
80008a96:	18 93       	mov	r3,r12
80008a98:	e0 a0 08 5d 	rcall	80009b52 <__mcmp>
80008a9c:	e0 89 00 06 	brgt	80008aa8 <_dtoa_r+0xa78>
80008aa0:	c1 41       	brne	80008ac8 <_dtoa_r+0xa98>
80008aa2:	ed b0 00 00 	bld	r0,0x0
80008aa6:	c1 11       	brne	80008ac8 <_dtoa_r+0xa98>
80008aa8:	e0 40 00 39 	cp.w	r0,57
80008aac:	c0 a0       	breq	80008ac0 <_dtoa_r+0xa90>
80008aae:	2f f0       	sub	r0,-1
80008ab0:	c0 c8       	rjmp	80008ac8 <_dtoa_r+0xa98>
80008ab2:	58 06       	cp.w	r6,0
80008ab4:	e0 8a 00 0c 	brle	80008acc <_dtoa_r+0xa9c>
80008ab8:	40 26       	lddsp	r6,sp[0x8]
80008aba:	e0 40 00 39 	cp.w	r0,57
80008abe:	c0 41       	brne	80008ac6 <_dtoa_r+0xa96>
80008ac0:	33 98       	mov	r8,57
80008ac2:	0a c8       	st.b	r5++,r8
80008ac4:	c6 78       	rjmp	80008b92 <_dtoa_r+0xb62>
80008ac6:	2f f0       	sub	r0,-1
80008ac8:	0a c0       	st.b	r5++,r0
80008aca:	c7 58       	rjmp	80008bb4 <_dtoa_r+0xb84>
80008acc:	0a c0       	st.b	r5++,r0
80008ace:	40 9a       	lddsp	r10,sp[0x24]
80008ad0:	40 e9       	lddsp	r9,sp[0x38]
80008ad2:	12 3a       	cp.w	r10,r9
80008ad4:	c4 30       	breq	80008b5a <_dtoa_r+0xb2a>
80008ad6:	06 9b       	mov	r11,r3
80008ad8:	30 09       	mov	r9,0
80008ada:	30 aa       	mov	r10,10
80008adc:	0e 9c       	mov	r12,r7
80008ade:	e0 a0 0b 01 	rcall	8000a0e0 <__multadd>
80008ae2:	40 48       	lddsp	r8,sp[0x10]
80008ae4:	18 93       	mov	r3,r12
80008ae6:	08 38       	cp.w	r8,r4
80008ae8:	c0 91       	brne	80008afa <_dtoa_r+0xaca>
80008aea:	10 9b       	mov	r11,r8
80008aec:	30 09       	mov	r9,0
80008aee:	30 aa       	mov	r10,10
80008af0:	0e 9c       	mov	r12,r7
80008af2:	e0 a0 0a f7 	rcall	8000a0e0 <__multadd>
80008af6:	50 4c       	stdsp	sp[0x10],r12
80008af8:	c0 e8       	rjmp	80008b14 <_dtoa_r+0xae4>
80008afa:	40 4b       	lddsp	r11,sp[0x10]
80008afc:	30 09       	mov	r9,0
80008afe:	30 aa       	mov	r10,10
80008b00:	0e 9c       	mov	r12,r7
80008b02:	e0 a0 0a ef 	rcall	8000a0e0 <__multadd>
80008b06:	08 9b       	mov	r11,r4
80008b08:	50 4c       	stdsp	sp[0x10],r12
80008b0a:	30 09       	mov	r9,0
80008b0c:	30 aa       	mov	r10,10
80008b0e:	0e 9c       	mov	r12,r7
80008b10:	e0 a0 0a e8 	rcall	8000a0e0 <__multadd>
80008b14:	18 94       	mov	r4,r12
80008b16:	40 9c       	lddsp	r12,sp[0x24]
80008b18:	2f fc       	sub	r12,-1
80008b1a:	50 9c       	stdsp	sp[0x24],r12
80008b1c:	c7 9b       	rjmp	80008a0e <_dtoa_r+0x9de>
80008b1e:	30 18       	mov	r8,1
80008b20:	06 90       	mov	r0,r3
80008b22:	40 85       	lddsp	r5,sp[0x20]
80008b24:	08 93       	mov	r3,r4
80008b26:	0c 94       	mov	r4,r6
80008b28:	10 96       	mov	r6,r8
80008b2a:	04 9b       	mov	r11,r2
80008b2c:	00 9c       	mov	r12,r0
80008b2e:	fe b0 f9 f1 	rcall	80007f10 <quorem>
80008b32:	2d 0c       	sub	r12,-48
80008b34:	0a cc       	st.b	r5++,r12
80008b36:	02 36       	cp.w	r6,r1
80008b38:	c0 a4       	brge	80008b4c <_dtoa_r+0xb1c>
80008b3a:	00 9b       	mov	r11,r0
80008b3c:	30 09       	mov	r9,0
80008b3e:	30 aa       	mov	r10,10
80008b40:	0e 9c       	mov	r12,r7
80008b42:	2f f6       	sub	r6,-1
80008b44:	e0 a0 0a ce 	rcall	8000a0e0 <__multadd>
80008b48:	18 90       	mov	r0,r12
80008b4a:	cf 0b       	rjmp	80008b2a <_dtoa_r+0xafa>
80008b4c:	08 96       	mov	r6,r4
80008b4e:	30 0b       	mov	r11,0
80008b50:	06 94       	mov	r4,r3
80008b52:	50 4b       	stdsp	sp[0x10],r11
80008b54:	00 93       	mov	r3,r0
80008b56:	18 90       	mov	r0,r12
80008b58:	c0 28       	rjmp	80008b5c <_dtoa_r+0xb2c>
80008b5a:	40 26       	lddsp	r6,sp[0x8]
80008b5c:	06 9b       	mov	r11,r3
80008b5e:	30 1a       	mov	r10,1
80008b60:	0e 9c       	mov	r12,r7
80008b62:	e0 a0 09 f3 	rcall	80009f48 <__lshift>
80008b66:	04 9b       	mov	r11,r2
80008b68:	18 93       	mov	r3,r12
80008b6a:	e0 a0 07 f4 	rcall	80009b52 <__mcmp>
80008b6e:	e0 89 00 12 	brgt	80008b92 <_dtoa_r+0xb62>
80008b72:	c1 b1       	brne	80008ba8 <_dtoa_r+0xb78>
80008b74:	e1 d0 c0 01 	bfextu	r0,r0,0x0,0x1
80008b78:	c0 d1       	brne	80008b92 <_dtoa_r+0xb62>
80008b7a:	c1 78       	rjmp	80008ba8 <_dtoa_r+0xb78>
80008b7c:	40 89       	lddsp	r9,sp[0x20]
80008b7e:	12 38       	cp.w	r8,r9
80008b80:	c0 30       	breq	80008b86 <_dtoa_r+0xb56>
80008b82:	10 95       	mov	r5,r8
80008b84:	c0 88       	rjmp	80008b94 <_dtoa_r+0xb64>
80008b86:	2f f6       	sub	r6,-1
80008b88:	50 66       	stdsp	sp[0x18],r6
80008b8a:	33 18       	mov	r8,49
80008b8c:	40 8c       	lddsp	r12,sp[0x20]
80008b8e:	b8 88       	st.b	r12[0x0],r8
80008b90:	c1 38       	rjmp	80008bb6 <_dtoa_r+0xb86>
80008b92:	33 9a       	mov	r10,57
80008b94:	0a 98       	mov	r8,r5
80008b96:	11 79       	ld.ub	r9,--r8
80008b98:	f4 09 18 00 	cp.b	r9,r10
80008b9c:	cf 00       	breq	80008b7c <_dtoa_r+0xb4c>
80008b9e:	2f f9       	sub	r9,-1
80008ba0:	b0 89       	st.b	r8[0x0],r9
80008ba2:	c0 98       	rjmp	80008bb4 <_dtoa_r+0xb84>
80008ba4:	10 95       	mov	r5,r8
80008ba6:	c0 28       	rjmp	80008baa <_dtoa_r+0xb7a>
80008ba8:	33 09       	mov	r9,48
80008baa:	0a 98       	mov	r8,r5
80008bac:	11 7a       	ld.ub	r10,--r8
80008bae:	f2 0a 18 00 	cp.b	r10,r9
80008bb2:	cf 90       	breq	80008ba4 <_dtoa_r+0xb74>
80008bb4:	50 66       	stdsp	sp[0x18],r6
80008bb6:	04 9b       	mov	r11,r2
80008bb8:	0e 9c       	mov	r12,r7
80008bba:	e0 a0 08 bb 	rcall	80009d30 <_Bfree>
80008bbe:	58 04       	cp.w	r4,0
80008bc0:	c1 20       	breq	80008be4 <_dtoa_r+0xbb4>
80008bc2:	40 4b       	lddsp	r11,sp[0x10]
80008bc4:	08 3b       	cp.w	r11,r4
80008bc6:	5f 19       	srne	r9
80008bc8:	58 0b       	cp.w	r11,0
80008bca:	5f 18       	srne	r8
80008bcc:	f3 e8 00 08 	and	r8,r9,r8
80008bd0:	c0 40       	breq	80008bd8 <_dtoa_r+0xba8>
80008bd2:	0e 9c       	mov	r12,r7
80008bd4:	e0 a0 08 ae 	rcall	80009d30 <_Bfree>
80008bd8:	08 9b       	mov	r11,r4
80008bda:	0e 9c       	mov	r12,r7
80008bdc:	e0 a0 08 aa 	rcall	80009d30 <_Bfree>
80008be0:	c0 28       	rjmp	80008be4 <_dtoa_r+0xbb4>
80008be2:	50 66       	stdsp	sp[0x18],r6
80008be4:	0e 9c       	mov	r12,r7
80008be6:	06 9b       	mov	r11,r3
80008be8:	e0 a0 08 a4 	rcall	80009d30 <_Bfree>
80008bec:	30 08       	mov	r8,0
80008bee:	aa 88       	st.b	r5[0x0],r8
80008bf0:	40 68       	lddsp	r8,sp[0x18]
80008bf2:	41 5a       	lddsp	r10,sp[0x54]
80008bf4:	2f f8       	sub	r8,-1
80008bf6:	41 29       	lddsp	r9,sp[0x48]
80008bf8:	95 08       	st.w	r10[0x0],r8
80008bfa:	40 8c       	lddsp	r12,sp[0x20]
80008bfc:	58 09       	cp.w	r9,0
80008bfe:	fb f8 10 12 	ld.wne	r8,sp[0x48]
80008c02:	f1 f5 1a 00 	st.wne	r8[0x0],r5
80008c06:	2e 6d       	sub	sp,-104
80008c08:	d8 32       	popm	r0-r7,pc
80008c0a:	d7 03       	nop

80008c0c <_fflush_r>:
80008c0c:	d4 21       	pushm	r4-r7,lr
80008c0e:	16 97       	mov	r7,r11
80008c10:	18 96       	mov	r6,r12
80008c12:	76 48       	ld.w	r8,r11[0x10]
80008c14:	58 08       	cp.w	r8,0
80008c16:	c7 f0       	breq	80008d14 <_fflush_r+0x108>
80008c18:	58 0c       	cp.w	r12,0
80008c1a:	c0 50       	breq	80008c24 <_fflush_r+0x18>
80008c1c:	78 68       	ld.w	r8,r12[0x18]
80008c1e:	58 08       	cp.w	r8,0
80008c20:	c0 21       	brne	80008c24 <_fflush_r+0x18>
80008c22:	cd fc       	rcall	80008de0 <__sinit>
80008c24:	fe c8 af 78 	sub	r8,pc,-20616
80008c28:	10 37       	cp.w	r7,r8
80008c2a:	c0 31       	brne	80008c30 <_fflush_r+0x24>
80008c2c:	6c 07       	ld.w	r7,r6[0x0]
80008c2e:	c0 c8       	rjmp	80008c46 <_fflush_r+0x3a>
80008c30:	fe c8 af 64 	sub	r8,pc,-20636
80008c34:	10 37       	cp.w	r7,r8
80008c36:	c0 31       	brne	80008c3c <_fflush_r+0x30>
80008c38:	6c 17       	ld.w	r7,r6[0x4]
80008c3a:	c0 68       	rjmp	80008c46 <_fflush_r+0x3a>
80008c3c:	fe c8 af 50 	sub	r8,pc,-20656
80008c40:	10 37       	cp.w	r7,r8
80008c42:	ed f7 00 02 	ld.weq	r7,r6[0x8]
80008c46:	8e 6a       	ld.sh	r10,r7[0xc]
80008c48:	14 98       	mov	r8,r10
80008c4a:	ed ba 00 03 	bld	r10,0x3
80008c4e:	c4 20       	breq	80008cd2 <_fflush_r+0xc6>
80008c50:	ab ba       	sbr	r10,0xb
80008c52:	ae 6a       	st.h	r7[0xc],r10
80008c54:	6e 18       	ld.w	r8,r7[0x4]
80008c56:	58 08       	cp.w	r8,0
80008c58:	e0 89 00 06 	brgt	80008c64 <_fflush_r+0x58>
80008c5c:	6f 08       	ld.w	r8,r7[0x40]
80008c5e:	58 08       	cp.w	r8,0
80008c60:	e0 8a 00 5a 	brle	80008d14 <_fflush_r+0x108>
80008c64:	6e b8       	ld.w	r8,r7[0x2c]
80008c66:	58 08       	cp.w	r8,0
80008c68:	c5 60       	breq	80008d14 <_fflush_r+0x108>
80008c6a:	e2 1a 10 00 	andl	r10,0x1000,COH
80008c6e:	c0 30       	breq	80008c74 <_fflush_r+0x68>
80008c70:	6f 55       	ld.w	r5,r7[0x54]
80008c72:	c0 f8       	rjmp	80008c90 <_fflush_r+0x84>
80008c74:	30 19       	mov	r9,1
80008c76:	6e 8b       	ld.w	r11,r7[0x20]
80008c78:	0c 9c       	mov	r12,r6
80008c7a:	5d 18       	icall	r8
80008c7c:	18 95       	mov	r5,r12
80008c7e:	5b fc       	cp.w	r12,-1
80008c80:	c0 81       	brne	80008c90 <_fflush_r+0x84>
80008c82:	6c 38       	ld.w	r8,r6[0xc]
80008c84:	59 d8       	cp.w	r8,29
80008c86:	c4 70       	breq	80008d14 <_fflush_r+0x108>
80008c88:	8e 68       	ld.sh	r8,r7[0xc]
80008c8a:	a7 a8       	sbr	r8,0x6
80008c8c:	ae 68       	st.h	r7[0xc],r8
80008c8e:	d8 22       	popm	r4-r7,pc
80008c90:	8e 68       	ld.sh	r8,r7[0xc]
80008c92:	ed b8 00 02 	bld	r8,0x2
80008c96:	c0 91       	brne	80008ca8 <_fflush_r+0x9c>
80008c98:	6e 18       	ld.w	r8,r7[0x4]
80008c9a:	10 15       	sub	r5,r8
80008c9c:	6e d8       	ld.w	r8,r7[0x34]
80008c9e:	58 08       	cp.w	r8,0
80008ca0:	ef f8 10 10 	ld.wne	r8,r7[0x40]
80008ca4:	eb d8 e1 15 	subne	r5,r5,r8
80008ca8:	6e b8       	ld.w	r8,r7[0x2c]
80008caa:	0c 9c       	mov	r12,r6
80008cac:	30 09       	mov	r9,0
80008cae:	0a 9a       	mov	r10,r5
80008cb0:	6e 8b       	ld.w	r11,r7[0x20]
80008cb2:	5d 18       	icall	r8
80008cb4:	8e 68       	ld.sh	r8,r7[0xc]
80008cb6:	0a 3c       	cp.w	r12,r5
80008cb8:	c2 61       	brne	80008d04 <_fflush_r+0xf8>
80008cba:	ab d8       	cbr	r8,0xb
80008cbc:	30 0c       	mov	r12,0
80008cbe:	6e 49       	ld.w	r9,r7[0x10]
80008cc0:	ae 68       	st.h	r7[0xc],r8
80008cc2:	8f 1c       	st.w	r7[0x4],r12
80008cc4:	8f 09       	st.w	r7[0x0],r9
80008cc6:	ed b8 00 0c 	bld	r8,0xc
80008cca:	c2 51       	brne	80008d14 <_fflush_r+0x108>
80008ccc:	ef 45 00 54 	st.w	r7[84],r5
80008cd0:	d8 22       	popm	r4-r7,pc
80008cd2:	6e 45       	ld.w	r5,r7[0x10]
80008cd4:	58 05       	cp.w	r5,0
80008cd6:	c1 f0       	breq	80008d14 <_fflush_r+0x108>
80008cd8:	6e 04       	ld.w	r4,r7[0x0]
80008cda:	f5 da c0 02 	bfextu	r10,r10,0x0,0x2
80008cde:	8f 05       	st.w	r7[0x0],r5
80008ce0:	f9 b8 01 00 	movne	r8,0
80008ce4:	ef f8 00 05 	ld.weq	r8,r7[0x14]
80008ce8:	0a 14       	sub	r4,r5
80008cea:	8f 28       	st.w	r7[0x8],r8
80008cec:	c1 18       	rjmp	80008d0e <_fflush_r+0x102>
80008cee:	08 99       	mov	r9,r4
80008cf0:	0a 9a       	mov	r10,r5
80008cf2:	6e a8       	ld.w	r8,r7[0x28]
80008cf4:	6e 8b       	ld.w	r11,r7[0x20]
80008cf6:	0c 9c       	mov	r12,r6
80008cf8:	5d 18       	icall	r8
80008cfa:	18 14       	sub	r4,r12
80008cfc:	58 0c       	cp.w	r12,0
80008cfe:	e0 89 00 07 	brgt	80008d0c <_fflush_r+0x100>
80008d02:	8e 68       	ld.sh	r8,r7[0xc]
80008d04:	a7 a8       	sbr	r8,0x6
80008d06:	3f fc       	mov	r12,-1
80008d08:	ae 68       	st.h	r7[0xc],r8
80008d0a:	d8 22       	popm	r4-r7,pc
80008d0c:	18 05       	add	r5,r12
80008d0e:	58 04       	cp.w	r4,0
80008d10:	fe 99 ff ef 	brgt	80008cee <_fflush_r+0xe2>
80008d14:	d8 2a       	popm	r4-r7,pc,r12=0
80008d16:	d7 03       	nop

80008d18 <fflush>:
80008d18:	d4 01       	pushm	lr
80008d1a:	18 9b       	mov	r11,r12
80008d1c:	58 0c       	cp.w	r12,0
80008d1e:	c0 91       	brne	80008d30 <fflush+0x18>
80008d20:	fe c8 b5 8c 	sub	r8,pc,-19060
80008d24:	fe cb 01 18 	sub	r11,pc,280
80008d28:	70 0c       	ld.w	r12,r8[0x0]
80008d2a:	e0 a0 03 65 	rcall	800093f4 <_fwalk_reent>
80008d2e:	d8 02       	popm	pc
80008d30:	e0 68 01 94 	mov	r8,404
80008d34:	70 0c       	ld.w	r12,r8[0x0]
80008d36:	c6 bf       	rcall	80008c0c <_fflush_r>
80008d38:	d8 02       	popm	pc
80008d3a:	d7 03       	nop

80008d3c <__sfp_lock_acquire>:
80008d3c:	5e fc       	retal	r12

80008d3e <__sfp_lock_release>:
80008d3e:	5e fc       	retal	r12

80008d40 <_cleanup_r>:
80008d40:	d4 01       	pushm	lr
80008d42:	fe cb d0 0a 	sub	r11,pc,-12278
80008d46:	e0 a0 03 7f 	rcall	80009444 <_fwalk>
80008d4a:	d8 02       	popm	pc

80008d4c <__sfmoreglue>:
80008d4c:	d4 21       	pushm	r4-r7,lr
80008d4e:	16 95       	mov	r5,r11
80008d50:	f6 06 10 5c 	mul	r6,r11,92
80008d54:	ec cb ff f4 	sub	r11,r6,-12
80008d58:	e0 a0 04 14 	rcall	80009580 <_malloc_r>
80008d5c:	18 97       	mov	r7,r12
80008d5e:	c0 90       	breq	80008d70 <__sfmoreglue+0x24>
80008d60:	99 15       	st.w	r12[0x4],r5
80008d62:	30 0b       	mov	r11,0
80008d64:	2f 4c       	sub	r12,-12
80008d66:	0c 9a       	mov	r10,r6
80008d68:	8f 2c       	st.w	r7[0x8],r12
80008d6a:	8f 0b       	st.w	r7[0x0],r11
80008d6c:	fe b0 db ee 	rcall	80004548 <memset>
80008d70:	0e 9c       	mov	r12,r7
80008d72:	d8 22       	popm	r4-r7,pc

80008d74 <__sfp>:
80008d74:	d4 21       	pushm	r4-r7,lr
80008d76:	fe c8 b5 e2 	sub	r8,pc,-18974
80008d7a:	18 96       	mov	r6,r12
80008d7c:	70 07       	ld.w	r7,r8[0x0]
80008d7e:	6e 68       	ld.w	r8,r7[0x18]
80008d80:	58 08       	cp.w	r8,0
80008d82:	c0 31       	brne	80008d88 <__sfp+0x14>
80008d84:	0e 9c       	mov	r12,r7
80008d86:	c2 dc       	rcall	80008de0 <__sinit>
80008d88:	ee c7 ff 28 	sub	r7,r7,-216
80008d8c:	30 05       	mov	r5,0
80008d8e:	6e 2c       	ld.w	r12,r7[0x8]
80008d90:	6e 18       	ld.w	r8,r7[0x4]
80008d92:	c0 68       	rjmp	80008d9e <__sfp+0x2a>
80008d94:	98 69       	ld.sh	r9,r12[0xc]
80008d96:	ea 09 19 00 	cp.h	r9,r5
80008d9a:	c1 10       	breq	80008dbc <__sfp+0x48>
80008d9c:	2a 4c       	sub	r12,-92
80008d9e:	20 18       	sub	r8,1
80008da0:	cf a7       	brpl	80008d94 <__sfp+0x20>
80008da2:	6e 08       	ld.w	r8,r7[0x0]
80008da4:	58 08       	cp.w	r8,0
80008da6:	c0 61       	brne	80008db2 <__sfp+0x3e>
80008da8:	30 4b       	mov	r11,4
80008daa:	0c 9c       	mov	r12,r6
80008dac:	cd 0f       	rcall	80008d4c <__sfmoreglue>
80008dae:	8f 0c       	st.w	r7[0x0],r12
80008db0:	c0 30       	breq	80008db6 <__sfp+0x42>
80008db2:	6e 07       	ld.w	r7,r7[0x0]
80008db4:	ce db       	rjmp	80008d8e <__sfp+0x1a>
80008db6:	30 c8       	mov	r8,12
80008db8:	8d 38       	st.w	r6[0xc],r8
80008dba:	d8 22       	popm	r4-r7,pc
80008dbc:	30 08       	mov	r8,0
80008dbe:	f9 48 00 4c 	st.w	r12[76],r8
80008dc2:	99 08       	st.w	r12[0x0],r8
80008dc4:	99 28       	st.w	r12[0x8],r8
80008dc6:	99 18       	st.w	r12[0x4],r8
80008dc8:	99 48       	st.w	r12[0x10],r8
80008dca:	99 58       	st.w	r12[0x14],r8
80008dcc:	99 68       	st.w	r12[0x18],r8
80008dce:	99 d8       	st.w	r12[0x34],r8
80008dd0:	99 e8       	st.w	r12[0x38],r8
80008dd2:	f9 48 00 48 	st.w	r12[72],r8
80008dd6:	3f f8       	mov	r8,-1
80008dd8:	b8 78       	st.h	r12[0xe],r8
80008dda:	30 18       	mov	r8,1
80008ddc:	b8 68       	st.h	r12[0xc],r8
80008dde:	d8 22       	popm	r4-r7,pc

80008de0 <__sinit>:
80008de0:	d4 21       	pushm	r4-r7,lr
80008de2:	18 96       	mov	r6,r12
80008de4:	78 67       	ld.w	r7,r12[0x18]
80008de6:	58 07       	cp.w	r7,0
80008de8:	c4 91       	brne	80008e7a <__sinit+0x9a>
80008dea:	fe c8 00 aa 	sub	r8,pc,170
80008dee:	30 15       	mov	r5,1
80008df0:	99 a8       	st.w	r12[0x28],r8
80008df2:	f9 47 00 d8 	st.w	r12[216],r7
80008df6:	f9 47 00 dc 	st.w	r12[220],r7
80008dfa:	f9 47 00 e0 	st.w	r12[224],r7
80008dfe:	99 65       	st.w	r12[0x18],r5
80008e00:	cb af       	rcall	80008d74 <__sfp>
80008e02:	8d 0c       	st.w	r6[0x0],r12
80008e04:	0c 9c       	mov	r12,r6
80008e06:	cb 7f       	rcall	80008d74 <__sfp>
80008e08:	8d 1c       	st.w	r6[0x4],r12
80008e0a:	0c 9c       	mov	r12,r6
80008e0c:	cb 4f       	rcall	80008d74 <__sfp>
80008e0e:	6c 09       	ld.w	r9,r6[0x0]
80008e10:	30 48       	mov	r8,4
80008e12:	93 07       	st.w	r9[0x0],r7
80008e14:	b2 68       	st.h	r9[0xc],r8
80008e16:	93 17       	st.w	r9[0x4],r7
80008e18:	93 27       	st.w	r9[0x8],r7
80008e1a:	6c 18       	ld.w	r8,r6[0x4]
80008e1c:	b2 77       	st.h	r9[0xe],r7
80008e1e:	93 47       	st.w	r9[0x10],r7
80008e20:	93 57       	st.w	r9[0x14],r7
80008e22:	93 67       	st.w	r9[0x18],r7
80008e24:	93 89       	st.w	r9[0x20],r9
80008e26:	91 07       	st.w	r8[0x0],r7
80008e28:	91 17       	st.w	r8[0x4],r7
80008e2a:	91 27       	st.w	r8[0x8],r7
80008e2c:	fe ce e6 64 	sub	lr,pc,-6556
80008e30:	fe cb e6 98 	sub	r11,pc,-6504
80008e34:	93 9e       	st.w	r9[0x24],lr
80008e36:	93 ab       	st.w	r9[0x28],r11
80008e38:	fe ca e6 c4 	sub	r10,pc,-6460
80008e3c:	fe c4 e6 d4 	sub	r4,pc,-6444
80008e40:	93 ba       	st.w	r9[0x2c],r10
80008e42:	93 c4       	st.w	r9[0x30],r4
80008e44:	30 99       	mov	r9,9
80008e46:	b0 69       	st.h	r8[0xc],r9
80008e48:	b0 75       	st.h	r8[0xe],r5
80008e4a:	91 c4       	st.w	r8[0x30],r4
80008e4c:	91 47       	st.w	r8[0x10],r7
80008e4e:	91 57       	st.w	r8[0x14],r7
80008e50:	91 67       	st.w	r8[0x18],r7
80008e52:	91 88       	st.w	r8[0x20],r8
80008e54:	91 9e       	st.w	r8[0x24],lr
80008e56:	91 ab       	st.w	r8[0x28],r11
80008e58:	91 ba       	st.w	r8[0x2c],r10
80008e5a:	8d 2c       	st.w	r6[0x8],r12
80008e5c:	31 28       	mov	r8,18
80008e5e:	99 07       	st.w	r12[0x0],r7
80008e60:	b8 68       	st.h	r12[0xc],r8
80008e62:	99 17       	st.w	r12[0x4],r7
80008e64:	99 27       	st.w	r12[0x8],r7
80008e66:	30 28       	mov	r8,2
80008e68:	b8 78       	st.h	r12[0xe],r8
80008e6a:	99 c4       	st.w	r12[0x30],r4
80008e6c:	99 67       	st.w	r12[0x18],r7
80008e6e:	99 9e       	st.w	r12[0x24],lr
80008e70:	99 ab       	st.w	r12[0x28],r11
80008e72:	99 ba       	st.w	r12[0x2c],r10
80008e74:	99 47       	st.w	r12[0x10],r7
80008e76:	99 57       	st.w	r12[0x14],r7
80008e78:	99 8c       	st.w	r12[0x20],r12
80008e7a:	d8 22       	popm	r4-r7,pc

80008e7c <_fread_r>:
80008e7c:	d4 31       	pushm	r0-r7,lr
80008e7e:	14 90       	mov	r0,r10
80008e80:	12 91       	mov	r1,r9
80008e82:	16 93       	mov	r3,r11
80008e84:	10 97       	mov	r7,r8
80008e86:	18 95       	mov	r5,r12
80008e88:	f2 0a 02 42 	mul	r2,r9,r10
80008e8c:	58 02       	cp.w	r2,0
80008e8e:	c0 31       	brne	80008e94 <_fread_r+0x18>
80008e90:	04 91       	mov	r1,r2
80008e92:	c4 38       	rjmp	80008f18 <_fread_r+0x9c>
80008e94:	58 0c       	cp.w	r12,0
80008e96:	c0 50       	breq	80008ea0 <_fread_r+0x24>
80008e98:	78 68       	ld.w	r8,r12[0x18]
80008e9a:	58 08       	cp.w	r8,0
80008e9c:	c0 21       	brne	80008ea0 <_fread_r+0x24>
80008e9e:	ca 1f       	rcall	80008de0 <__sinit>
80008ea0:	fe c8 b1 f4 	sub	r8,pc,-19980
80008ea4:	10 37       	cp.w	r7,r8
80008ea6:	c0 31       	brne	80008eac <_fread_r+0x30>
80008ea8:	6a 07       	ld.w	r7,r5[0x0]
80008eaa:	c0 c8       	rjmp	80008ec2 <_fread_r+0x46>
80008eac:	fe c8 b1 e0 	sub	r8,pc,-20000
80008eb0:	10 37       	cp.w	r7,r8
80008eb2:	c0 31       	brne	80008eb8 <_fread_r+0x3c>
80008eb4:	6a 17       	ld.w	r7,r5[0x4]
80008eb6:	c0 68       	rjmp	80008ec2 <_fread_r+0x46>
80008eb8:	fe c8 b1 cc 	sub	r8,pc,-20020
80008ebc:	10 37       	cp.w	r7,r8
80008ebe:	eb f7 00 02 	ld.weq	r7,r5[0x8]
80008ec2:	6e 18       	ld.w	r8,r7[0x4]
80008ec4:	58 08       	cp.w	r8,0
80008ec6:	c0 34       	brge	80008ecc <_fread_r+0x50>
80008ec8:	30 08       	mov	r8,0
80008eca:	8f 18       	st.w	r7[0x4],r8
80008ecc:	04 96       	mov	r6,r2
80008ece:	c1 48       	rjmp	80008ef6 <_fread_r+0x7a>
80008ed0:	fe b0 da 98 	rcall	80004400 <memcpy>
80008ed4:	6e 08       	ld.w	r8,r7[0x0]
80008ed6:	08 03       	add	r3,r4
80008ed8:	08 16       	sub	r6,r4
80008eda:	0e 9b       	mov	r11,r7
80008edc:	f0 04 00 04 	add	r4,r8,r4
80008ee0:	0a 9c       	mov	r12,r5
80008ee2:	8f 04       	st.w	r7[0x0],r4
80008ee4:	e0 a0 0b 1e 	rcall	8000a520 <__srefill_r>
80008ee8:	c0 70       	breq	80008ef6 <_fread_r+0x7a>
80008eea:	e4 06 01 09 	sub	r9,r2,r6
80008eee:	f2 00 0d 08 	divu	r8,r9,r0
80008ef2:	10 91       	mov	r1,r8
80008ef4:	c1 28       	rjmp	80008f18 <_fread_r+0x9c>
80008ef6:	6e 14       	ld.w	r4,r7[0x4]
80008ef8:	6e 08       	ld.w	r8,r7[0x0]
80008efa:	06 9c       	mov	r12,r3
80008efc:	08 9a       	mov	r10,r4
80008efe:	10 9b       	mov	r11,r8
80008f00:	08 36       	cp.w	r6,r4
80008f02:	fe 9b ff e7 	brhi	80008ed0 <_fread_r+0x54>
80008f06:	0c 9a       	mov	r10,r6
80008f08:	fe b0 da 7c 	rcall	80004400 <memcpy>
80008f0c:	6e 08       	ld.w	r8,r7[0x0]
80008f0e:	0c 08       	add	r8,r6
80008f10:	8f 08       	st.w	r7[0x0],r8
80008f12:	6e 18       	ld.w	r8,r7[0x4]
80008f14:	0c 18       	sub	r8,r6
80008f16:	8f 18       	st.w	r7[0x4],r8
80008f18:	02 9c       	mov	r12,r1
80008f1a:	d8 32       	popm	r0-r7,pc

80008f1c <fread>:
80008f1c:	d4 01       	pushm	lr
80008f1e:	12 98       	mov	r8,r9
80008f20:	14 99       	mov	r9,r10
80008f22:	16 9a       	mov	r10,r11
80008f24:	18 9b       	mov	r11,r12
80008f26:	e0 6c 01 94 	mov	r12,404
80008f2a:	78 0c       	ld.w	r12,r12[0x0]
80008f2c:	ca 8f       	rcall	80008e7c <_fread_r>
80008f2e:	d8 02       	popm	pc

80008f30 <_malloc_trim_r>:
80008f30:	d4 21       	pushm	r4-r7,lr
80008f32:	16 95       	mov	r5,r11
80008f34:	18 97       	mov	r7,r12
80008f36:	e0 a0 05 95 	rcall	80009a60 <__malloc_lock>
80008f3a:	e0 64 01 a0 	mov	r4,416
80008f3e:	68 28       	ld.w	r8,r4[0x8]
80008f40:	70 16       	ld.w	r6,r8[0x4]
80008f42:	e0 16 ff fc 	andl	r6,0xfffc
80008f46:	ec c8 ff 91 	sub	r8,r6,-111
80008f4a:	f0 05 01 05 	sub	r5,r8,r5
80008f4e:	e0 15 ff 80 	andl	r5,0xff80
80008f52:	ea c5 00 80 	sub	r5,r5,128
80008f56:	e0 45 00 7f 	cp.w	r5,127
80008f5a:	e0 8a 00 25 	brle	80008fa4 <_malloc_trim_r+0x74>
80008f5e:	30 0b       	mov	r11,0
80008f60:	0e 9c       	mov	r12,r7
80008f62:	e0 a0 0b 89 	rcall	8000a674 <_sbrk_r>
80008f66:	68 28       	ld.w	r8,r4[0x8]
80008f68:	0c 08       	add	r8,r6
80008f6a:	10 3c       	cp.w	r12,r8
80008f6c:	c1 c1       	brne	80008fa4 <_malloc_trim_r+0x74>
80008f6e:	ea 0b 11 00 	rsub	r11,r5,0
80008f72:	0e 9c       	mov	r12,r7
80008f74:	e0 a0 0b 80 	rcall	8000a674 <_sbrk_r>
80008f78:	5b fc       	cp.w	r12,-1
80008f7a:	c1 91       	brne	80008fac <_malloc_trim_r+0x7c>
80008f7c:	30 0b       	mov	r11,0
80008f7e:	0e 9c       	mov	r12,r7
80008f80:	e0 a0 0b 7a 	rcall	8000a674 <_sbrk_r>
80008f84:	68 28       	ld.w	r8,r4[0x8]
80008f86:	f8 08 01 09 	sub	r9,r12,r8
80008f8a:	58 f9       	cp.w	r9,15
80008f8c:	e0 8a 00 0c 	brle	80008fa4 <_malloc_trim_r+0x74>
80008f90:	a1 a9       	sbr	r9,0x0
80008f92:	91 19       	st.w	r8[0x4],r9
80008f94:	e0 68 05 ac 	mov	r8,1452
80008f98:	70 09       	ld.w	r9,r8[0x0]
80008f9a:	e0 68 09 dc 	mov	r8,2524
80008f9e:	f8 09 01 09 	sub	r9,r12,r9
80008fa2:	91 09       	st.w	r8[0x0],r9
80008fa4:	0e 9c       	mov	r12,r7
80008fa6:	e0 a0 05 5e 	rcall	80009a62 <__malloc_unlock>
80008faa:	d8 2a       	popm	r4-r7,pc,r12=0
80008fac:	68 28       	ld.w	r8,r4[0x8]
80008fae:	0a 16       	sub	r6,r5
80008fb0:	a1 a6       	sbr	r6,0x0
80008fb2:	91 16       	st.w	r8[0x4],r6
80008fb4:	e0 68 09 dc 	mov	r8,2524
80008fb8:	70 09       	ld.w	r9,r8[0x0]
80008fba:	0a 19       	sub	r9,r5
80008fbc:	0e 9c       	mov	r12,r7
80008fbe:	91 09       	st.w	r8[0x0],r9
80008fc0:	e0 a0 05 51 	rcall	80009a62 <__malloc_unlock>
80008fc4:	da 2a       	popm	r4-r7,pc,r12=1
80008fc6:	d7 03       	nop

80008fc8 <_free_r>:
80008fc8:	d4 21       	pushm	r4-r7,lr
80008fca:	16 96       	mov	r6,r11
80008fcc:	18 97       	mov	r7,r12
80008fce:	58 0b       	cp.w	r11,0
80008fd0:	e0 80 00 c0 	breq	80009150 <_free_r+0x188>
80008fd4:	e0 a0 05 46 	rcall	80009a60 <__malloc_lock>
80008fd8:	20 86       	sub	r6,8
80008fda:	e0 6a 01 a0 	mov	r10,416
80008fde:	6c 18       	ld.w	r8,r6[0x4]
80008fe0:	74 2e       	ld.w	lr,r10[0x8]
80008fe2:	f9 d8 c0 01 	bfextu	r12,r8,0x0,0x1
80008fe6:	a1 c8       	cbr	r8,0x0
80008fe8:	ec 08 00 09 	add	r9,r6,r8
80008fec:	72 1b       	ld.w	r11,r9[0x4]
80008fee:	e0 1b ff fc 	andl	r11,0xfffc
80008ff2:	1c 39       	cp.w	r9,lr
80008ff4:	c1 e1       	brne	80009030 <_free_r+0x68>
80008ff6:	f6 08 00 08 	add	r8,r11,r8
80008ffa:	58 0c       	cp.w	r12,0
80008ffc:	c0 81       	brne	8000900c <_free_r+0x44>
80008ffe:	6c 09       	ld.w	r9,r6[0x0]
80009000:	12 16       	sub	r6,r9
80009002:	12 08       	add	r8,r9
80009004:	6c 3b       	ld.w	r11,r6[0xc]
80009006:	6c 29       	ld.w	r9,r6[0x8]
80009008:	97 29       	st.w	r11[0x8],r9
8000900a:	93 3b       	st.w	r9[0xc],r11
8000900c:	10 99       	mov	r9,r8
8000900e:	95 26       	st.w	r10[0x8],r6
80009010:	a1 a9       	sbr	r9,0x0
80009012:	8d 19       	st.w	r6[0x4],r9
80009014:	e0 69 05 a8 	mov	r9,1448
80009018:	72 09       	ld.w	r9,r9[0x0]
8000901a:	12 38       	cp.w	r8,r9
8000901c:	c0 63       	brcs	80009028 <_free_r+0x60>
8000901e:	e0 68 09 d8 	mov	r8,2520
80009022:	0e 9c       	mov	r12,r7
80009024:	70 0b       	ld.w	r11,r8[0x0]
80009026:	c8 5f       	rcall	80008f30 <_malloc_trim_r>
80009028:	0e 9c       	mov	r12,r7
8000902a:	e0 a0 05 1c 	rcall	80009a62 <__malloc_unlock>
8000902e:	d8 22       	popm	r4-r7,pc
80009030:	93 1b       	st.w	r9[0x4],r11
80009032:	58 0c       	cp.w	r12,0
80009034:	c0 30       	breq	8000903a <_free_r+0x72>
80009036:	30 0c       	mov	r12,0
80009038:	c1 08       	rjmp	80009058 <_free_r+0x90>
8000903a:	6c 0e       	ld.w	lr,r6[0x0]
8000903c:	f4 c5 ff f8 	sub	r5,r10,-8
80009040:	1c 16       	sub	r6,lr
80009042:	1c 08       	add	r8,lr
80009044:	6c 2e       	ld.w	lr,r6[0x8]
80009046:	0a 3e       	cp.w	lr,r5
80009048:	f9 bc 00 01 	moveq	r12,1
8000904c:	ed f5 10 03 	ld.wne	r5,r6[0xc]
80009050:	eb fe 1a 02 	st.wne	r5[0x8],lr
80009054:	fd f5 1a 03 	st.wne	lr[0xc],r5
80009058:	f2 0b 00 0e 	add	lr,r9,r11
8000905c:	7c 1e       	ld.w	lr,lr[0x4]
8000905e:	ed be 00 00 	bld	lr,0x0
80009062:	c1 40       	breq	8000908a <_free_r+0xc2>
80009064:	16 08       	add	r8,r11
80009066:	58 0c       	cp.w	r12,0
80009068:	c0 d1       	brne	80009082 <_free_r+0xba>
8000906a:	e0 6e 01 a0 	mov	lr,416
8000906e:	72 2b       	ld.w	r11,r9[0x8]
80009070:	2f 8e       	sub	lr,-8
80009072:	1c 3b       	cp.w	r11,lr
80009074:	c0 71       	brne	80009082 <_free_r+0xba>
80009076:	97 36       	st.w	r11[0xc],r6
80009078:	97 26       	st.w	r11[0x8],r6
8000907a:	8d 2b       	st.w	r6[0x8],r11
8000907c:	8d 3b       	st.w	r6[0xc],r11
8000907e:	30 1c       	mov	r12,1
80009080:	c0 58       	rjmp	8000908a <_free_r+0xc2>
80009082:	72 2b       	ld.w	r11,r9[0x8]
80009084:	72 39       	ld.w	r9,r9[0xc]
80009086:	93 2b       	st.w	r9[0x8],r11
80009088:	97 39       	st.w	r11[0xc],r9
8000908a:	10 99       	mov	r9,r8
8000908c:	ec 08 09 08 	st.w	r6[r8],r8
80009090:	a1 a9       	sbr	r9,0x0
80009092:	8d 19       	st.w	r6[0x4],r9
80009094:	58 0c       	cp.w	r12,0
80009096:	c5 a1       	brne	8000914a <_free_r+0x182>
80009098:	e0 48 01 ff 	cp.w	r8,511
8000909c:	e0 8b 00 13 	brhi	800090c2 <_free_r+0xfa>
800090a0:	a3 98       	lsr	r8,0x3
800090a2:	f4 08 00 39 	add	r9,r10,r8<<0x3
800090a6:	72 2b       	ld.w	r11,r9[0x8]
800090a8:	8d 39       	st.w	r6[0xc],r9
800090aa:	8d 2b       	st.w	r6[0x8],r11
800090ac:	97 36       	st.w	r11[0xc],r6
800090ae:	93 26       	st.w	r9[0x8],r6
800090b0:	a3 48       	asr	r8,0x2
800090b2:	74 19       	ld.w	r9,r10[0x4]
800090b4:	30 1b       	mov	r11,1
800090b6:	f6 08 09 48 	lsl	r8,r11,r8
800090ba:	f3 e8 10 08 	or	r8,r9,r8
800090be:	95 18       	st.w	r10[0x4],r8
800090c0:	c4 58       	rjmp	8000914a <_free_r+0x182>
800090c2:	f0 0b 16 09 	lsr	r11,r8,0x9
800090c6:	58 4b       	cp.w	r11,4
800090c8:	e0 8b 00 06 	brhi	800090d4 <_free_r+0x10c>
800090cc:	f0 0b 16 06 	lsr	r11,r8,0x6
800090d0:	2c 8b       	sub	r11,-56
800090d2:	c2 08       	rjmp	80009112 <_free_r+0x14a>
800090d4:	59 4b       	cp.w	r11,20
800090d6:	e0 8b 00 04 	brhi	800090de <_free_r+0x116>
800090da:	2a 5b       	sub	r11,-91
800090dc:	c1 b8       	rjmp	80009112 <_free_r+0x14a>
800090de:	e0 4b 00 54 	cp.w	r11,84
800090e2:	e0 8b 00 06 	brhi	800090ee <_free_r+0x126>
800090e6:	f0 0b 16 0c 	lsr	r11,r8,0xc
800090ea:	29 2b       	sub	r11,-110
800090ec:	c1 38       	rjmp	80009112 <_free_r+0x14a>
800090ee:	e0 4b 01 54 	cp.w	r11,340
800090f2:	e0 8b 00 06 	brhi	800090fe <_free_r+0x136>
800090f6:	f0 0b 16 0f 	lsr	r11,r8,0xf
800090fa:	28 9b       	sub	r11,-119
800090fc:	c0 b8       	rjmp	80009112 <_free_r+0x14a>
800090fe:	e0 4b 05 54 	cp.w	r11,1364
80009102:	e0 88 00 05 	brls	8000910c <_free_r+0x144>
80009106:	37 eb       	mov	r11,126
80009108:	c0 58       	rjmp	80009112 <_free_r+0x14a>
8000910a:	d7 03       	nop
8000910c:	f0 0b 16 12 	lsr	r11,r8,0x12
80009110:	28 4b       	sub	r11,-124
80009112:	f4 0b 00 3c 	add	r12,r10,r11<<0x3
80009116:	78 29       	ld.w	r9,r12[0x8]
80009118:	18 39       	cp.w	r9,r12
8000911a:	c0 e1       	brne	80009136 <_free_r+0x16e>
8000911c:	74 18       	ld.w	r8,r10[0x4]
8000911e:	a3 4b       	asr	r11,0x2
80009120:	30 1c       	mov	r12,1
80009122:	f8 0b 09 4b 	lsl	r11,r12,r11
80009126:	f1 eb 10 0b 	or	r11,r8,r11
8000912a:	12 98       	mov	r8,r9
8000912c:	95 1b       	st.w	r10[0x4],r11
8000912e:	c0 a8       	rjmp	80009142 <_free_r+0x17a>
80009130:	72 29       	ld.w	r9,r9[0x8]
80009132:	18 39       	cp.w	r9,r12
80009134:	c0 60       	breq	80009140 <_free_r+0x178>
80009136:	72 1a       	ld.w	r10,r9[0x4]
80009138:	e0 1a ff fc 	andl	r10,0xfffc
8000913c:	14 38       	cp.w	r8,r10
8000913e:	cf 93       	brcs	80009130 <_free_r+0x168>
80009140:	72 38       	ld.w	r8,r9[0xc]
80009142:	8d 38       	st.w	r6[0xc],r8
80009144:	8d 29       	st.w	r6[0x8],r9
80009146:	93 36       	st.w	r9[0xc],r6
80009148:	91 26       	st.w	r8[0x8],r6
8000914a:	0e 9c       	mov	r12,r7
8000914c:	e0 a0 04 8b 	rcall	80009a62 <__malloc_unlock>
80009150:	d8 22       	popm	r4-r7,pc
80009152:	d7 03       	nop

80009154 <__sfvwrite_r>:
80009154:	d4 31       	pushm	r0-r7,lr
80009156:	20 3d       	sub	sp,12
80009158:	14 94       	mov	r4,r10
8000915a:	18 95       	mov	r5,r12
8000915c:	16 97       	mov	r7,r11
8000915e:	74 28       	ld.w	r8,r10[0x8]
80009160:	58 08       	cp.w	r8,0
80009162:	e0 80 01 45 	breq	800093ec <__sfvwrite_r+0x298>
80009166:	96 68       	ld.sh	r8,r11[0xc]
80009168:	ed b8 00 03 	bld	r8,0x3
8000916c:	c0 41       	brne	80009174 <__sfvwrite_r+0x20>
8000916e:	76 48       	ld.w	r8,r11[0x10]
80009170:	58 08       	cp.w	r8,0
80009172:	c0 c1       	brne	8000918a <__sfvwrite_r+0x36>
80009174:	0e 9b       	mov	r11,r7
80009176:	0a 9c       	mov	r12,r5
80009178:	fe b0 f6 5e 	rcall	80007e34 <__swsetup_r>
8000917c:	c0 70       	breq	8000918a <__sfvwrite_r+0x36>
8000917e:	8e 68       	ld.sh	r8,r7[0xc]
80009180:	a7 a8       	sbr	r8,0x6
80009182:	ae 68       	st.h	r7[0xc],r8
80009184:	30 98       	mov	r8,9
80009186:	8b 38       	st.w	r5[0xc],r8
80009188:	c3 09       	rjmp	800093e8 <__sfvwrite_r+0x294>
8000918a:	8e 63       	ld.sh	r3,r7[0xc]
8000918c:	68 00       	ld.w	r0,r4[0x0]
8000918e:	06 96       	mov	r6,r3
80009190:	e2 16 00 02 	andl	r6,0x2,COH
80009194:	c2 10       	breq	800091d6 <__sfvwrite_r+0x82>
80009196:	30 03       	mov	r3,0
80009198:	e0 62 04 00 	mov	r2,1024
8000919c:	06 96       	mov	r6,r3
8000919e:	c0 48       	rjmp	800091a6 <__sfvwrite_r+0x52>
800091a0:	60 03       	ld.w	r3,r0[0x0]
800091a2:	60 16       	ld.w	r6,r0[0x4]
800091a4:	2f 80       	sub	r0,-8
800091a6:	58 06       	cp.w	r6,0
800091a8:	cf c0       	breq	800091a0 <__sfvwrite_r+0x4c>
800091aa:	e0 46 04 00 	cp.w	r6,1024
800091ae:	ec 09 17 80 	movls	r9,r6
800091b2:	e4 09 17 b0 	movhi	r9,r2
800091b6:	06 9a       	mov	r10,r3
800091b8:	6e a8       	ld.w	r8,r7[0x28]
800091ba:	6e 8b       	ld.w	r11,r7[0x20]
800091bc:	0a 9c       	mov	r12,r5
800091be:	5d 18       	icall	r8
800091c0:	18 16       	sub	r6,r12
800091c2:	58 0c       	cp.w	r12,0
800091c4:	e0 8a 01 0f 	brle	800093e2 <__sfvwrite_r+0x28e>
800091c8:	68 28       	ld.w	r8,r4[0x8]
800091ca:	18 18       	sub	r8,r12
800091cc:	89 28       	st.w	r4[0x8],r8
800091ce:	e0 80 01 0f 	breq	800093ec <__sfvwrite_r+0x298>
800091d2:	18 03       	add	r3,r12
800091d4:	ce 9b       	rjmp	800091a6 <__sfvwrite_r+0x52>
800091d6:	e7 d3 c0 01 	bfextu	r3,r3,0x0,0x1
800091da:	c0 70       	breq	800091e8 <__sfvwrite_r+0x94>
800091dc:	50 06       	stdsp	sp[0x0],r6
800091de:	0c 93       	mov	r3,r6
800091e0:	0c 91       	mov	r1,r6
800091e2:	50 15       	stdsp	sp[0x4],r5
800091e4:	08 92       	mov	r2,r4
800091e6:	c9 e8       	rjmp	80009322 <__sfvwrite_r+0x1ce>
800091e8:	06 96       	mov	r6,r3
800091ea:	08 91       	mov	r1,r4
800091ec:	c0 48       	rjmp	800091f4 <__sfvwrite_r+0xa0>
800091ee:	60 03       	ld.w	r3,r0[0x0]
800091f0:	60 16       	ld.w	r6,r0[0x4]
800091f2:	2f 80       	sub	r0,-8
800091f4:	58 06       	cp.w	r6,0
800091f6:	cf c0       	breq	800091ee <__sfvwrite_r+0x9a>
800091f8:	8e 68       	ld.sh	r8,r7[0xc]
800091fa:	6e 24       	ld.w	r4,r7[0x8]
800091fc:	10 99       	mov	r9,r8
800091fe:	e2 19 02 00 	andl	r9,0x200,COH
80009202:	c5 50       	breq	800092ac <__sfvwrite_r+0x158>
80009204:	08 36       	cp.w	r6,r4
80009206:	c4 33       	brcs	8000928c <__sfvwrite_r+0x138>
80009208:	10 99       	mov	r9,r8
8000920a:	e2 19 04 80 	andl	r9,0x480,COH
8000920e:	c3 f0       	breq	8000928c <__sfvwrite_r+0x138>
80009210:	6e 4b       	ld.w	r11,r7[0x10]
80009212:	6e 09       	ld.w	r9,r7[0x0]
80009214:	16 19       	sub	r9,r11
80009216:	50 09       	stdsp	sp[0x0],r9
80009218:	6e 59       	ld.w	r9,r7[0x14]
8000921a:	10 9c       	mov	r12,r8
8000921c:	f2 09 00 1a 	add	r10,r9,r9<<0x1
80009220:	30 28       	mov	r8,2
80009222:	f4 08 0c 08 	divs	r8,r10,r8
80009226:	fa e9 00 04 	st.d	sp[4],r8
8000922a:	10 94       	mov	r4,r8
8000922c:	40 09       	lddsp	r9,sp[0x0]
8000922e:	e2 1c 04 00 	andl	r12,0x400,COH
80009232:	2f f9       	sub	r9,-1
80009234:	0c 09       	add	r9,r6
80009236:	12 38       	cp.w	r8,r9
80009238:	f2 04 17 30 	movlo	r4,r9
8000923c:	58 0c       	cp.w	r12,0
8000923e:	c1 00       	breq	8000925e <__sfvwrite_r+0x10a>
80009240:	08 9b       	mov	r11,r4
80009242:	0a 9c       	mov	r12,r5
80009244:	c9 ed       	rcall	80009580 <_malloc_r>
80009246:	18 92       	mov	r2,r12
80009248:	c1 40       	breq	80009270 <__sfvwrite_r+0x11c>
8000924a:	40 0a       	lddsp	r10,sp[0x0]
8000924c:	6e 4b       	ld.w	r11,r7[0x10]
8000924e:	fe b0 d8 d9 	rcall	80004400 <memcpy>
80009252:	8e 68       	ld.sh	r8,r7[0xc]
80009254:	e0 18 fb 7f 	andl	r8,0xfb7f
80009258:	a7 b8       	sbr	r8,0x7
8000925a:	ae 68       	st.h	r7[0xc],r8
8000925c:	c0 d8       	rjmp	80009276 <__sfvwrite_r+0x122>
8000925e:	08 9a       	mov	r10,r4
80009260:	0a 9c       	mov	r12,r5
80009262:	e0 a0 07 ff 	rcall	8000a260 <_realloc_r>
80009266:	18 92       	mov	r2,r12
80009268:	c0 71       	brne	80009276 <__sfvwrite_r+0x122>
8000926a:	6e 4b       	ld.w	r11,r7[0x10]
8000926c:	0a 9c       	mov	r12,r5
8000926e:	ca de       	rcall	80008fc8 <_free_r>
80009270:	30 c8       	mov	r8,12
80009272:	8b 38       	st.w	r5[0xc],r8
80009274:	cb 78       	rjmp	800093e2 <__sfvwrite_r+0x28e>
80009276:	40 0a       	lddsp	r10,sp[0x0]
80009278:	40 09       	lddsp	r9,sp[0x0]
8000927a:	e8 0a 01 0a 	sub	r10,r4,r10
8000927e:	e4 09 00 08 	add	r8,r2,r9
80009282:	8f 54       	st.w	r7[0x14],r4
80009284:	8f 2a       	st.w	r7[0x8],r10
80009286:	8f 08       	st.w	r7[0x0],r8
80009288:	8f 42       	st.w	r7[0x10],r2
8000928a:	0c 94       	mov	r4,r6
8000928c:	08 36       	cp.w	r6,r4
8000928e:	ec 04 17 30 	movlo	r4,r6
80009292:	06 9b       	mov	r11,r3
80009294:	08 9a       	mov	r10,r4
80009296:	6e 0c       	ld.w	r12,r7[0x0]
80009298:	e0 a0 03 c5 	rcall	80009a22 <memmove>
8000929c:	6e 08       	ld.w	r8,r7[0x0]
8000929e:	08 08       	add	r8,r4
800092a0:	8f 08       	st.w	r7[0x0],r8
800092a2:	6e 28       	ld.w	r8,r7[0x8]
800092a4:	08 18       	sub	r8,r4
800092a6:	0c 94       	mov	r4,r6
800092a8:	8f 28       	st.w	r7[0x8],r8
800092aa:	c3 08       	rjmp	8000930a <__sfvwrite_r+0x1b6>
800092ac:	08 36       	cp.w	r6,r4
800092ae:	5f ba       	srhi	r10
800092b0:	6e 0c       	ld.w	r12,r7[0x0]
800092b2:	6e 48       	ld.w	r8,r7[0x10]
800092b4:	10 3c       	cp.w	r12,r8
800092b6:	5f b8       	srhi	r8
800092b8:	f5 e8 00 08 	and	r8,r10,r8
800092bc:	f2 08 18 00 	cp.b	r8,r9
800092c0:	c0 e0       	breq	800092dc <__sfvwrite_r+0x188>
800092c2:	06 9b       	mov	r11,r3
800092c4:	08 9a       	mov	r10,r4
800092c6:	e0 a0 03 ae 	rcall	80009a22 <memmove>
800092ca:	6e 08       	ld.w	r8,r7[0x0]
800092cc:	08 08       	add	r8,r4
800092ce:	0e 9b       	mov	r11,r7
800092d0:	8f 08       	st.w	r7[0x0],r8
800092d2:	0a 9c       	mov	r12,r5
800092d4:	fe b0 fc 9c 	rcall	80008c0c <_fflush_r>
800092d8:	c1 90       	breq	8000930a <__sfvwrite_r+0x1b6>
800092da:	c8 48       	rjmp	800093e2 <__sfvwrite_r+0x28e>
800092dc:	6e 59       	ld.w	r9,r7[0x14]
800092de:	12 36       	cp.w	r6,r9
800092e0:	c0 a3       	brcs	800092f4 <__sfvwrite_r+0x1a0>
800092e2:	6e a8       	ld.w	r8,r7[0x28]
800092e4:	06 9a       	mov	r10,r3
800092e6:	6e 8b       	ld.w	r11,r7[0x20]
800092e8:	0a 9c       	mov	r12,r5
800092ea:	5d 18       	icall	r8
800092ec:	18 94       	mov	r4,r12
800092ee:	e0 89 00 0e 	brgt	8000930a <__sfvwrite_r+0x1b6>
800092f2:	c7 88       	rjmp	800093e2 <__sfvwrite_r+0x28e>
800092f4:	0c 9a       	mov	r10,r6
800092f6:	06 9b       	mov	r11,r3
800092f8:	e0 a0 03 95 	rcall	80009a22 <memmove>
800092fc:	6e 08       	ld.w	r8,r7[0x0]
800092fe:	0c 08       	add	r8,r6
80009300:	0c 94       	mov	r4,r6
80009302:	8f 08       	st.w	r7[0x0],r8
80009304:	6e 28       	ld.w	r8,r7[0x8]
80009306:	0c 18       	sub	r8,r6
80009308:	8f 28       	st.w	r7[0x8],r8
8000930a:	62 28       	ld.w	r8,r1[0x8]
8000930c:	08 18       	sub	r8,r4
8000930e:	83 28       	st.w	r1[0x8],r8
80009310:	c6 e0       	breq	800093ec <__sfvwrite_r+0x298>
80009312:	08 16       	sub	r6,r4
80009314:	08 03       	add	r3,r4
80009316:	c6 fb       	rjmp	800091f4 <__sfvwrite_r+0xa0>
80009318:	60 03       	ld.w	r3,r0[0x0]
8000931a:	60 11       	ld.w	r1,r0[0x4]
8000931c:	30 08       	mov	r8,0
8000931e:	2f 80       	sub	r0,-8
80009320:	50 08       	stdsp	sp[0x0],r8
80009322:	58 01       	cp.w	r1,0
80009324:	cf a0       	breq	80009318 <__sfvwrite_r+0x1c4>
80009326:	40 0a       	lddsp	r10,sp[0x0]
80009328:	58 0a       	cp.w	r10,0
8000932a:	c1 51       	brne	80009354 <__sfvwrite_r+0x200>
8000932c:	e2 c6 ff ff 	sub	r6,r1,-1
80009330:	02 9a       	mov	r10,r1
80009332:	30 ab       	mov	r11,10
80009334:	06 9c       	mov	r12,r3
80009336:	e0 a0 03 6b 	rcall	80009a0c <memchr>
8000933a:	f8 c8 ff ff 	sub	r8,r12,-1
8000933e:	58 0c       	cp.w	r12,0
80009340:	f1 d3 e1 16 	subne	r6,r8,r3
80009344:	f9 b9 01 01 	movne	r9,1
80009348:	fb f9 1a 00 	st.wne	sp[0x0],r9
8000934c:	f9 b8 00 01 	moveq	r8,1
80009350:	fb f8 0a 00 	st.weq	sp[0x0],r8
80009354:	02 36       	cp.w	r6,r1
80009356:	ec 04 17 80 	movls	r4,r6
8000935a:	e2 04 17 b0 	movhi	r4,r1
8000935e:	6e 59       	ld.w	r9,r7[0x14]
80009360:	6e 25       	ld.w	r5,r7[0x8]
80009362:	f2 05 00 05 	add	r5,r9,r5
80009366:	0a 34       	cp.w	r4,r5
80009368:	5f 9a       	srgt	r10
8000936a:	6e 0c       	ld.w	r12,r7[0x0]
8000936c:	6e 48       	ld.w	r8,r7[0x10]
8000936e:	10 3c       	cp.w	r12,r8
80009370:	5f b8       	srhi	r8
80009372:	f5 e8 00 08 	and	r8,r10,r8
80009376:	30 0a       	mov	r10,0
80009378:	f4 08 18 00 	cp.b	r8,r10
8000937c:	c0 e0       	breq	80009398 <__sfvwrite_r+0x244>
8000937e:	06 9b       	mov	r11,r3
80009380:	0a 9a       	mov	r10,r5
80009382:	e0 a0 03 50 	rcall	80009a22 <memmove>
80009386:	6e 08       	ld.w	r8,r7[0x0]
80009388:	0a 08       	add	r8,r5
8000938a:	0e 9b       	mov	r11,r7
8000938c:	8f 08       	st.w	r7[0x0],r8
8000938e:	40 1c       	lddsp	r12,sp[0x4]
80009390:	fe b0 fc 3e 	rcall	80008c0c <_fflush_r>
80009394:	c1 80       	breq	800093c4 <__sfvwrite_r+0x270>
80009396:	c2 68       	rjmp	800093e2 <__sfvwrite_r+0x28e>
80009398:	12 34       	cp.w	r4,r9
8000939a:	c0 a5       	brlt	800093ae <__sfvwrite_r+0x25a>
8000939c:	6e a8       	ld.w	r8,r7[0x28]
8000939e:	06 9a       	mov	r10,r3
800093a0:	6e 8b       	ld.w	r11,r7[0x20]
800093a2:	40 1c       	lddsp	r12,sp[0x4]
800093a4:	5d 18       	icall	r8
800093a6:	18 95       	mov	r5,r12
800093a8:	e0 89 00 0e 	brgt	800093c4 <__sfvwrite_r+0x270>
800093ac:	c1 b8       	rjmp	800093e2 <__sfvwrite_r+0x28e>
800093ae:	08 9a       	mov	r10,r4
800093b0:	06 9b       	mov	r11,r3
800093b2:	e0 a0 03 38 	rcall	80009a22 <memmove>
800093b6:	6e 08       	ld.w	r8,r7[0x0]
800093b8:	08 08       	add	r8,r4
800093ba:	08 95       	mov	r5,r4
800093bc:	8f 08       	st.w	r7[0x0],r8
800093be:	6e 28       	ld.w	r8,r7[0x8]
800093c0:	08 18       	sub	r8,r4
800093c2:	8f 28       	st.w	r7[0x8],r8
800093c4:	0a 16       	sub	r6,r5
800093c6:	c0 71       	brne	800093d4 <__sfvwrite_r+0x280>
800093c8:	0e 9b       	mov	r11,r7
800093ca:	40 1c       	lddsp	r12,sp[0x4]
800093cc:	fe b0 fc 20 	rcall	80008c0c <_fflush_r>
800093d0:	c0 91       	brne	800093e2 <__sfvwrite_r+0x28e>
800093d2:	50 06       	stdsp	sp[0x0],r6
800093d4:	64 28       	ld.w	r8,r2[0x8]
800093d6:	0a 18       	sub	r8,r5
800093d8:	85 28       	st.w	r2[0x8],r8
800093da:	c0 90       	breq	800093ec <__sfvwrite_r+0x298>
800093dc:	0a 11       	sub	r1,r5
800093de:	0a 03       	add	r3,r5
800093e0:	ca 1b       	rjmp	80009322 <__sfvwrite_r+0x1ce>
800093e2:	8e 68       	ld.sh	r8,r7[0xc]
800093e4:	a7 a8       	sbr	r8,0x6
800093e6:	ae 68       	st.h	r7[0xc],r8
800093e8:	3f fc       	mov	r12,-1
800093ea:	c0 28       	rjmp	800093ee <__sfvwrite_r+0x29a>
800093ec:	30 0c       	mov	r12,0
800093ee:	2f dd       	sub	sp,-12
800093f0:	d8 32       	popm	r0-r7,pc
800093f2:	d7 03       	nop

800093f4 <_fwalk_reent>:
800093f4:	d4 31       	pushm	r0-r7,lr
800093f6:	30 05       	mov	r5,0
800093f8:	18 93       	mov	r3,r12
800093fa:	16 90       	mov	r0,r11
800093fc:	0a 91       	mov	r1,r5
800093fe:	fe b0 fc 9f 	rcall	80008d3c <__sfp_lock_acquire>
80009402:	3f f2       	mov	r2,-1
80009404:	e6 c7 ff 28 	sub	r7,r3,-216
80009408:	c1 78       	rjmp	80009436 <_fwalk_reent+0x42>
8000940a:	6e 26       	ld.w	r6,r7[0x8]
8000940c:	6e 14       	ld.w	r4,r7[0x4]
8000940e:	2f 46       	sub	r6,-12
80009410:	c0 d8       	rjmp	8000942a <_fwalk_reent+0x36>
80009412:	8c 08       	ld.sh	r8,r6[0x0]
80009414:	e2 08 19 00 	cp.h	r8,r1
80009418:	c0 80       	breq	80009428 <_fwalk_reent+0x34>
8000941a:	8c 18       	ld.sh	r8,r6[0x2]
8000941c:	e4 08 19 00 	cp.h	r8,r2
80009420:	c0 40       	breq	80009428 <_fwalk_reent+0x34>
80009422:	06 9c       	mov	r12,r3
80009424:	5d 10       	icall	r0
80009426:	18 45       	or	r5,r12
80009428:	2a 46       	sub	r6,-92
8000942a:	20 14       	sub	r4,1
8000942c:	ec cb 00 0c 	sub	r11,r6,12
80009430:	58 04       	cp.w	r4,0
80009432:	cf 04       	brge	80009412 <_fwalk_reent+0x1e>
80009434:	6e 07       	ld.w	r7,r7[0x0]
80009436:	58 07       	cp.w	r7,0
80009438:	ce 91       	brne	8000940a <_fwalk_reent+0x16>
8000943a:	fe b0 fc 82 	rcall	80008d3e <__sfp_lock_release>
8000943e:	0a 9c       	mov	r12,r5
80009440:	d8 32       	popm	r0-r7,pc
80009442:	d7 03       	nop

80009444 <_fwalk>:
80009444:	d4 31       	pushm	r0-r7,lr
80009446:	30 05       	mov	r5,0
80009448:	16 91       	mov	r1,r11
8000944a:	f8 c7 ff 28 	sub	r7,r12,-216
8000944e:	0a 92       	mov	r2,r5
80009450:	fe b0 fc 76 	rcall	80008d3c <__sfp_lock_acquire>
80009454:	3f f3       	mov	r3,-1
80009456:	c1 68       	rjmp	80009482 <_fwalk+0x3e>
80009458:	6e 26       	ld.w	r6,r7[0x8]
8000945a:	6e 14       	ld.w	r4,r7[0x4]
8000945c:	2f 46       	sub	r6,-12
8000945e:	c0 c8       	rjmp	80009476 <_fwalk+0x32>
80009460:	8c 08       	ld.sh	r8,r6[0x0]
80009462:	e4 08 19 00 	cp.h	r8,r2
80009466:	c0 70       	breq	80009474 <_fwalk+0x30>
80009468:	8c 18       	ld.sh	r8,r6[0x2]
8000946a:	e6 08 19 00 	cp.h	r8,r3
8000946e:	c0 30       	breq	80009474 <_fwalk+0x30>
80009470:	5d 11       	icall	r1
80009472:	18 45       	or	r5,r12
80009474:	2a 46       	sub	r6,-92
80009476:	20 14       	sub	r4,1
80009478:	ec cc 00 0c 	sub	r12,r6,12
8000947c:	58 04       	cp.w	r4,0
8000947e:	cf 14       	brge	80009460 <_fwalk+0x1c>
80009480:	6e 07       	ld.w	r7,r7[0x0]
80009482:	58 07       	cp.w	r7,0
80009484:	ce a1       	brne	80009458 <_fwalk+0x14>
80009486:	fe b0 fc 5c 	rcall	80008d3e <__sfp_lock_release>
8000948a:	0a 9c       	mov	r12,r5
8000948c:	d8 32       	popm	r0-r7,pc
8000948e:	d7 03       	nop

80009490 <iswspace>:
80009490:	e0 4c 00 ff 	cp.w	r12,255
80009494:	e0 88 00 03 	brls	8000949a <iswspace+0xa>
80009498:	5e fd       	retal	0
8000949a:	e0 68 01 98 	mov	r8,408
8000949e:	70 08       	ld.w	r8,r8[0x0]
800094a0:	f0 0c 07 0c 	ld.ub	r12,r8[r12]
800094a4:	e2 1c 00 08 	andl	r12,0x8,COH
800094a8:	5e fc       	retal	r12
800094aa:	d7 03       	nop

800094ac <_localeconv_r>:
800094ac:	fe cc b7 a0 	sub	r12,pc,-18528
800094b0:	5e fc       	retal	r12
800094b2:	d7 03       	nop

800094b4 <__smakebuf_r>:
800094b4:	d4 21       	pushm	r4-r7,lr
800094b6:	20 fd       	sub	sp,60
800094b8:	96 68       	ld.sh	r8,r11[0xc]
800094ba:	16 97       	mov	r7,r11
800094bc:	18 96       	mov	r6,r12
800094be:	e2 18 00 02 	andl	r8,0x2,COH
800094c2:	c3 c1       	brne	8000953a <__smakebuf_r+0x86>
800094c4:	96 7b       	ld.sh	r11,r11[0xe]
800094c6:	f0 0b 19 00 	cp.h	r11,r8
800094ca:	c0 55       	brlt	800094d4 <__smakebuf_r+0x20>
800094cc:	1a 9a       	mov	r10,sp
800094ce:	e0 a0 14 3d 	rcall	8000bd48 <_fstat_r>
800094d2:	c0 f4       	brge	800094f0 <__smakebuf_r+0x3c>
800094d4:	8e 65       	ld.sh	r5,r7[0xc]
800094d6:	0a 98       	mov	r8,r5
800094d8:	ab b8       	sbr	r8,0xb
800094da:	e2 15 00 80 	andl	r5,0x80,COH
800094de:	ae 68       	st.h	r7[0xc],r8
800094e0:	30 04       	mov	r4,0
800094e2:	e0 68 04 00 	mov	r8,1024
800094e6:	f9 b5 01 40 	movne	r5,64
800094ea:	f0 05 17 00 	moveq	r5,r8
800094ee:	c1 c8       	rjmp	80009526 <__smakebuf_r+0x72>
800094f0:	40 18       	lddsp	r8,sp[0x4]
800094f2:	e2 18 f0 00 	andl	r8,0xf000,COH
800094f6:	e0 48 20 00 	cp.w	r8,8192
800094fa:	5f 04       	sreq	r4
800094fc:	e0 48 80 00 	cp.w	r8,32768
80009500:	c0 e1       	brne	8000951c <__smakebuf_r+0x68>
80009502:	6e b9       	ld.w	r9,r7[0x2c]
80009504:	fe c8 ed 90 	sub	r8,pc,-4720
80009508:	10 39       	cp.w	r9,r8
8000950a:	c0 91       	brne	8000951c <__smakebuf_r+0x68>
8000950c:	8e 68       	ld.sh	r8,r7[0xc]
8000950e:	e0 65 04 00 	mov	r5,1024
80009512:	ab a8       	sbr	r8,0xa
80009514:	ef 45 00 50 	st.w	r7[80],r5
80009518:	ae 68       	st.h	r7[0xc],r8
8000951a:	c0 68       	rjmp	80009526 <__smakebuf_r+0x72>
8000951c:	8e 68       	ld.sh	r8,r7[0xc]
8000951e:	e0 65 04 00 	mov	r5,1024
80009522:	ab b8       	sbr	r8,0xb
80009524:	ae 68       	st.h	r7[0xc],r8
80009526:	0a 9b       	mov	r11,r5
80009528:	0c 9c       	mov	r12,r6
8000952a:	c2 bc       	rcall	80009580 <_malloc_r>
8000952c:	8e 68       	ld.sh	r8,r7[0xc]
8000952e:	c0 d1       	brne	80009548 <__smakebuf_r+0x94>
80009530:	ed b8 00 09 	bld	r8,0x9
80009534:	c1 b0       	breq	8000956a <__smakebuf_r+0xb6>
80009536:	a1 b8       	sbr	r8,0x1
80009538:	ae 68       	st.h	r7[0xc],r8
8000953a:	ee c8 ff b9 	sub	r8,r7,-71
8000953e:	8f 48       	st.w	r7[0x10],r8
80009540:	8f 08       	st.w	r7[0x0],r8
80009542:	30 18       	mov	r8,1
80009544:	8f 58       	st.w	r7[0x14],r8
80009546:	c1 28       	rjmp	8000956a <__smakebuf_r+0xb6>
80009548:	a7 b8       	sbr	r8,0x7
8000954a:	8f 4c       	st.w	r7[0x10],r12
8000954c:	ae 68       	st.h	r7[0xc],r8
8000954e:	8f 55       	st.w	r7[0x14],r5
80009550:	fe c8 08 10 	sub	r8,pc,2064
80009554:	8f 0c       	st.w	r7[0x0],r12
80009556:	8d a8       	st.w	r6[0x28],r8
80009558:	58 04       	cp.w	r4,0
8000955a:	c0 80       	breq	8000956a <__smakebuf_r+0xb6>
8000955c:	8e 7c       	ld.sh	r12,r7[0xe]
8000955e:	e0 a0 12 45 	rcall	8000b9e8 <isatty>
80009562:	c0 40       	breq	8000956a <__smakebuf_r+0xb6>
80009564:	8e 68       	ld.sh	r8,r7[0xc]
80009566:	a1 a8       	sbr	r8,0x0
80009568:	ae 68       	st.h	r7[0xc],r8
8000956a:	2f 1d       	sub	sp,-60
8000956c:	d8 22       	popm	r4-r7,pc
8000956e:	d7 03       	nop

80009570 <malloc>:
80009570:	d4 01       	pushm	lr
80009572:	e0 68 01 94 	mov	r8,404
80009576:	18 9b       	mov	r11,r12
80009578:	70 0c       	ld.w	r12,r8[0x0]
8000957a:	c0 3c       	rcall	80009580 <_malloc_r>
8000957c:	d8 02       	popm	pc
8000957e:	d7 03       	nop

80009580 <_malloc_r>:
80009580:	d4 31       	pushm	r0-r7,lr
80009582:	f6 c8 ff f5 	sub	r8,r11,-11
80009586:	18 95       	mov	r5,r12
80009588:	10 97       	mov	r7,r8
8000958a:	e0 17 ff f8 	andl	r7,0xfff8
8000958e:	59 68       	cp.w	r8,22
80009590:	f9 b7 08 10 	movls	r7,16
80009594:	16 37       	cp.w	r7,r11
80009596:	5f 38       	srlo	r8
80009598:	f1 e7 13 f8 	or	r8,r8,r7>>0x1f
8000959c:	c0 50       	breq	800095a6 <_malloc_r+0x26>
8000959e:	30 c8       	mov	r8,12
800095a0:	99 38       	st.w	r12[0xc],r8
800095a2:	e0 8f 01 f7 	bral	80009990 <_malloc_r+0x410>
800095a6:	e0 a0 02 5d 	rcall	80009a60 <__malloc_lock>
800095aa:	e0 47 01 f7 	cp.w	r7,503
800095ae:	e0 8b 00 1d 	brhi	800095e8 <_malloc_r+0x68>
800095b2:	ee 03 16 03 	lsr	r3,r7,0x3
800095b6:	e0 68 01 a0 	mov	r8,416
800095ba:	f0 03 00 38 	add	r8,r8,r3<<0x3
800095be:	70 36       	ld.w	r6,r8[0xc]
800095c0:	10 36       	cp.w	r6,r8
800095c2:	c0 61       	brne	800095ce <_malloc_r+0x4e>
800095c4:	ec c8 ff f8 	sub	r8,r6,-8
800095c8:	70 36       	ld.w	r6,r8[0xc]
800095ca:	10 36       	cp.w	r6,r8
800095cc:	c0 c0       	breq	800095e4 <_malloc_r+0x64>
800095ce:	6c 18       	ld.w	r8,r6[0x4]
800095d0:	e0 18 ff fc 	andl	r8,0xfffc
800095d4:	6c 3a       	ld.w	r10,r6[0xc]
800095d6:	ec 08 00 09 	add	r9,r6,r8
800095da:	0a 9c       	mov	r12,r5
800095dc:	6c 28       	ld.w	r8,r6[0x8]
800095de:	95 28       	st.w	r10[0x8],r8
800095e0:	91 3a       	st.w	r8[0xc],r10
800095e2:	c4 78       	rjmp	80009670 <_malloc_r+0xf0>
800095e4:	2f e3       	sub	r3,-2
800095e6:	c4 d8       	rjmp	80009680 <_malloc_r+0x100>
800095e8:	ee 03 16 09 	lsr	r3,r7,0x9
800095ec:	c0 41       	brne	800095f4 <_malloc_r+0x74>
800095ee:	ee 03 16 03 	lsr	r3,r7,0x3
800095f2:	c2 68       	rjmp	8000963e <_malloc_r+0xbe>
800095f4:	58 43       	cp.w	r3,4
800095f6:	e0 8b 00 06 	brhi	80009602 <_malloc_r+0x82>
800095fa:	ee 03 16 06 	lsr	r3,r7,0x6
800095fe:	2c 83       	sub	r3,-56
80009600:	c1 f8       	rjmp	8000963e <_malloc_r+0xbe>
80009602:	59 43       	cp.w	r3,20
80009604:	e0 8b 00 04 	brhi	8000960c <_malloc_r+0x8c>
80009608:	2a 53       	sub	r3,-91
8000960a:	c1 a8       	rjmp	8000963e <_malloc_r+0xbe>
8000960c:	e0 43 00 54 	cp.w	r3,84
80009610:	e0 8b 00 06 	brhi	8000961c <_malloc_r+0x9c>
80009614:	ee 03 16 0c 	lsr	r3,r7,0xc
80009618:	29 23       	sub	r3,-110
8000961a:	c1 28       	rjmp	8000963e <_malloc_r+0xbe>
8000961c:	e0 43 01 54 	cp.w	r3,340
80009620:	e0 8b 00 06 	brhi	8000962c <_malloc_r+0xac>
80009624:	ee 03 16 0f 	lsr	r3,r7,0xf
80009628:	28 93       	sub	r3,-119
8000962a:	c0 a8       	rjmp	8000963e <_malloc_r+0xbe>
8000962c:	e0 43 05 54 	cp.w	r3,1364
80009630:	e0 88 00 04 	brls	80009638 <_malloc_r+0xb8>
80009634:	37 e3       	mov	r3,126
80009636:	c0 48       	rjmp	8000963e <_malloc_r+0xbe>
80009638:	ee 03 16 12 	lsr	r3,r7,0x12
8000963c:	28 43       	sub	r3,-124
8000963e:	e0 6a 01 a0 	mov	r10,416
80009642:	f4 03 00 3a 	add	r10,r10,r3<<0x3
80009646:	74 36       	ld.w	r6,r10[0xc]
80009648:	c1 98       	rjmp	8000967a <_malloc_r+0xfa>
8000964a:	6c 19       	ld.w	r9,r6[0x4]
8000964c:	e0 19 ff fc 	andl	r9,0xfffc
80009650:	f2 07 01 0b 	sub	r11,r9,r7
80009654:	58 fb       	cp.w	r11,15
80009656:	e0 8a 00 04 	brle	8000965e <_malloc_r+0xde>
8000965a:	20 13       	sub	r3,1
8000965c:	c1 18       	rjmp	8000967e <_malloc_r+0xfe>
8000965e:	6c 38       	ld.w	r8,r6[0xc]
80009660:	58 0b       	cp.w	r11,0
80009662:	c0 b5       	brlt	80009678 <_malloc_r+0xf8>
80009664:	6c 2a       	ld.w	r10,r6[0x8]
80009666:	ec 09 00 09 	add	r9,r6,r9
8000966a:	0a 9c       	mov	r12,r5
8000966c:	91 2a       	st.w	r8[0x8],r10
8000966e:	95 38       	st.w	r10[0xc],r8
80009670:	72 18       	ld.w	r8,r9[0x4]
80009672:	a1 a8       	sbr	r8,0x0
80009674:	93 18       	st.w	r9[0x4],r8
80009676:	cb c8       	rjmp	800097ee <_malloc_r+0x26e>
80009678:	10 96       	mov	r6,r8
8000967a:	14 36       	cp.w	r6,r10
8000967c:	ce 71       	brne	8000964a <_malloc_r+0xca>
8000967e:	2f f3       	sub	r3,-1
80009680:	e0 6a 01 a0 	mov	r10,416
80009684:	f4 cc ff f8 	sub	r12,r10,-8
80009688:	78 26       	ld.w	r6,r12[0x8]
8000968a:	18 36       	cp.w	r6,r12
8000968c:	c6 c0       	breq	80009764 <_malloc_r+0x1e4>
8000968e:	6c 19       	ld.w	r9,r6[0x4]
80009690:	e0 19 ff fc 	andl	r9,0xfffc
80009694:	f2 07 01 08 	sub	r8,r9,r7
80009698:	58 f8       	cp.w	r8,15
8000969a:	e0 89 00 8f 	brgt	800097b8 <_malloc_r+0x238>
8000969e:	99 3c       	st.w	r12[0xc],r12
800096a0:	99 2c       	st.w	r12[0x8],r12
800096a2:	58 08       	cp.w	r8,0
800096a4:	c0 55       	brlt	800096ae <_malloc_r+0x12e>
800096a6:	ec 09 00 09 	add	r9,r6,r9
800096aa:	0a 9c       	mov	r12,r5
800096ac:	ce 2b       	rjmp	80009670 <_malloc_r+0xf0>
800096ae:	e0 49 01 ff 	cp.w	r9,511
800096b2:	e0 8b 00 13 	brhi	800096d8 <_malloc_r+0x158>
800096b6:	a3 99       	lsr	r9,0x3
800096b8:	f4 09 00 38 	add	r8,r10,r9<<0x3
800096bc:	70 2b       	ld.w	r11,r8[0x8]
800096be:	8d 38       	st.w	r6[0xc],r8
800096c0:	8d 2b       	st.w	r6[0x8],r11
800096c2:	97 36       	st.w	r11[0xc],r6
800096c4:	91 26       	st.w	r8[0x8],r6
800096c6:	a3 49       	asr	r9,0x2
800096c8:	74 18       	ld.w	r8,r10[0x4]
800096ca:	30 1b       	mov	r11,1
800096cc:	f6 09 09 49 	lsl	r9,r11,r9
800096d0:	f1 e9 10 09 	or	r9,r8,r9
800096d4:	95 19       	st.w	r10[0x4],r9
800096d6:	c4 78       	rjmp	80009764 <_malloc_r+0x1e4>
800096d8:	f2 0a 16 09 	lsr	r10,r9,0x9
800096dc:	58 4a       	cp.w	r10,4
800096de:	e0 8b 00 07 	brhi	800096ec <_malloc_r+0x16c>
800096e2:	f2 0a 16 06 	lsr	r10,r9,0x6
800096e6:	2c 8a       	sub	r10,-56
800096e8:	c2 08       	rjmp	80009728 <_malloc_r+0x1a8>
800096ea:	d7 03       	nop
800096ec:	59 4a       	cp.w	r10,20
800096ee:	e0 8b 00 04 	brhi	800096f6 <_malloc_r+0x176>
800096f2:	2a 5a       	sub	r10,-91
800096f4:	c1 a8       	rjmp	80009728 <_malloc_r+0x1a8>
800096f6:	e0 4a 00 54 	cp.w	r10,84
800096fa:	e0 8b 00 06 	brhi	80009706 <_malloc_r+0x186>
800096fe:	f2 0a 16 0c 	lsr	r10,r9,0xc
80009702:	29 2a       	sub	r10,-110
80009704:	c1 28       	rjmp	80009728 <_malloc_r+0x1a8>
80009706:	e0 4a 01 54 	cp.w	r10,340
8000970a:	e0 8b 00 06 	brhi	80009716 <_malloc_r+0x196>
8000970e:	f2 0a 16 0f 	lsr	r10,r9,0xf
80009712:	28 9a       	sub	r10,-119
80009714:	c0 a8       	rjmp	80009728 <_malloc_r+0x1a8>
80009716:	e0 4a 05 54 	cp.w	r10,1364
8000971a:	e0 88 00 04 	brls	80009722 <_malloc_r+0x1a2>
8000971e:	37 ea       	mov	r10,126
80009720:	c0 48       	rjmp	80009728 <_malloc_r+0x1a8>
80009722:	f2 0a 16 12 	lsr	r10,r9,0x12
80009726:	28 4a       	sub	r10,-124
80009728:	e0 6b 01 a0 	mov	r11,416
8000972c:	f6 0a 00 34 	add	r4,r11,r10<<0x3
80009730:	68 28       	ld.w	r8,r4[0x8]
80009732:	08 38       	cp.w	r8,r4
80009734:	c0 e1       	brne	80009750 <_malloc_r+0x1d0>
80009736:	76 19       	ld.w	r9,r11[0x4]
80009738:	a3 4a       	asr	r10,0x2
8000973a:	30 1e       	mov	lr,1
8000973c:	fc 0a 09 4a 	lsl	r10,lr,r10
80009740:	f3 ea 10 0a 	or	r10,r9,r10
80009744:	10 99       	mov	r9,r8
80009746:	97 1a       	st.w	r11[0x4],r10
80009748:	c0 a8       	rjmp	8000975c <_malloc_r+0x1dc>
8000974a:	70 28       	ld.w	r8,r8[0x8]
8000974c:	08 38       	cp.w	r8,r4
8000974e:	c0 60       	breq	8000975a <_malloc_r+0x1da>
80009750:	70 1a       	ld.w	r10,r8[0x4]
80009752:	e0 1a ff fc 	andl	r10,0xfffc
80009756:	14 39       	cp.w	r9,r10
80009758:	cf 93       	brcs	8000974a <_malloc_r+0x1ca>
8000975a:	70 39       	ld.w	r9,r8[0xc]
8000975c:	8d 39       	st.w	r6[0xc],r9
8000975e:	8d 28       	st.w	r6[0x8],r8
80009760:	91 36       	st.w	r8[0xc],r6
80009762:	93 26       	st.w	r9[0x8],r6
80009764:	e6 08 14 02 	asr	r8,r3,0x2
80009768:	30 1b       	mov	r11,1
8000976a:	e0 64 01 a0 	mov	r4,416
8000976e:	f6 08 09 4b 	lsl	r11,r11,r8
80009772:	68 18       	ld.w	r8,r4[0x4]
80009774:	10 3b       	cp.w	r11,r8
80009776:	e0 8b 00 69 	brhi	80009848 <_malloc_r+0x2c8>
8000977a:	f7 e8 00 09 	and	r9,r11,r8
8000977e:	c0 b1       	brne	80009794 <_malloc_r+0x214>
80009780:	e0 13 ff fc 	andl	r3,0xfffc
80009784:	a1 7b       	lsl	r11,0x1
80009786:	2f c3       	sub	r3,-4
80009788:	c0 38       	rjmp	8000978e <_malloc_r+0x20e>
8000978a:	2f c3       	sub	r3,-4
8000978c:	a1 7b       	lsl	r11,0x1
8000978e:	f7 e8 00 09 	and	r9,r11,r8
80009792:	cf c0       	breq	8000978a <_malloc_r+0x20a>
80009794:	e8 03 00 3e 	add	lr,r4,r3<<0x3
80009798:	06 92       	mov	r2,r3
8000979a:	1c 91       	mov	r1,lr
8000979c:	62 36       	ld.w	r6,r1[0xc]
8000979e:	c2 d8       	rjmp	800097f8 <_malloc_r+0x278>
800097a0:	6c 1a       	ld.w	r10,r6[0x4]
800097a2:	e0 1a ff fc 	andl	r10,0xfffc
800097a6:	f4 07 01 08 	sub	r8,r10,r7
800097aa:	58 f8       	cp.w	r8,15
800097ac:	e0 8a 00 15 	brle	800097d6 <_malloc_r+0x256>
800097b0:	6c 3a       	ld.w	r10,r6[0xc]
800097b2:	6c 29       	ld.w	r9,r6[0x8]
800097b4:	95 29       	st.w	r10[0x8],r9
800097b6:	93 3a       	st.w	r9[0xc],r10
800097b8:	0e 99       	mov	r9,r7
800097ba:	ec 07 00 07 	add	r7,r6,r7
800097be:	a1 a9       	sbr	r9,0x0
800097c0:	99 37       	st.w	r12[0xc],r7
800097c2:	99 27       	st.w	r12[0x8],r7
800097c4:	8d 19       	st.w	r6[0x4],r9
800097c6:	ee 08 09 08 	st.w	r7[r8],r8
800097ca:	8f 2c       	st.w	r7[0x8],r12
800097cc:	8f 3c       	st.w	r7[0xc],r12
800097ce:	a1 a8       	sbr	r8,0x0
800097d0:	0a 9c       	mov	r12,r5
800097d2:	8f 18       	st.w	r7[0x4],r8
800097d4:	c0 d8       	rjmp	800097ee <_malloc_r+0x26e>
800097d6:	6c 39       	ld.w	r9,r6[0xc]
800097d8:	58 08       	cp.w	r8,0
800097da:	c0 e5       	brlt	800097f6 <_malloc_r+0x276>
800097dc:	ec 0a 00 0a 	add	r10,r6,r10
800097e0:	74 18       	ld.w	r8,r10[0x4]
800097e2:	a1 a8       	sbr	r8,0x0
800097e4:	0a 9c       	mov	r12,r5
800097e6:	95 18       	st.w	r10[0x4],r8
800097e8:	6c 28       	ld.w	r8,r6[0x8]
800097ea:	93 28       	st.w	r9[0x8],r8
800097ec:	91 39       	st.w	r8[0xc],r9
800097ee:	c3 ad       	rcall	80009a62 <__malloc_unlock>
800097f0:	ec cc ff f8 	sub	r12,r6,-8
800097f4:	d8 32       	popm	r0-r7,pc
800097f6:	12 96       	mov	r6,r9
800097f8:	02 36       	cp.w	r6,r1
800097fa:	cd 31       	brne	800097a0 <_malloc_r+0x220>
800097fc:	2f f2       	sub	r2,-1
800097fe:	f1 d2 c0 02 	bfextu	r8,r2,0x0,0x2
80009802:	c0 30       	breq	80009808 <_malloc_r+0x288>
80009804:	2f 81       	sub	r1,-8
80009806:	cc bb       	rjmp	8000979c <_malloc_r+0x21c>
80009808:	1c 98       	mov	r8,lr
8000980a:	f3 d3 c0 02 	bfextu	r9,r3,0x0,0x2
8000980e:	c0 81       	brne	8000981e <_malloc_r+0x29e>
80009810:	68 19       	ld.w	r9,r4[0x4]
80009812:	f6 08 11 ff 	rsub	r8,r11,-1
80009816:	f3 e8 00 08 	and	r8,r9,r8
8000981a:	89 18       	st.w	r4[0x4],r8
8000981c:	c0 78       	rjmp	8000982a <_malloc_r+0x2aa>
8000981e:	f0 c9 00 08 	sub	r9,r8,8
80009822:	20 13       	sub	r3,1
80009824:	70 08       	ld.w	r8,r8[0x0]
80009826:	12 38       	cp.w	r8,r9
80009828:	cf 10       	breq	8000980a <_malloc_r+0x28a>
8000982a:	a1 7b       	lsl	r11,0x1
8000982c:	68 18       	ld.w	r8,r4[0x4]
8000982e:	10 3b       	cp.w	r11,r8
80009830:	e0 8b 00 0c 	brhi	80009848 <_malloc_r+0x2c8>
80009834:	58 0b       	cp.w	r11,0
80009836:	c0 90       	breq	80009848 <_malloc_r+0x2c8>
80009838:	04 93       	mov	r3,r2
8000983a:	c0 38       	rjmp	80009840 <_malloc_r+0x2c0>
8000983c:	2f c3       	sub	r3,-4
8000983e:	a1 7b       	lsl	r11,0x1
80009840:	f7 e8 00 09 	and	r9,r11,r8
80009844:	ca 81       	brne	80009794 <_malloc_r+0x214>
80009846:	cf bb       	rjmp	8000983c <_malloc_r+0x2bc>
80009848:	68 23       	ld.w	r3,r4[0x8]
8000984a:	66 12       	ld.w	r2,r3[0x4]
8000984c:	e0 12 ff fc 	andl	r2,0xfffc
80009850:	0e 32       	cp.w	r2,r7
80009852:	5f 39       	srlo	r9
80009854:	e4 07 01 08 	sub	r8,r2,r7
80009858:	58 f8       	cp.w	r8,15
8000985a:	5f aa       	srle	r10
8000985c:	f5 e9 10 09 	or	r9,r10,r9
80009860:	e0 80 00 9a 	breq	80009994 <_malloc_r+0x414>
80009864:	e0 68 09 d8 	mov	r8,2520
80009868:	70 01       	ld.w	r1,r8[0x0]
8000986a:	e0 68 05 ac 	mov	r8,1452
8000986e:	2f 01       	sub	r1,-16
80009870:	70 08       	ld.w	r8,r8[0x0]
80009872:	0e 01       	add	r1,r7
80009874:	5b f8       	cp.w	r8,-1
80009876:	c0 40       	breq	8000987e <_malloc_r+0x2fe>
80009878:	28 11       	sub	r1,-127
8000987a:	e0 11 ff 80 	andl	r1,0xff80
8000987e:	02 9b       	mov	r11,r1
80009880:	0a 9c       	mov	r12,r5
80009882:	e0 a0 06 f9 	rcall	8000a674 <_sbrk_r>
80009886:	18 96       	mov	r6,r12
80009888:	5b fc       	cp.w	r12,-1
8000988a:	c7 50       	breq	80009974 <_malloc_r+0x3f4>
8000988c:	e6 02 00 08 	add	r8,r3,r2
80009890:	10 3c       	cp.w	r12,r8
80009892:	c0 32       	brcc	80009898 <_malloc_r+0x318>
80009894:	08 33       	cp.w	r3,r4
80009896:	c6 f1       	brne	80009974 <_malloc_r+0x3f4>
80009898:	e0 6a 09 dc 	mov	r10,2524
8000989c:	74 09       	ld.w	r9,r10[0x0]
8000989e:	e2 09 00 09 	add	r9,r1,r9
800098a2:	95 09       	st.w	r10[0x0],r9
800098a4:	10 36       	cp.w	r6,r8
800098a6:	c0 a1       	brne	800098ba <_malloc_r+0x33a>
800098a8:	f5 d6 c0 07 	bfextu	r10,r6,0x0,0x7
800098ac:	c0 71       	brne	800098ba <_malloc_r+0x33a>
800098ae:	e2 02 00 02 	add	r2,r1,r2
800098b2:	68 28       	ld.w	r8,r4[0x8]
800098b4:	a1 a2       	sbr	r2,0x0
800098b6:	91 12       	st.w	r8[0x4],r2
800098b8:	c4 f8       	rjmp	80009956 <_malloc_r+0x3d6>
800098ba:	e0 6a 05 ac 	mov	r10,1452
800098be:	74 0b       	ld.w	r11,r10[0x0]
800098c0:	5b fb       	cp.w	r11,-1
800098c2:	c0 31       	brne	800098c8 <_malloc_r+0x348>
800098c4:	95 06       	st.w	r10[0x0],r6
800098c6:	c0 78       	rjmp	800098d4 <_malloc_r+0x354>
800098c8:	ec 09 00 09 	add	r9,r6,r9
800098cc:	e0 6a 09 dc 	mov	r10,2524
800098d0:	10 19       	sub	r9,r8
800098d2:	95 09       	st.w	r10[0x0],r9
800098d4:	f1 d6 c0 03 	bfextu	r8,r6,0x0,0x3
800098d8:	f0 09 11 08 	rsub	r9,r8,8
800098dc:	58 08       	cp.w	r8,0
800098de:	f2 08 17 10 	movne	r8,r9
800098e2:	ed d8 e1 06 	addne	r6,r6,r8
800098e6:	28 08       	sub	r8,-128
800098e8:	ec 01 00 01 	add	r1,r6,r1
800098ec:	0a 9c       	mov	r12,r5
800098ee:	e3 d1 c0 07 	bfextu	r1,r1,0x0,0x7
800098f2:	f0 01 01 01 	sub	r1,r8,r1
800098f6:	02 9b       	mov	r11,r1
800098f8:	e0 a0 06 be 	rcall	8000a674 <_sbrk_r>
800098fc:	e0 68 09 dc 	mov	r8,2524
80009900:	5b fc       	cp.w	r12,-1
80009902:	ec 0c 17 00 	moveq	r12,r6
80009906:	f9 b1 00 00 	moveq	r1,0
8000990a:	70 09       	ld.w	r9,r8[0x0]
8000990c:	0c 1c       	sub	r12,r6
8000990e:	89 26       	st.w	r4[0x8],r6
80009910:	02 0c       	add	r12,r1
80009912:	12 01       	add	r1,r9
80009914:	a1 ac       	sbr	r12,0x0
80009916:	91 01       	st.w	r8[0x0],r1
80009918:	8d 1c       	st.w	r6[0x4],r12
8000991a:	08 33       	cp.w	r3,r4
8000991c:	c1 d0       	breq	80009956 <_malloc_r+0x3d6>
8000991e:	58 f2       	cp.w	r2,15
80009920:	e0 8b 00 05 	brhi	8000992a <_malloc_r+0x3aa>
80009924:	30 18       	mov	r8,1
80009926:	8d 18       	st.w	r6[0x4],r8
80009928:	c2 68       	rjmp	80009974 <_malloc_r+0x3f4>
8000992a:	30 59       	mov	r9,5
8000992c:	20 c2       	sub	r2,12
8000992e:	e0 12 ff f8 	andl	r2,0xfff8
80009932:	e6 02 00 08 	add	r8,r3,r2
80009936:	91 29       	st.w	r8[0x8],r9
80009938:	91 19       	st.w	r8[0x4],r9
8000993a:	66 18       	ld.w	r8,r3[0x4]
8000993c:	f1 d8 c0 01 	bfextu	r8,r8,0x0,0x1
80009940:	e5 e8 10 08 	or	r8,r2,r8
80009944:	87 18       	st.w	r3[0x4],r8
80009946:	58 f2       	cp.w	r2,15
80009948:	e0 88 00 07 	brls	80009956 <_malloc_r+0x3d6>
8000994c:	e6 cb ff f8 	sub	r11,r3,-8
80009950:	0a 9c       	mov	r12,r5
80009952:	fe b0 fb 3b 	rcall	80008fc8 <_free_r>
80009956:	e0 69 09 d4 	mov	r9,2516
8000995a:	72 0a       	ld.w	r10,r9[0x0]
8000995c:	e0 68 09 dc 	mov	r8,2524
80009960:	70 08       	ld.w	r8,r8[0x0]
80009962:	14 38       	cp.w	r8,r10
80009964:	f3 f8 ba 00 	st.whi	r9[0x0],r8
80009968:	e0 69 09 d0 	mov	r9,2512
8000996c:	72 0a       	ld.w	r10,r9[0x0]
8000996e:	14 38       	cp.w	r8,r10
80009970:	f3 f8 ba 00 	st.whi	r9[0x0],r8
80009974:	68 28       	ld.w	r8,r4[0x8]
80009976:	70 18       	ld.w	r8,r8[0x4]
80009978:	e0 18 ff fc 	andl	r8,0xfffc
8000997c:	0e 38       	cp.w	r8,r7
8000997e:	5f 39       	srlo	r9
80009980:	0e 18       	sub	r8,r7
80009982:	58 f8       	cp.w	r8,15
80009984:	5f aa       	srle	r10
80009986:	f5 e9 10 09 	or	r9,r10,r9
8000998a:	c0 50       	breq	80009994 <_malloc_r+0x414>
8000998c:	0a 9c       	mov	r12,r5
8000998e:	c6 ac       	rcall	80009a62 <__malloc_unlock>
80009990:	d8 3a       	popm	r0-r7,pc,r12=0
80009992:	d7 03       	nop
80009994:	68 26       	ld.w	r6,r4[0x8]
80009996:	a1 a8       	sbr	r8,0x0
80009998:	0e 99       	mov	r9,r7
8000999a:	a1 a9       	sbr	r9,0x0
8000999c:	8d 19       	st.w	r6[0x4],r9
8000999e:	ec 07 00 07 	add	r7,r6,r7
800099a2:	0a 9c       	mov	r12,r5
800099a4:	89 27       	st.w	r4[0x8],r7
800099a6:	8f 18       	st.w	r7[0x4],r8
800099a8:	c5 dc       	rcall	80009a62 <__malloc_unlock>
800099aa:	ec cc ff f8 	sub	r12,r6,-8
800099ae:	d8 32       	popm	r0-r7,pc

800099b0 <_mbrtowc_r>:
800099b0:	d4 21       	pushm	r4-r7,lr
800099b2:	18 97       	mov	r7,r12
800099b4:	10 96       	mov	r6,r8
800099b6:	58 0a       	cp.w	r10,0
800099b8:	c0 51       	brne	800099c2 <_mbrtowc_r+0x12>
800099ba:	14 9b       	mov	r11,r10
800099bc:	30 19       	mov	r9,1
800099be:	fe ca c2 32 	sub	r10,pc,-15822
800099c2:	c0 9c       	rcall	800099d4 <_mbtowc_r>
800099c4:	5b fc       	cp.w	r12,-1
800099c6:	c0 61       	brne	800099d2 <_mbrtowc_r+0x22>
800099c8:	30 08       	mov	r8,0
800099ca:	8d 08       	st.w	r6[0x0],r8
800099cc:	e0 68 00 8a 	mov	r8,138
800099d0:	8f 38       	st.w	r7[0xc],r8
800099d2:	d8 22       	popm	r4-r7,pc

800099d4 <_mbtowc_r>:
800099d4:	20 1d       	sub	sp,4
800099d6:	58 09       	cp.w	r9,0
800099d8:	5f 09       	sreq	r9
800099da:	58 0a       	cp.w	r10,0
800099dc:	5f 18       	srne	r8
800099de:	58 0b       	cp.w	r11,0
800099e0:	fa 0b 17 00 	moveq	r11,sp
800099e4:	f3 e8 00 08 	and	r8,r9,r8
800099e8:	30 09       	mov	r9,0
800099ea:	f2 08 18 00 	cp.b	r8,r9
800099ee:	c0 30       	breq	800099f4 <_mbtowc_r+0x20>
800099f0:	3f ec       	mov	r12,-2
800099f2:	c0 b8       	rjmp	80009a08 <_mbtowc_r+0x34>
800099f4:	58 0a       	cp.w	r10,0
800099f6:	c0 31       	brne	800099fc <_mbtowc_r+0x28>
800099f8:	14 9c       	mov	r12,r10
800099fa:	c0 78       	rjmp	80009a08 <_mbtowc_r+0x34>
800099fc:	15 89       	ld.ub	r9,r10[0x0]
800099fe:	97 09       	st.w	r11[0x0],r9
80009a00:	15 89       	ld.ub	r9,r10[0x0]
80009a02:	f0 09 18 00 	cp.b	r9,r8
80009a06:	5f 1c       	srne	r12
80009a08:	2f fd       	sub	sp,-4
80009a0a:	5e fc       	retal	r12

80009a0c <memchr>:
80009a0c:	f7 db c0 08 	bfextu	r11,r11,0x0,0x8
80009a10:	c0 68       	rjmp	80009a1c <memchr+0x10>
80009a12:	20 1a       	sub	r10,1
80009a14:	19 88       	ld.ub	r8,r12[0x0]
80009a16:	16 38       	cp.w	r8,r11
80009a18:	5e 0c       	reteq	r12
80009a1a:	2f fc       	sub	r12,-1
80009a1c:	58 0a       	cp.w	r10,0
80009a1e:	cf a1       	brne	80009a12 <memchr+0x6>
80009a20:	5e fa       	retal	r10

80009a22 <memmove>:
80009a22:	d4 01       	pushm	lr
80009a24:	18 3b       	cp.w	r11,r12
80009a26:	c1 92       	brcc	80009a58 <memmove+0x36>
80009a28:	f6 0a 00 09 	add	r9,r11,r10
80009a2c:	12 3c       	cp.w	r12,r9
80009a2e:	c1 52       	brcc	80009a58 <memmove+0x36>
80009a30:	f8 0a 00 0b 	add	r11,r12,r10
80009a34:	30 08       	mov	r8,0
80009a36:	c0 68       	rjmp	80009a42 <memmove+0x20>
80009a38:	f2 08 07 0e 	ld.ub	lr,r9[r8]
80009a3c:	20 1a       	sub	r10,1
80009a3e:	f6 08 0b 0e 	st.b	r11[r8],lr
80009a42:	20 18       	sub	r8,1
80009a44:	58 0a       	cp.w	r10,0
80009a46:	cf 91       	brne	80009a38 <memmove+0x16>
80009a48:	d8 02       	popm	pc
80009a4a:	f6 08 07 09 	ld.ub	r9,r11[r8]
80009a4e:	20 1a       	sub	r10,1
80009a50:	f8 08 0b 09 	st.b	r12[r8],r9
80009a54:	2f f8       	sub	r8,-1
80009a56:	c0 28       	rjmp	80009a5a <memmove+0x38>
80009a58:	30 08       	mov	r8,0
80009a5a:	58 0a       	cp.w	r10,0
80009a5c:	cf 71       	brne	80009a4a <memmove+0x28>
80009a5e:	d8 02       	popm	pc

80009a60 <__malloc_lock>:
80009a60:	5e fc       	retal	r12

80009a62 <__malloc_unlock>:
80009a62:	5e fc       	retal	r12

80009a64 <__hi0bits>:
80009a64:	18 98       	mov	r8,r12
80009a66:	e0 1c 00 00 	andl	r12,0x0
80009a6a:	f0 09 15 10 	lsl	r9,r8,0x10
80009a6e:	58 0c       	cp.w	r12,0
80009a70:	f2 08 17 00 	moveq	r8,r9
80009a74:	f9 bc 00 10 	moveq	r12,16
80009a78:	f9 bc 01 00 	movne	r12,0
80009a7c:	10 9a       	mov	r10,r8
80009a7e:	f0 09 15 08 	lsl	r9,r8,0x8
80009a82:	e6 1a ff 00 	andh	r10,0xff00,COH
80009a86:	f7 bc 00 f8 	subeq	r12,-8
80009a8a:	f2 08 17 00 	moveq	r8,r9
80009a8e:	10 9a       	mov	r10,r8
80009a90:	f0 09 15 04 	lsl	r9,r8,0x4
80009a94:	e6 1a f0 00 	andh	r10,0xf000,COH
80009a98:	f7 bc 00 fc 	subeq	r12,-4
80009a9c:	f2 08 17 00 	moveq	r8,r9
80009aa0:	10 9a       	mov	r10,r8
80009aa2:	f0 09 15 02 	lsl	r9,r8,0x2
80009aa6:	e6 1a c0 00 	andh	r10,0xc000,COH
80009aaa:	f7 bc 00 fe 	subeq	r12,-2
80009aae:	f2 08 17 00 	moveq	r8,r9
80009ab2:	58 08       	cp.w	r8,0
80009ab4:	5e 5c       	retlt	r12
80009ab6:	ed b8 00 1e 	bld	r8,0x1e
80009aba:	f9 bc 01 20 	movne	r12,32
80009abe:	f7 bc 00 ff 	subeq	r12,-1
80009ac2:	5e fc       	retal	r12

80009ac4 <__lo0bits>:
80009ac4:	18 99       	mov	r9,r12
80009ac6:	78 08       	ld.w	r8,r12[0x0]
80009ac8:	f9 d8 c0 03 	bfextu	r12,r8,0x0,0x3
80009acc:	c1 50       	breq	80009af6 <__lo0bits+0x32>
80009ace:	ed b8 00 00 	bld	r8,0x0
80009ad2:	c0 21       	brne	80009ad6 <__lo0bits+0x12>
80009ad4:	5e fd       	retal	0
80009ad6:	10 9b       	mov	r11,r8
80009ad8:	f0 0a 16 01 	lsr	r10,r8,0x1
80009adc:	e2 1b 00 02 	andl	r11,0x2,COH
80009ae0:	a3 88       	lsr	r8,0x2
80009ae2:	58 0b       	cp.w	r11,0
80009ae4:	f3 fa 1a 00 	st.wne	r9[0x0],r10
80009ae8:	f9 bc 01 01 	movne	r12,1
80009aec:	f3 f8 0a 00 	st.weq	r9[0x0],r8
80009af0:	f9 bc 00 02 	moveq	r12,2
80009af4:	5e fc       	retal	r12
80009af6:	f5 d8 c0 10 	bfextu	r10,r8,0x0,0x10
80009afa:	f0 0b 16 10 	lsr	r11,r8,0x10
80009afe:	58 0a       	cp.w	r10,0
80009b00:	f6 08 17 00 	moveq	r8,r11
80009b04:	f9 bc 00 10 	moveq	r12,16
80009b08:	f7 d8 c0 08 	bfextu	r11,r8,0x0,0x8
80009b0c:	f0 0a 16 08 	lsr	r10,r8,0x8
80009b10:	58 0b       	cp.w	r11,0
80009b12:	f7 bc 00 f8 	subeq	r12,-8
80009b16:	f4 08 17 00 	moveq	r8,r10
80009b1a:	f7 d8 c0 04 	bfextu	r11,r8,0x0,0x4
80009b1e:	f0 0a 16 04 	lsr	r10,r8,0x4
80009b22:	58 0b       	cp.w	r11,0
80009b24:	f7 bc 00 fc 	subeq	r12,-4
80009b28:	f4 08 17 00 	moveq	r8,r10
80009b2c:	f7 d8 c0 02 	bfextu	r11,r8,0x0,0x2
80009b30:	f0 0a 16 02 	lsr	r10,r8,0x2
80009b34:	58 0b       	cp.w	r11,0
80009b36:	f7 bc 00 fe 	subeq	r12,-2
80009b3a:	f4 08 17 00 	moveq	r8,r10
80009b3e:	ed b8 00 00 	bld	r8,0x0
80009b42:	c0 60       	breq	80009b4e <__lo0bits+0x8a>
80009b44:	a1 98       	lsr	r8,0x1
80009b46:	c0 31       	brne	80009b4c <__lo0bits+0x88>
80009b48:	32 0c       	mov	r12,32
80009b4a:	5e fc       	retal	r12
80009b4c:	2f fc       	sub	r12,-1
80009b4e:	93 08       	st.w	r9[0x0],r8
80009b50:	5e fc       	retal	r12

80009b52 <__mcmp>:
80009b52:	d4 01       	pushm	lr
80009b54:	18 98       	mov	r8,r12
80009b56:	76 49       	ld.w	r9,r11[0x10]
80009b58:	78 4c       	ld.w	r12,r12[0x10]
80009b5a:	12 1c       	sub	r12,r9
80009b5c:	c1 31       	brne	80009b82 <__mcmp+0x30>
80009b5e:	2f b9       	sub	r9,-5
80009b60:	a3 69       	lsl	r9,0x2
80009b62:	12 0b       	add	r11,r9
80009b64:	f0 09 00 09 	add	r9,r8,r9
80009b68:	2e c8       	sub	r8,-20
80009b6a:	13 4e       	ld.w	lr,--r9
80009b6c:	17 4a       	ld.w	r10,--r11
80009b6e:	14 3e       	cp.w	lr,r10
80009b70:	c0 60       	breq	80009b7c <__mcmp+0x2a>
80009b72:	f9 bc 03 ff 	movlo	r12,-1
80009b76:	f9 bc 02 01 	movhs	r12,1
80009b7a:	d8 02       	popm	pc
80009b7c:	10 39       	cp.w	r9,r8
80009b7e:	fe 9b ff f6 	brhi	80009b6a <__mcmp+0x18>
80009b82:	d8 02       	popm	pc

80009b84 <__ulp>:
80009b84:	e6 1b 7f f0 	andh	r11,0x7ff0,COH
80009b88:	fc 18 fc c0 	movh	r8,0xfcc0
80009b8c:	f6 08 00 08 	add	r8,r11,r8
80009b90:	58 08       	cp.w	r8,0
80009b92:	e0 8a 00 04 	brle	80009b9a <__ulp+0x16>
80009b96:	10 9b       	mov	r11,r8
80009b98:	c0 a8       	rjmp	80009bac <__ulp+0x28>
80009b9a:	5c 38       	neg	r8
80009b9c:	b5 48       	asr	r8,0x14
80009b9e:	59 38       	cp.w	r8,19
80009ba0:	e0 89 00 08 	brgt	80009bb0 <__ulp+0x2c>
80009ba4:	e8 69 00 00 	mov	r9,524288
80009ba8:	f2 08 08 4b 	asr	r11,r9,r8
80009bac:	30 0a       	mov	r10,0
80009bae:	5e fc       	retal	r12
80009bb0:	21 48       	sub	r8,20
80009bb2:	59 e8       	cp.w	r8,30
80009bb4:	e0 8a 00 04 	brle	80009bbc <__ulp+0x38>
80009bb8:	30 18       	mov	r8,1
80009bba:	c0 68       	rjmp	80009bc6 <__ulp+0x42>
80009bbc:	f0 08 11 1f 	rsub	r8,r8,31
80009bc0:	30 19       	mov	r9,1
80009bc2:	f2 08 09 48 	lsl	r8,r9,r8
80009bc6:	30 0b       	mov	r11,0
80009bc8:	10 9a       	mov	r10,r8
80009bca:	5e fc       	retal	r12

80009bcc <__b2d>:
80009bcc:	d4 21       	pushm	r4-r7,lr
80009bce:	78 47       	ld.w	r7,r12[0x10]
80009bd0:	16 94       	mov	r4,r11
80009bd2:	2f b7       	sub	r7,-5
80009bd4:	f8 c5 ff ec 	sub	r5,r12,-20
80009bd8:	f8 07 00 27 	add	r7,r12,r7<<0x2
80009bdc:	0f 46       	ld.w	r6,--r7
80009bde:	0c 9c       	mov	r12,r6
80009be0:	c4 2f       	rcall	80009a64 <__hi0bits>
80009be2:	f8 08 11 20 	rsub	r8,r12,32
80009be6:	89 08       	st.w	r4[0x0],r8
80009be8:	58 ac       	cp.w	r12,10
80009bea:	e0 89 00 18 	brgt	80009c1a <__b2d+0x4e>
80009bee:	f8 08 11 0b 	rsub	r8,r12,11
80009bf2:	0a 37       	cp.w	r7,r5
80009bf4:	e0 8b 00 04 	brhi	80009bfc <__b2d+0x30>
80009bf8:	30 09       	mov	r9,0
80009bfa:	c0 38       	rjmp	80009c00 <__b2d+0x34>
80009bfc:	ee f9 ff fc 	ld.w	r9,r7[-4]
80009c00:	f2 08 0a 49 	lsr	r9,r9,r8
80009c04:	2e bc       	sub	r12,-21
80009c06:	ec 0c 09 4c 	lsl	r12,r6,r12
80009c0a:	ec 08 0a 46 	lsr	r6,r6,r8
80009c0e:	f3 ec 10 0a 	or	r10,r9,r12
80009c12:	0c 9b       	mov	r11,r6
80009c14:	ea 1b 3f f0 	orh	r11,0x3ff0
80009c18:	d8 22       	popm	r4-r7,pc
80009c1a:	0a 37       	cp.w	r7,r5
80009c1c:	e0 8b 00 04 	brhi	80009c24 <__b2d+0x58>
80009c20:	30 08       	mov	r8,0
80009c22:	c0 28       	rjmp	80009c26 <__b2d+0x5a>
80009c24:	0f 48       	ld.w	r8,--r7
80009c26:	20 bc       	sub	r12,11
80009c28:	c1 90       	breq	80009c5a <__b2d+0x8e>
80009c2a:	f8 09 11 20 	rsub	r9,r12,32
80009c2e:	0a 37       	cp.w	r7,r5
80009c30:	e0 8b 00 04 	brhi	80009c38 <__b2d+0x6c>
80009c34:	30 0a       	mov	r10,0
80009c36:	c0 38       	rjmp	80009c3c <__b2d+0x70>
80009c38:	ee fa ff fc 	ld.w	r10,r7[-4]
80009c3c:	f0 0c 09 47 	lsl	r7,r8,r12
80009c40:	f4 09 0a 45 	lsr	r5,r10,r9
80009c44:	ec 0c 09 4c 	lsl	r12,r6,r12
80009c48:	f0 09 0a 48 	lsr	r8,r8,r9
80009c4c:	ea 1c 3f f0 	orh	r12,0x3ff0
80009c50:	eb e7 10 0a 	or	r10,r5,r7
80009c54:	f9 e8 10 0b 	or	r11,r12,r8
80009c58:	d8 22       	popm	r4-r7,pc
80009c5a:	0c 9b       	mov	r11,r6
80009c5c:	10 9a       	mov	r10,r8
80009c5e:	ea 1b 3f f0 	orh	r11,0x3ff0
80009c62:	d8 22       	popm	r4-r7,pc

80009c64 <__ratio>:
80009c64:	d4 21       	pushm	r4-r7,lr
80009c66:	20 2d       	sub	sp,8
80009c68:	16 95       	mov	r5,r11
80009c6a:	18 94       	mov	r4,r12
80009c6c:	fa cb ff fc 	sub	r11,sp,-4
80009c70:	ca ef       	rcall	80009bcc <__b2d>
80009c72:	16 99       	mov	r9,r11
80009c74:	0a 9c       	mov	r12,r5
80009c76:	12 97       	mov	r7,r9
80009c78:	14 96       	mov	r6,r10
80009c7a:	1a 9b       	mov	r11,sp
80009c7c:	ca 8f       	rcall	80009bcc <__b2d>
80009c7e:	14 98       	mov	r8,r10
80009c80:	6a 4a       	ld.w	r10,r5[0x10]
80009c82:	16 99       	mov	r9,r11
80009c84:	40 1c       	lddsp	r12,sp[0x4]
80009c86:	68 4b       	ld.w	r11,r4[0x10]
80009c88:	14 1b       	sub	r11,r10
80009c8a:	40 0a       	lddsp	r10,sp[0x0]
80009c8c:	a5 7b       	lsl	r11,0x5
80009c8e:	f8 0a 01 0a 	sub	r10,r12,r10
80009c92:	16 0a       	add	r10,r11
80009c94:	58 0a       	cp.w	r10,0
80009c96:	e0 8a 00 06 	brle	80009ca2 <__ratio+0x3e>
80009c9a:	b5 6a       	lsl	r10,0x14
80009c9c:	0e 0a       	add	r10,r7
80009c9e:	14 97       	mov	r7,r10
80009ca0:	c0 38       	rjmp	80009ca6 <__ratio+0x42>
80009ca2:	b5 6a       	lsl	r10,0x14
80009ca4:	14 19       	sub	r9,r10
80009ca6:	0c 9a       	mov	r10,r6
80009ca8:	0e 9b       	mov	r11,r7
80009caa:	e0 a0 17 05 	rcall	8000cab4 <__avr32_f64_div>
80009cae:	2f ed       	sub	sp,-8
80009cb0:	d8 22       	popm	r4-r7,pc
80009cb2:	d7 03       	nop

80009cb4 <__copybits>:
80009cb4:	74 48       	ld.w	r8,r10[0x10]
80009cb6:	f6 c9 00 01 	sub	r9,r11,1
80009cba:	2f b8       	sub	r8,-5
80009cbc:	a5 59       	asr	r9,0x5
80009cbe:	f4 08 00 28 	add	r8,r10,r8<<0x2
80009cc2:	2f f9       	sub	r9,-1
80009cc4:	2e ca       	sub	r10,-20
80009cc6:	f8 09 00 29 	add	r9,r12,r9<<0x2
80009cca:	c0 38       	rjmp	80009cd0 <__copybits+0x1c>
80009ccc:	15 0b       	ld.w	r11,r10++
80009cce:	18 ab       	st.w	r12++,r11
80009cd0:	10 3a       	cp.w	r10,r8
80009cd2:	cf d3       	brcs	80009ccc <__copybits+0x18>
80009cd4:	c0 38       	rjmp	80009cda <__copybits+0x26>
80009cd6:	18 a8       	st.w	r12++,r8
80009cd8:	c0 28       	rjmp	80009cdc <__copybits+0x28>
80009cda:	30 08       	mov	r8,0
80009cdc:	12 3c       	cp.w	r12,r9
80009cde:	cf c3       	brcs	80009cd6 <__copybits+0x22>
80009ce0:	5e fc       	retal	r12

80009ce2 <__any_on>:
80009ce2:	d4 01       	pushm	lr
80009ce4:	f8 ca ff ec 	sub	r10,r12,-20
80009ce8:	78 49       	ld.w	r9,r12[0x10]
80009cea:	f6 08 14 05 	asr	r8,r11,0x5
80009cee:	12 38       	cp.w	r8,r9
80009cf0:	e0 8a 00 04 	brle	80009cf8 <__any_on+0x16>
80009cf4:	12 98       	mov	r8,r9
80009cf6:	c1 08       	rjmp	80009d16 <__any_on+0x34>
80009cf8:	12 38       	cp.w	r8,r9
80009cfa:	c0 e4       	brge	80009d16 <__any_on+0x34>
80009cfc:	f7 db c0 05 	bfextu	r11,r11,0x0,0x5
80009d00:	c0 b0       	breq	80009d16 <__any_on+0x34>
80009d02:	f0 c9 ff fb 	sub	r9,r8,-5
80009d06:	f8 09 03 29 	ld.w	r9,r12[r9<<0x2]
80009d0a:	f2 0b 0a 4e 	lsr	lr,r9,r11
80009d0e:	fc 0b 09 4b 	lsl	r11,lr,r11
80009d12:	12 3b       	cp.w	r11,r9
80009d14:	c0 c1       	brne	80009d2c <__any_on+0x4a>
80009d16:	2f b8       	sub	r8,-5
80009d18:	f8 08 00 2c 	add	r12,r12,r8<<0x2
80009d1c:	c0 48       	rjmp	80009d24 <__any_on+0x42>
80009d1e:	19 48       	ld.w	r8,--r12
80009d20:	58 08       	cp.w	r8,0
80009d22:	c0 51       	brne	80009d2c <__any_on+0x4a>
80009d24:	14 3c       	cp.w	r12,r10
80009d26:	fe 9b ff fc 	brhi	80009d1e <__any_on+0x3c>
80009d2a:	d8 0a       	popm	pc,r12=0
80009d2c:	da 0a       	popm	pc,r12=1
80009d2e:	d7 03       	nop

80009d30 <_Bfree>:
80009d30:	d4 21       	pushm	r4-r7,lr
80009d32:	18 97       	mov	r7,r12
80009d34:	16 95       	mov	r5,r11
80009d36:	78 96       	ld.w	r6,r12[0x24]
80009d38:	58 06       	cp.w	r6,0
80009d3a:	c0 91       	brne	80009d4c <_Bfree+0x1c>
80009d3c:	31 0c       	mov	r12,16
80009d3e:	fe b0 fc 19 	rcall	80009570 <malloc>
80009d42:	99 36       	st.w	r12[0xc],r6
80009d44:	8f 9c       	st.w	r7[0x24],r12
80009d46:	99 16       	st.w	r12[0x4],r6
80009d48:	99 26       	st.w	r12[0x8],r6
80009d4a:	99 06       	st.w	r12[0x0],r6
80009d4c:	58 05       	cp.w	r5,0
80009d4e:	c0 90       	breq	80009d60 <_Bfree+0x30>
80009d50:	6a 19       	ld.w	r9,r5[0x4]
80009d52:	6e 98       	ld.w	r8,r7[0x24]
80009d54:	70 38       	ld.w	r8,r8[0xc]
80009d56:	f0 09 03 2a 	ld.w	r10,r8[r9<<0x2]
80009d5a:	8b 0a       	st.w	r5[0x0],r10
80009d5c:	f0 09 09 25 	st.w	r8[r9<<0x2],r5
80009d60:	d8 22       	popm	r4-r7,pc
80009d62:	d7 03       	nop

80009d64 <_Balloc>:
80009d64:	d4 21       	pushm	r4-r7,lr
80009d66:	18 97       	mov	r7,r12
80009d68:	16 96       	mov	r6,r11
80009d6a:	78 95       	ld.w	r5,r12[0x24]
80009d6c:	58 05       	cp.w	r5,0
80009d6e:	c0 91       	brne	80009d80 <_Balloc+0x1c>
80009d70:	31 0c       	mov	r12,16
80009d72:	fe b0 fb ff 	rcall	80009570 <malloc>
80009d76:	99 35       	st.w	r12[0xc],r5
80009d78:	8f 9c       	st.w	r7[0x24],r12
80009d7a:	99 15       	st.w	r12[0x4],r5
80009d7c:	99 25       	st.w	r12[0x8],r5
80009d7e:	99 05       	st.w	r12[0x0],r5
80009d80:	6e 95       	ld.w	r5,r7[0x24]
80009d82:	6a 38       	ld.w	r8,r5[0xc]
80009d84:	58 08       	cp.w	r8,0
80009d86:	c0 b1       	brne	80009d9c <_Balloc+0x38>
80009d88:	31 0a       	mov	r10,16
80009d8a:	30 4b       	mov	r11,4
80009d8c:	0e 9c       	mov	r12,r7
80009d8e:	e0 a0 0f 37 	rcall	8000bbfc <_calloc_r>
80009d92:	8b 3c       	st.w	r5[0xc],r12
80009d94:	6e 98       	ld.w	r8,r7[0x24]
80009d96:	70 3c       	ld.w	r12,r8[0xc]
80009d98:	58 0c       	cp.w	r12,0
80009d9a:	c1 b0       	breq	80009dd0 <_Balloc+0x6c>
80009d9c:	6e 98       	ld.w	r8,r7[0x24]
80009d9e:	70 38       	ld.w	r8,r8[0xc]
80009da0:	f0 06 00 28 	add	r8,r8,r6<<0x2
80009da4:	70 0c       	ld.w	r12,r8[0x0]
80009da6:	58 0c       	cp.w	r12,0
80009da8:	c0 40       	breq	80009db0 <_Balloc+0x4c>
80009daa:	78 09       	ld.w	r9,r12[0x0]
80009dac:	91 09       	st.w	r8[0x0],r9
80009dae:	c0 e8       	rjmp	80009dca <_Balloc+0x66>
80009db0:	0e 9c       	mov	r12,r7
80009db2:	30 17       	mov	r7,1
80009db4:	0e 9b       	mov	r11,r7
80009db6:	ee 06 09 47 	lsl	r7,r7,r6
80009dba:	ee ca ff fb 	sub	r10,r7,-5
80009dbe:	a3 6a       	lsl	r10,0x2
80009dc0:	e0 a0 0f 1e 	rcall	8000bbfc <_calloc_r>
80009dc4:	c0 60       	breq	80009dd0 <_Balloc+0x6c>
80009dc6:	99 16       	st.w	r12[0x4],r6
80009dc8:	99 27       	st.w	r12[0x8],r7
80009dca:	30 08       	mov	r8,0
80009dcc:	99 38       	st.w	r12[0xc],r8
80009dce:	99 48       	st.w	r12[0x10],r8
80009dd0:	d8 22       	popm	r4-r7,pc
80009dd2:	d7 03       	nop

80009dd4 <__d2b>:
80009dd4:	d4 31       	pushm	r0-r7,lr
80009dd6:	20 2d       	sub	sp,8
80009dd8:	16 93       	mov	r3,r11
80009dda:	12 96       	mov	r6,r9
80009ddc:	10 95       	mov	r5,r8
80009dde:	14 92       	mov	r2,r10
80009de0:	30 1b       	mov	r11,1
80009de2:	cc 1f       	rcall	80009d64 <_Balloc>
80009de4:	f3 d3 c0 14 	bfextu	r9,r3,0x0,0x14
80009de8:	50 09       	stdsp	sp[0x0],r9
80009dea:	f1 d3 c0 1f 	bfextu	r8,r3,0x0,0x1f
80009dee:	b5 a9       	sbr	r9,0x14
80009df0:	f0 01 16 14 	lsr	r1,r8,0x14
80009df4:	fb f9 1a 00 	st.wne	sp[0x0],r9
80009df8:	18 94       	mov	r4,r12
80009dfa:	58 02       	cp.w	r2,0
80009dfc:	c1 d0       	breq	80009e36 <__d2b+0x62>
80009dfe:	fa cc ff f8 	sub	r12,sp,-8
80009e02:	18 d2       	st.w	--r12,r2
80009e04:	c6 0e       	rcall	80009ac4 <__lo0bits>
80009e06:	40 18       	lddsp	r8,sp[0x4]
80009e08:	c0 d0       	breq	80009e22 <__d2b+0x4e>
80009e0a:	40 09       	lddsp	r9,sp[0x0]
80009e0c:	f8 0a 11 20 	rsub	r10,r12,32
80009e10:	f2 0a 09 4a 	lsl	r10,r9,r10
80009e14:	f5 e8 10 08 	or	r8,r10,r8
80009e18:	89 58       	st.w	r4[0x14],r8
80009e1a:	f2 0c 0a 49 	lsr	r9,r9,r12
80009e1e:	50 09       	stdsp	sp[0x0],r9
80009e20:	c0 28       	rjmp	80009e24 <__d2b+0x50>
80009e22:	89 58       	st.w	r4[0x14],r8
80009e24:	40 08       	lddsp	r8,sp[0x0]
80009e26:	58 08       	cp.w	r8,0
80009e28:	f9 b3 01 02 	movne	r3,2
80009e2c:	f9 b3 00 01 	moveq	r3,1
80009e30:	89 68       	st.w	r4[0x18],r8
80009e32:	89 43       	st.w	r4[0x10],r3
80009e34:	c0 88       	rjmp	80009e44 <__d2b+0x70>
80009e36:	1a 9c       	mov	r12,sp
80009e38:	c4 6e       	rcall	80009ac4 <__lo0bits>
80009e3a:	30 13       	mov	r3,1
80009e3c:	40 08       	lddsp	r8,sp[0x0]
80009e3e:	2e 0c       	sub	r12,-32
80009e40:	89 43       	st.w	r4[0x10],r3
80009e42:	89 58       	st.w	r4[0x14],r8
80009e44:	58 01       	cp.w	r1,0
80009e46:	c0 90       	breq	80009e58 <__d2b+0x84>
80009e48:	e2 c1 04 33 	sub	r1,r1,1075
80009e4c:	18 01       	add	r1,r12
80009e4e:	8d 01       	st.w	r6[0x0],r1
80009e50:	f8 0c 11 35 	rsub	r12,r12,53
80009e54:	8b 0c       	st.w	r5[0x0],r12
80009e56:	c0 d8       	rjmp	80009e70 <__d2b+0x9c>
80009e58:	e6 c8 ff fc 	sub	r8,r3,-4
80009e5c:	f8 cc 04 32 	sub	r12,r12,1074
80009e60:	a5 73       	lsl	r3,0x5
80009e62:	8d 0c       	st.w	r6[0x0],r12
80009e64:	e8 08 03 2c 	ld.w	r12,r4[r8<<0x2]
80009e68:	fe b0 fd fe 	rcall	80009a64 <__hi0bits>
80009e6c:	18 13       	sub	r3,r12
80009e6e:	8b 03       	st.w	r5[0x0],r3
80009e70:	08 9c       	mov	r12,r4
80009e72:	2f ed       	sub	sp,-8
80009e74:	d8 32       	popm	r0-r7,pc
80009e76:	d7 03       	nop

80009e78 <__mdiff>:
80009e78:	d4 31       	pushm	r0-r7,lr
80009e7a:	74 48       	ld.w	r8,r10[0x10]
80009e7c:	76 45       	ld.w	r5,r11[0x10]
80009e7e:	16 97       	mov	r7,r11
80009e80:	14 96       	mov	r6,r10
80009e82:	10 15       	sub	r5,r8
80009e84:	c1 31       	brne	80009eaa <__mdiff+0x32>
80009e86:	2f b8       	sub	r8,-5
80009e88:	ee ce ff ec 	sub	lr,r7,-20
80009e8c:	a3 68       	lsl	r8,0x2
80009e8e:	f4 08 00 0b 	add	r11,r10,r8
80009e92:	ee 08 00 08 	add	r8,r7,r8
80009e96:	11 4a       	ld.w	r10,--r8
80009e98:	17 49       	ld.w	r9,--r11
80009e9a:	12 3a       	cp.w	r10,r9
80009e9c:	c0 30       	breq	80009ea2 <__mdiff+0x2a>
80009e9e:	c0 e2       	brcc	80009eba <__mdiff+0x42>
80009ea0:	c0 78       	rjmp	80009eae <__mdiff+0x36>
80009ea2:	1c 38       	cp.w	r8,lr
80009ea4:	fe 9b ff f9 	brhi	80009e96 <__mdiff+0x1e>
80009ea8:	c4 98       	rjmp	80009f3a <__mdiff+0xc2>
80009eaa:	58 05       	cp.w	r5,0
80009eac:	c0 64       	brge	80009eb8 <__mdiff+0x40>
80009eae:	0e 98       	mov	r8,r7
80009eb0:	30 15       	mov	r5,1
80009eb2:	0c 97       	mov	r7,r6
80009eb4:	10 96       	mov	r6,r8
80009eb6:	c0 28       	rjmp	80009eba <__mdiff+0x42>
80009eb8:	30 05       	mov	r5,0
80009eba:	6e 1b       	ld.w	r11,r7[0x4]
80009ebc:	c5 4f       	rcall	80009d64 <_Balloc>
80009ebe:	6e 49       	ld.w	r9,r7[0x10]
80009ec0:	6c 44       	ld.w	r4,r6[0x10]
80009ec2:	99 35       	st.w	r12[0xc],r5
80009ec4:	2f b4       	sub	r4,-5
80009ec6:	f2 c5 ff fb 	sub	r5,r9,-5
80009eca:	ec 04 00 24 	add	r4,r6,r4<<0x2
80009ece:	ee 05 00 25 	add	r5,r7,r5<<0x2
80009ed2:	2e c6       	sub	r6,-20
80009ed4:	2e c7       	sub	r7,-20
80009ed6:	f8 c8 ff ec 	sub	r8,r12,-20
80009eda:	30 0a       	mov	r10,0
80009edc:	0f 0e       	ld.w	lr,r7++
80009ede:	0d 0b       	ld.w	r11,r6++
80009ee0:	fc 02 16 10 	lsr	r2,lr,0x10
80009ee4:	f6 03 16 10 	lsr	r3,r11,0x10
80009ee8:	fd de c0 10 	bfextu	lr,lr,0x0,0x10
80009eec:	e4 03 01 03 	sub	r3,r2,r3
80009ef0:	f7 db c0 10 	bfextu	r11,r11,0x0,0x10
80009ef4:	fc 0b 01 0b 	sub	r11,lr,r11
80009ef8:	f6 0a 00 0a 	add	r10,r11,r10
80009efc:	b0 1a       	st.h	r8[0x2],r10
80009efe:	b1 4a       	asr	r10,0x10
80009f00:	e6 0a 00 0a 	add	r10,r3,r10
80009f04:	b0 0a       	st.h	r8[0x0],r10
80009f06:	2f c8       	sub	r8,-4
80009f08:	b1 4a       	asr	r10,0x10
80009f0a:	08 36       	cp.w	r6,r4
80009f0c:	ce 83       	brcs	80009edc <__mdiff+0x64>
80009f0e:	c0 d8       	rjmp	80009f28 <__mdiff+0xb0>
80009f10:	0f 0b       	ld.w	r11,r7++
80009f12:	f6 0e 16 10 	lsr	lr,r11,0x10
80009f16:	f7 db c0 10 	bfextu	r11,r11,0x0,0x10
80009f1a:	16 0a       	add	r10,r11
80009f1c:	b0 1a       	st.h	r8[0x2],r10
80009f1e:	b1 4a       	asr	r10,0x10
80009f20:	1c 0a       	add	r10,lr
80009f22:	b0 0a       	st.h	r8[0x0],r10
80009f24:	2f c8       	sub	r8,-4
80009f26:	b1 4a       	asr	r10,0x10
80009f28:	0a 37       	cp.w	r7,r5
80009f2a:	cf 33       	brcs	80009f10 <__mdiff+0x98>
80009f2c:	c0 28       	rjmp	80009f30 <__mdiff+0xb8>
80009f2e:	20 19       	sub	r9,1
80009f30:	11 4a       	ld.w	r10,--r8
80009f32:	58 0a       	cp.w	r10,0
80009f34:	cf d0       	breq	80009f2e <__mdiff+0xb6>
80009f36:	99 49       	st.w	r12[0x10],r9
80009f38:	d8 32       	popm	r0-r7,pc
80009f3a:	30 0b       	mov	r11,0
80009f3c:	c1 4f       	rcall	80009d64 <_Balloc>
80009f3e:	30 18       	mov	r8,1
80009f40:	99 48       	st.w	r12[0x10],r8
80009f42:	30 08       	mov	r8,0
80009f44:	99 58       	st.w	r12[0x14],r8
80009f46:	d8 32       	popm	r0-r7,pc

80009f48 <__lshift>:
80009f48:	d4 31       	pushm	r0-r7,lr
80009f4a:	16 97       	mov	r7,r11
80009f4c:	76 46       	ld.w	r6,r11[0x10]
80009f4e:	f4 02 14 05 	asr	r2,r10,0x5
80009f52:	2f f6       	sub	r6,-1
80009f54:	14 93       	mov	r3,r10
80009f56:	18 94       	mov	r4,r12
80009f58:	04 06       	add	r6,r2
80009f5a:	76 1b       	ld.w	r11,r11[0x4]
80009f5c:	6e 28       	ld.w	r8,r7[0x8]
80009f5e:	c0 38       	rjmp	80009f64 <__lshift+0x1c>
80009f60:	2f fb       	sub	r11,-1
80009f62:	a1 78       	lsl	r8,0x1
80009f64:	10 36       	cp.w	r6,r8
80009f66:	fe 99 ff fd 	brgt	80009f60 <__lshift+0x18>
80009f6a:	08 9c       	mov	r12,r4
80009f6c:	cf ce       	rcall	80009d64 <_Balloc>
80009f6e:	30 09       	mov	r9,0
80009f70:	18 95       	mov	r5,r12
80009f72:	f8 c8 ff ec 	sub	r8,r12,-20
80009f76:	12 9a       	mov	r10,r9
80009f78:	c0 38       	rjmp	80009f7e <__lshift+0x36>
80009f7a:	10 aa       	st.w	r8++,r10
80009f7c:	2f f9       	sub	r9,-1
80009f7e:	04 39       	cp.w	r9,r2
80009f80:	cf d5       	brlt	80009f7a <__lshift+0x32>
80009f82:	6e 4b       	ld.w	r11,r7[0x10]
80009f84:	e7 d3 c0 05 	bfextu	r3,r3,0x0,0x5
80009f88:	2f bb       	sub	r11,-5
80009f8a:	ee c9 ff ec 	sub	r9,r7,-20
80009f8e:	ee 0b 00 2b 	add	r11,r7,r11<<0x2
80009f92:	58 03       	cp.w	r3,0
80009f94:	c1 30       	breq	80009fba <__lshift+0x72>
80009f96:	e6 0c 11 20 	rsub	r12,r3,32
80009f9a:	30 0a       	mov	r10,0
80009f9c:	72 02       	ld.w	r2,r9[0x0]
80009f9e:	e4 03 09 42 	lsl	r2,r2,r3
80009fa2:	04 4a       	or	r10,r2
80009fa4:	10 aa       	st.w	r8++,r10
80009fa6:	13 0a       	ld.w	r10,r9++
80009fa8:	f4 0c 0a 4a 	lsr	r10,r10,r12
80009fac:	16 39       	cp.w	r9,r11
80009fae:	cf 73       	brcs	80009f9c <__lshift+0x54>
80009fb0:	91 0a       	st.w	r8[0x0],r10
80009fb2:	58 0a       	cp.w	r10,0
80009fb4:	c0 70       	breq	80009fc2 <__lshift+0x7a>
80009fb6:	2f f6       	sub	r6,-1
80009fb8:	c0 58       	rjmp	80009fc2 <__lshift+0x7a>
80009fba:	13 0a       	ld.w	r10,r9++
80009fbc:	10 aa       	st.w	r8++,r10
80009fbe:	16 39       	cp.w	r9,r11
80009fc0:	cf d3       	brcs	80009fba <__lshift+0x72>
80009fc2:	08 9c       	mov	r12,r4
80009fc4:	20 16       	sub	r6,1
80009fc6:	0e 9b       	mov	r11,r7
80009fc8:	8b 46       	st.w	r5[0x10],r6
80009fca:	cb 3e       	rcall	80009d30 <_Bfree>
80009fcc:	0a 9c       	mov	r12,r5
80009fce:	d8 32       	popm	r0-r7,pc

80009fd0 <__multiply>:
80009fd0:	d4 31       	pushm	r0-r7,lr
80009fd2:	20 2d       	sub	sp,8
80009fd4:	76 49       	ld.w	r9,r11[0x10]
80009fd6:	74 48       	ld.w	r8,r10[0x10]
80009fd8:	16 96       	mov	r6,r11
80009fda:	14 95       	mov	r5,r10
80009fdc:	10 39       	cp.w	r9,r8
80009fde:	ec 08 17 50 	movlt	r8,r6
80009fe2:	ea 06 17 50 	movlt	r6,r5
80009fe6:	f0 05 17 50 	movlt	r5,r8
80009fea:	6c 28       	ld.w	r8,r6[0x8]
80009fec:	76 43       	ld.w	r3,r11[0x10]
80009fee:	74 42       	ld.w	r2,r10[0x10]
80009ff0:	76 1b       	ld.w	r11,r11[0x4]
80009ff2:	e4 03 00 07 	add	r7,r2,r3
80009ff6:	10 37       	cp.w	r7,r8
80009ff8:	f7 bb 09 ff 	subgt	r11,-1
80009ffc:	cb 4e       	rcall	80009d64 <_Balloc>
80009ffe:	ee c4 ff fb 	sub	r4,r7,-5
8000a002:	f8 c9 ff ec 	sub	r9,r12,-20
8000a006:	f8 04 00 24 	add	r4,r12,r4<<0x2
8000a00a:	30 0a       	mov	r10,0
8000a00c:	12 98       	mov	r8,r9
8000a00e:	c0 28       	rjmp	8000a012 <__multiply+0x42>
8000a010:	10 aa       	st.w	r8++,r10
8000a012:	08 38       	cp.w	r8,r4
8000a014:	cf e3       	brcs	8000a010 <__multiply+0x40>
8000a016:	2f b3       	sub	r3,-5
8000a018:	2f b2       	sub	r2,-5
8000a01a:	ec 03 00 23 	add	r3,r6,r3<<0x2
8000a01e:	ea 02 00 22 	add	r2,r5,r2<<0x2
8000a022:	ec cb ff ec 	sub	r11,r6,-20
8000a026:	50 12       	stdsp	sp[0x4],r2
8000a028:	ea ca ff ec 	sub	r10,r5,-20
8000a02c:	c4 48       	rjmp	8000a0b4 <__multiply+0xe4>
8000a02e:	94 95       	ld.uh	r5,r10[0x2]
8000a030:	58 05       	cp.w	r5,0
8000a032:	c2 00       	breq	8000a072 <__multiply+0xa2>
8000a034:	12 98       	mov	r8,r9
8000a036:	16 96       	mov	r6,r11
8000a038:	30 0e       	mov	lr,0
8000a03a:	50 09       	stdsp	sp[0x0],r9
8000a03c:	0d 02       	ld.w	r2,r6++
8000a03e:	e4 00 16 10 	lsr	r0,r2,0x10
8000a042:	70 01       	ld.w	r1,r8[0x0]
8000a044:	70 09       	ld.w	r9,r8[0x0]
8000a046:	b1 81       	lsr	r1,0x10
8000a048:	e5 d2 c0 10 	bfextu	r2,r2,0x0,0x10
8000a04c:	e0 05 03 41 	mac	r1,r0,r5
8000a050:	ab 32       	mul	r2,r5
8000a052:	e1 d9 c0 10 	bfextu	r0,r9,0x0,0x10
8000a056:	00 02       	add	r2,r0
8000a058:	e4 0e 00 0e 	add	lr,r2,lr
8000a05c:	b0 1e       	st.h	r8[0x2],lr
8000a05e:	b1 8e       	lsr	lr,0x10
8000a060:	1c 01       	add	r1,lr
8000a062:	b0 01       	st.h	r8[0x0],r1
8000a064:	e2 0e 16 10 	lsr	lr,r1,0x10
8000a068:	2f c8       	sub	r8,-4
8000a06a:	06 36       	cp.w	r6,r3
8000a06c:	ce 83       	brcs	8000a03c <__multiply+0x6c>
8000a06e:	40 09       	lddsp	r9,sp[0x0]
8000a070:	91 0e       	st.w	r8[0x0],lr
8000a072:	94 86       	ld.uh	r6,r10[0x0]
8000a074:	58 06       	cp.w	r6,0
8000a076:	c1 d0       	breq	8000a0b0 <__multiply+0xe0>
8000a078:	72 02       	ld.w	r2,r9[0x0]
8000a07a:	12 98       	mov	r8,r9
8000a07c:	16 9e       	mov	lr,r11
8000a07e:	30 05       	mov	r5,0
8000a080:	b0 12       	st.h	r8[0x2],r2
8000a082:	1d 01       	ld.w	r1,lr++
8000a084:	90 82       	ld.uh	r2,r8[0x0]
8000a086:	e1 d1 c0 10 	bfextu	r0,r1,0x0,0x10
8000a08a:	ad 30       	mul	r0,r6
8000a08c:	e0 02 00 02 	add	r2,r0,r2
8000a090:	e4 05 00 05 	add	r5,r2,r5
8000a094:	b0 05       	st.h	r8[0x0],r5
8000a096:	b1 85       	lsr	r5,0x10
8000a098:	b1 81       	lsr	r1,0x10
8000a09a:	2f c8       	sub	r8,-4
8000a09c:	ad 31       	mul	r1,r6
8000a09e:	90 92       	ld.uh	r2,r8[0x2]
8000a0a0:	e2 02 00 02 	add	r2,r1,r2
8000a0a4:	0a 02       	add	r2,r5
8000a0a6:	e4 05 16 10 	lsr	r5,r2,0x10
8000a0aa:	06 3e       	cp.w	lr,r3
8000a0ac:	ce a3       	brcs	8000a080 <__multiply+0xb0>
8000a0ae:	91 02       	st.w	r8[0x0],r2
8000a0b0:	2f ca       	sub	r10,-4
8000a0b2:	2f c9       	sub	r9,-4
8000a0b4:	40 18       	lddsp	r8,sp[0x4]
8000a0b6:	10 3a       	cp.w	r10,r8
8000a0b8:	cb b3       	brcs	8000a02e <__multiply+0x5e>
8000a0ba:	c0 28       	rjmp	8000a0be <__multiply+0xee>
8000a0bc:	20 17       	sub	r7,1
8000a0be:	58 07       	cp.w	r7,0
8000a0c0:	e0 8a 00 05 	brle	8000a0ca <__multiply+0xfa>
8000a0c4:	09 48       	ld.w	r8,--r4
8000a0c6:	58 08       	cp.w	r8,0
8000a0c8:	cf a0       	breq	8000a0bc <__multiply+0xec>
8000a0ca:	99 47       	st.w	r12[0x10],r7
8000a0cc:	2f ed       	sub	sp,-8
8000a0ce:	d8 32       	popm	r0-r7,pc

8000a0d0 <__i2b>:
8000a0d0:	d4 21       	pushm	r4-r7,lr
8000a0d2:	16 97       	mov	r7,r11
8000a0d4:	30 1b       	mov	r11,1
8000a0d6:	c4 7e       	rcall	80009d64 <_Balloc>
8000a0d8:	30 19       	mov	r9,1
8000a0da:	99 57       	st.w	r12[0x14],r7
8000a0dc:	99 49       	st.w	r12[0x10],r9
8000a0de:	d8 22       	popm	r4-r7,pc

8000a0e0 <__multadd>:
8000a0e0:	d4 31       	pushm	r0-r7,lr
8000a0e2:	30 08       	mov	r8,0
8000a0e4:	12 95       	mov	r5,r9
8000a0e6:	16 97       	mov	r7,r11
8000a0e8:	18 96       	mov	r6,r12
8000a0ea:	76 44       	ld.w	r4,r11[0x10]
8000a0ec:	f6 c9 ff ec 	sub	r9,r11,-20
8000a0f0:	72 0b       	ld.w	r11,r9[0x0]
8000a0f2:	f6 0c 16 10 	lsr	r12,r11,0x10
8000a0f6:	f7 db c0 10 	bfextu	r11,r11,0x0,0x10
8000a0fa:	f4 0c 02 4c 	mul	r12,r10,r12
8000a0fe:	f4 0b 03 45 	mac	r5,r10,r11
8000a102:	f7 d5 c0 10 	bfextu	r11,r5,0x0,0x10
8000a106:	b1 85       	lsr	r5,0x10
8000a108:	18 05       	add	r5,r12
8000a10a:	ea 0c 15 10 	lsl	r12,r5,0x10
8000a10e:	f8 0b 00 0b 	add	r11,r12,r11
8000a112:	12 ab       	st.w	r9++,r11
8000a114:	2f f8       	sub	r8,-1
8000a116:	b1 85       	lsr	r5,0x10
8000a118:	08 38       	cp.w	r8,r4
8000a11a:	ce b5       	brlt	8000a0f0 <__multadd+0x10>
8000a11c:	58 05       	cp.w	r5,0
8000a11e:	c1 c0       	breq	8000a156 <__multadd+0x76>
8000a120:	6e 28       	ld.w	r8,r7[0x8]
8000a122:	10 34       	cp.w	r4,r8
8000a124:	c1 35       	brlt	8000a14a <__multadd+0x6a>
8000a126:	6e 1b       	ld.w	r11,r7[0x4]
8000a128:	0c 9c       	mov	r12,r6
8000a12a:	2f fb       	sub	r11,-1
8000a12c:	c1 ce       	rcall	80009d64 <_Balloc>
8000a12e:	6e 4a       	ld.w	r10,r7[0x10]
8000a130:	ee cb ff f4 	sub	r11,r7,-12
8000a134:	18 93       	mov	r3,r12
8000a136:	2f ea       	sub	r10,-2
8000a138:	2f 4c       	sub	r12,-12
8000a13a:	a3 6a       	lsl	r10,0x2
8000a13c:	fe b0 d1 62 	rcall	80004400 <memcpy>
8000a140:	0e 9b       	mov	r11,r7
8000a142:	0c 9c       	mov	r12,r6
8000a144:	fe b0 fd f6 	rcall	80009d30 <_Bfree>
8000a148:	06 97       	mov	r7,r3
8000a14a:	e8 c8 ff ff 	sub	r8,r4,-1
8000a14e:	2f b4       	sub	r4,-5
8000a150:	8f 48       	st.w	r7[0x10],r8
8000a152:	ee 04 09 25 	st.w	r7[r4<<0x2],r5
8000a156:	0e 9c       	mov	r12,r7
8000a158:	d8 32       	popm	r0-r7,pc
8000a15a:	d7 03       	nop

8000a15c <__pow5mult>:
8000a15c:	d4 31       	pushm	r0-r7,lr
8000a15e:	14 96       	mov	r6,r10
8000a160:	18 97       	mov	r7,r12
8000a162:	16 94       	mov	r4,r11
8000a164:	f1 da c0 02 	bfextu	r8,r10,0x0,0x2
8000a168:	c0 90       	breq	8000a17a <__pow5mult+0x1e>
8000a16a:	20 18       	sub	r8,1
8000a16c:	fe c9 c4 20 	sub	r9,pc,-15328
8000a170:	f2 08 03 2a 	ld.w	r10,r9[r8<<0x2]
8000a174:	30 09       	mov	r9,0
8000a176:	cb 5f       	rcall	8000a0e0 <__multadd>
8000a178:	18 94       	mov	r4,r12
8000a17a:	a3 46       	asr	r6,0x2
8000a17c:	c3 40       	breq	8000a1e4 <__pow5mult+0x88>
8000a17e:	6e 95       	ld.w	r5,r7[0x24]
8000a180:	58 05       	cp.w	r5,0
8000a182:	c0 91       	brne	8000a194 <__pow5mult+0x38>
8000a184:	31 0c       	mov	r12,16
8000a186:	fe b0 f9 f5 	rcall	80009570 <malloc>
8000a18a:	99 35       	st.w	r12[0xc],r5
8000a18c:	8f 9c       	st.w	r7[0x24],r12
8000a18e:	99 15       	st.w	r12[0x4],r5
8000a190:	99 25       	st.w	r12[0x8],r5
8000a192:	99 05       	st.w	r12[0x0],r5
8000a194:	6e 93       	ld.w	r3,r7[0x24]
8000a196:	66 25       	ld.w	r5,r3[0x8]
8000a198:	58 05       	cp.w	r5,0
8000a19a:	c0 c1       	brne	8000a1b2 <__pow5mult+0x56>
8000a19c:	e0 6b 02 71 	mov	r11,625
8000a1a0:	0e 9c       	mov	r12,r7
8000a1a2:	c9 7f       	rcall	8000a0d0 <__i2b>
8000a1a4:	87 2c       	st.w	r3[0x8],r12
8000a1a6:	30 08       	mov	r8,0
8000a1a8:	18 95       	mov	r5,r12
8000a1aa:	99 08       	st.w	r12[0x0],r8
8000a1ac:	c0 38       	rjmp	8000a1b2 <__pow5mult+0x56>
8000a1ae:	06 9c       	mov	r12,r3
8000a1b0:	18 95       	mov	r5,r12
8000a1b2:	ed b6 00 00 	bld	r6,0x0
8000a1b6:	c0 b1       	brne	8000a1cc <__pow5mult+0x70>
8000a1b8:	08 9b       	mov	r11,r4
8000a1ba:	0a 9a       	mov	r10,r5
8000a1bc:	0e 9c       	mov	r12,r7
8000a1be:	c0 9f       	rcall	80009fd0 <__multiply>
8000a1c0:	08 9b       	mov	r11,r4
8000a1c2:	18 93       	mov	r3,r12
8000a1c4:	0e 9c       	mov	r12,r7
8000a1c6:	06 94       	mov	r4,r3
8000a1c8:	fe b0 fd b4 	rcall	80009d30 <_Bfree>
8000a1cc:	a1 56       	asr	r6,0x1
8000a1ce:	c0 b0       	breq	8000a1e4 <__pow5mult+0x88>
8000a1d0:	6a 03       	ld.w	r3,r5[0x0]
8000a1d2:	58 03       	cp.w	r3,0
8000a1d4:	ce d1       	brne	8000a1ae <__pow5mult+0x52>
8000a1d6:	0a 9a       	mov	r10,r5
8000a1d8:	0a 9b       	mov	r11,r5
8000a1da:	0e 9c       	mov	r12,r7
8000a1dc:	cf ae       	rcall	80009fd0 <__multiply>
8000a1de:	8b 0c       	st.w	r5[0x0],r12
8000a1e0:	99 03       	st.w	r12[0x0],r3
8000a1e2:	ce 7b       	rjmp	8000a1b0 <__pow5mult+0x54>
8000a1e4:	08 9c       	mov	r12,r4
8000a1e6:	d8 32       	popm	r0-r7,pc

8000a1e8 <__s2b>:
8000a1e8:	d4 31       	pushm	r0-r7,lr
8000a1ea:	12 93       	mov	r3,r9
8000a1ec:	10 94       	mov	r4,r8
8000a1ee:	f2 c8 ff f8 	sub	r8,r9,-8
8000a1f2:	30 99       	mov	r9,9
8000a1f4:	f0 09 0c 08 	divs	r8,r8,r9
8000a1f8:	16 95       	mov	r5,r11
8000a1fa:	10 99       	mov	r9,r8
8000a1fc:	18 96       	mov	r6,r12
8000a1fe:	14 97       	mov	r7,r10
8000a200:	30 18       	mov	r8,1
8000a202:	30 0b       	mov	r11,0
8000a204:	c0 38       	rjmp	8000a20a <__s2b+0x22>
8000a206:	a1 78       	lsl	r8,0x1
8000a208:	2f fb       	sub	r11,-1
8000a20a:	10 39       	cp.w	r9,r8
8000a20c:	fe 99 ff fd 	brgt	8000a206 <__s2b+0x1e>
8000a210:	0c 9c       	mov	r12,r6
8000a212:	fe b0 fd a9 	rcall	80009d64 <_Balloc>
8000a216:	30 18       	mov	r8,1
8000a218:	99 54       	st.w	r12[0x14],r4
8000a21a:	99 48       	st.w	r12[0x10],r8
8000a21c:	58 97       	cp.w	r7,9
8000a21e:	e0 8a 00 13 	brle	8000a244 <__s2b+0x5c>
8000a222:	ea c2 ff f7 	sub	r2,r5,-9
8000a226:	30 94       	mov	r4,9
8000a228:	ea 04 07 09 	ld.ub	r9,r5[r4]
8000a22c:	18 9b       	mov	r11,r12
8000a22e:	2f f4       	sub	r4,-1
8000a230:	23 09       	sub	r9,48
8000a232:	30 aa       	mov	r10,10
8000a234:	0c 9c       	mov	r12,r6
8000a236:	c5 5f       	rcall	8000a0e0 <__multadd>
8000a238:	0e 34       	cp.w	r4,r7
8000a23a:	cf 75       	brlt	8000a228 <__s2b+0x40>
8000a23c:	e4 07 00 05 	add	r5,r2,r7
8000a240:	20 85       	sub	r5,8
8000a242:	c0 b8       	rjmp	8000a258 <__s2b+0x70>
8000a244:	2f 65       	sub	r5,-10
8000a246:	30 97       	mov	r7,9
8000a248:	c0 88       	rjmp	8000a258 <__s2b+0x70>
8000a24a:	18 9b       	mov	r11,r12
8000a24c:	0b 39       	ld.ub	r9,r5++
8000a24e:	2f f7       	sub	r7,-1
8000a250:	23 09       	sub	r9,48
8000a252:	30 aa       	mov	r10,10
8000a254:	0c 9c       	mov	r12,r6
8000a256:	c4 5f       	rcall	8000a0e0 <__multadd>
8000a258:	06 37       	cp.w	r7,r3
8000a25a:	cf 85       	brlt	8000a24a <__s2b+0x62>
8000a25c:	d8 32       	popm	r0-r7,pc
8000a25e:	d7 03       	nop

8000a260 <_realloc_r>:
8000a260:	d4 31       	pushm	r0-r7,lr
8000a262:	20 1d       	sub	sp,4
8000a264:	16 94       	mov	r4,r11
8000a266:	18 92       	mov	r2,r12
8000a268:	14 9b       	mov	r11,r10
8000a26a:	58 04       	cp.w	r4,0
8000a26c:	c0 51       	brne	8000a276 <_realloc_r+0x16>
8000a26e:	fe b0 f9 89 	rcall	80009580 <_malloc_r>
8000a272:	18 95       	mov	r5,r12
8000a274:	c5 39       	rjmp	8000a51a <_realloc_r+0x2ba>
8000a276:	50 0a       	stdsp	sp[0x0],r10
8000a278:	fe b0 fb f4 	rcall	80009a60 <__malloc_lock>
8000a27c:	40 0b       	lddsp	r11,sp[0x0]
8000a27e:	f6 c8 ff f5 	sub	r8,r11,-11
8000a282:	e8 c1 00 08 	sub	r1,r4,8
8000a286:	10 96       	mov	r6,r8
8000a288:	62 1c       	ld.w	r12,r1[0x4]
8000a28a:	e0 16 ff f8 	andl	r6,0xfff8
8000a28e:	59 68       	cp.w	r8,22
8000a290:	f9 b6 08 10 	movls	r6,16
8000a294:	16 36       	cp.w	r6,r11
8000a296:	5f 38       	srlo	r8
8000a298:	f1 e6 13 f8 	or	r8,r8,r6>>0x1f
8000a29c:	c0 50       	breq	8000a2a6 <_realloc_r+0x46>
8000a29e:	30 c8       	mov	r8,12
8000a2a0:	30 05       	mov	r5,0
8000a2a2:	85 38       	st.w	r2[0xc],r8
8000a2a4:	c3 b9       	rjmp	8000a51a <_realloc_r+0x2ba>
8000a2a6:	18 90       	mov	r0,r12
8000a2a8:	e0 10 ff fc 	andl	r0,0xfffc
8000a2ac:	0c 30       	cp.w	r0,r6
8000a2ae:	e0 84 01 0b 	brge	8000a4c4 <_realloc_r+0x264>
8000a2b2:	e0 68 01 a0 	mov	r8,416
8000a2b6:	e2 00 00 09 	add	r9,r1,r0
8000a2ba:	70 25       	ld.w	r5,r8[0x8]
8000a2bc:	0a 39       	cp.w	r9,r5
8000a2be:	c0 90       	breq	8000a2d0 <_realloc_r+0x70>
8000a2c0:	72 1a       	ld.w	r10,r9[0x4]
8000a2c2:	a1 ca       	cbr	r10,0x0
8000a2c4:	f2 0a 00 0a 	add	r10,r9,r10
8000a2c8:	74 1a       	ld.w	r10,r10[0x4]
8000a2ca:	ed ba 00 00 	bld	r10,0x0
8000a2ce:	c2 20       	breq	8000a312 <_realloc_r+0xb2>
8000a2d0:	72 1a       	ld.w	r10,r9[0x4]
8000a2d2:	e0 1a ff fc 	andl	r10,0xfffc
8000a2d6:	f4 00 00 03 	add	r3,r10,r0
8000a2da:	0a 39       	cp.w	r9,r5
8000a2dc:	c1 31       	brne	8000a302 <_realloc_r+0xa2>
8000a2de:	ec c7 ff f0 	sub	r7,r6,-16
8000a2e2:	0e 33       	cp.w	r3,r7
8000a2e4:	c1 95       	brlt	8000a316 <_realloc_r+0xb6>
8000a2e6:	e2 06 00 09 	add	r9,r1,r6
8000a2ea:	0c 13       	sub	r3,r6
8000a2ec:	a1 a3       	sbr	r3,0x0
8000a2ee:	93 13       	st.w	r9[0x4],r3
8000a2f0:	91 29       	st.w	r8[0x8],r9
8000a2f2:	04 9c       	mov	r12,r2
8000a2f4:	62 18       	ld.w	r8,r1[0x4]
8000a2f6:	08 95       	mov	r5,r4
8000a2f8:	f1 d8 c0 01 	bfextu	r8,r8,0x0,0x1
8000a2fc:	10 46       	or	r6,r8
8000a2fe:	83 16       	st.w	r1[0x4],r6
8000a300:	c0 b9       	rjmp	8000a516 <_realloc_r+0x2b6>
8000a302:	0c 33       	cp.w	r3,r6
8000a304:	c0 95       	brlt	8000a316 <_realloc_r+0xb6>
8000a306:	72 28       	ld.w	r8,r9[0x8]
8000a308:	02 97       	mov	r7,r1
8000a30a:	72 39       	ld.w	r9,r9[0xc]
8000a30c:	93 28       	st.w	r9[0x8],r8
8000a30e:	91 39       	st.w	r8[0xc],r9
8000a310:	cd c8       	rjmp	8000a4c8 <_realloc_r+0x268>
8000a312:	30 0a       	mov	r10,0
8000a314:	14 99       	mov	r9,r10
8000a316:	ed bc 00 00 	bld	r12,0x0
8000a31a:	e0 80 00 95 	breq	8000a444 <_realloc_r+0x1e4>
8000a31e:	62 07       	ld.w	r7,r1[0x0]
8000a320:	e2 07 01 07 	sub	r7,r1,r7
8000a324:	6e 1c       	ld.w	r12,r7[0x4]
8000a326:	e0 1c ff fc 	andl	r12,0xfffc
8000a32a:	58 09       	cp.w	r9,0
8000a32c:	c5 60       	breq	8000a3d8 <_realloc_r+0x178>
8000a32e:	f8 00 00 03 	add	r3,r12,r0
8000a332:	0a 39       	cp.w	r9,r5
8000a334:	c4 81       	brne	8000a3c4 <_realloc_r+0x164>
8000a336:	14 03       	add	r3,r10
8000a338:	ec c9 ff f0 	sub	r9,r6,-16
8000a33c:	12 33       	cp.w	r3,r9
8000a33e:	c4 d5       	brlt	8000a3d8 <_realloc_r+0x178>
8000a340:	6e 3a       	ld.w	r10,r7[0xc]
8000a342:	6e 29       	ld.w	r9,r7[0x8]
8000a344:	95 29       	st.w	r10[0x8],r9
8000a346:	93 3a       	st.w	r9[0xc],r10
8000a348:	ee c5 ff f8 	sub	r5,r7,-8
8000a34c:	e0 ca 00 04 	sub	r10,r0,4
8000a350:	e0 4a 00 24 	cp.w	r10,36
8000a354:	e0 8b 00 25 	brhi	8000a39e <_realloc_r+0x13e>
8000a358:	0a 99       	mov	r9,r5
8000a35a:	59 3a       	cp.w	r10,19
8000a35c:	e0 88 00 1a 	brls	8000a390 <_realloc_r+0x130>
8000a360:	09 09       	ld.w	r9,r4++
8000a362:	8b 09       	st.w	r5[0x0],r9
8000a364:	09 09       	ld.w	r9,r4++
8000a366:	8f 39       	st.w	r7[0xc],r9
8000a368:	ee c9 ff f0 	sub	r9,r7,-16
8000a36c:	59 ba       	cp.w	r10,27
8000a36e:	e0 88 00 11 	brls	8000a390 <_realloc_r+0x130>
8000a372:	09 0b       	ld.w	r11,r4++
8000a374:	93 0b       	st.w	r9[0x0],r11
8000a376:	09 09       	ld.w	r9,r4++
8000a378:	8f 59       	st.w	r7[0x14],r9
8000a37a:	ee c9 ff e8 	sub	r9,r7,-24
8000a37e:	e0 4a 00 24 	cp.w	r10,36
8000a382:	c0 71       	brne	8000a390 <_realloc_r+0x130>
8000a384:	09 0a       	ld.w	r10,r4++
8000a386:	93 0a       	st.w	r9[0x0],r10
8000a388:	ee c9 ff e0 	sub	r9,r7,-32
8000a38c:	09 0a       	ld.w	r10,r4++
8000a38e:	8f 7a       	st.w	r7[0x1c],r10
8000a390:	09 0a       	ld.w	r10,r4++
8000a392:	12 aa       	st.w	r9++,r10
8000a394:	68 0a       	ld.w	r10,r4[0x0]
8000a396:	93 0a       	st.w	r9[0x0],r10
8000a398:	68 1a       	ld.w	r10,r4[0x4]
8000a39a:	93 1a       	st.w	r9[0x4],r10
8000a39c:	c0 78       	rjmp	8000a3aa <_realloc_r+0x14a>
8000a39e:	50 08       	stdsp	sp[0x0],r8
8000a3a0:	08 9b       	mov	r11,r4
8000a3a2:	0a 9c       	mov	r12,r5
8000a3a4:	fe b0 fb 3f 	rcall	80009a22 <memmove>
8000a3a8:	40 08       	lddsp	r8,sp[0x0]
8000a3aa:	ee 06 00 09 	add	r9,r7,r6
8000a3ae:	0c 13       	sub	r3,r6
8000a3b0:	a1 a3       	sbr	r3,0x0
8000a3b2:	93 13       	st.w	r9[0x4],r3
8000a3b4:	91 29       	st.w	r8[0x8],r9
8000a3b6:	04 9c       	mov	r12,r2
8000a3b8:	6e 18       	ld.w	r8,r7[0x4]
8000a3ba:	f1 d8 c0 01 	bfextu	r8,r8,0x0,0x1
8000a3be:	10 46       	or	r6,r8
8000a3c0:	8f 16       	st.w	r7[0x4],r6
8000a3c2:	ca a8       	rjmp	8000a516 <_realloc_r+0x2b6>
8000a3c4:	14 03       	add	r3,r10
8000a3c6:	0c 33       	cp.w	r3,r6
8000a3c8:	c0 85       	brlt	8000a3d8 <_realloc_r+0x178>
8000a3ca:	72 28       	ld.w	r8,r9[0x8]
8000a3cc:	72 39       	ld.w	r9,r9[0xc]
8000a3ce:	93 28       	st.w	r9[0x8],r8
8000a3d0:	91 39       	st.w	r8[0xc],r9
8000a3d2:	6e 28       	ld.w	r8,r7[0x8]
8000a3d4:	6e 39       	ld.w	r9,r7[0xc]
8000a3d6:	c0 78       	rjmp	8000a3e4 <_realloc_r+0x184>
8000a3d8:	f8 00 00 03 	add	r3,r12,r0
8000a3dc:	0c 33       	cp.w	r3,r6
8000a3de:	c3 35       	brlt	8000a444 <_realloc_r+0x1e4>
8000a3e0:	6e 39       	ld.w	r9,r7[0xc]
8000a3e2:	6e 28       	ld.w	r8,r7[0x8]
8000a3e4:	93 28       	st.w	r9[0x8],r8
8000a3e6:	91 39       	st.w	r8[0xc],r9
8000a3e8:	e0 ca 00 04 	sub	r10,r0,4
8000a3ec:	ee cc ff f8 	sub	r12,r7,-8
8000a3f0:	e0 4a 00 24 	cp.w	r10,36
8000a3f4:	e0 8b 00 24 	brhi	8000a43c <_realloc_r+0x1dc>
8000a3f8:	59 3a       	cp.w	r10,19
8000a3fa:	e0 88 00 1a 	brls	8000a42e <_realloc_r+0x1ce>
8000a3fe:	09 08       	ld.w	r8,r4++
8000a400:	99 08       	st.w	r12[0x0],r8
8000a402:	09 08       	ld.w	r8,r4++
8000a404:	8f 38       	st.w	r7[0xc],r8
8000a406:	ee cc ff f0 	sub	r12,r7,-16
8000a40a:	59 ba       	cp.w	r10,27
8000a40c:	e0 88 00 11 	brls	8000a42e <_realloc_r+0x1ce>
8000a410:	09 08       	ld.w	r8,r4++
8000a412:	99 08       	st.w	r12[0x0],r8
8000a414:	09 08       	ld.w	r8,r4++
8000a416:	8f 58       	st.w	r7[0x14],r8
8000a418:	ee cc ff e8 	sub	r12,r7,-24
8000a41c:	e0 4a 00 24 	cp.w	r10,36
8000a420:	c0 71       	brne	8000a42e <_realloc_r+0x1ce>
8000a422:	09 08       	ld.w	r8,r4++
8000a424:	99 08       	st.w	r12[0x0],r8
8000a426:	ee cc ff e0 	sub	r12,r7,-32
8000a42a:	09 08       	ld.w	r8,r4++
8000a42c:	8f 78       	st.w	r7[0x1c],r8
8000a42e:	09 08       	ld.w	r8,r4++
8000a430:	18 a8       	st.w	r12++,r8
8000a432:	68 08       	ld.w	r8,r4[0x0]
8000a434:	99 08       	st.w	r12[0x0],r8
8000a436:	68 18       	ld.w	r8,r4[0x4]
8000a438:	99 18       	st.w	r12[0x4],r8
8000a43a:	c4 78       	rjmp	8000a4c8 <_realloc_r+0x268>
8000a43c:	08 9b       	mov	r11,r4
8000a43e:	fe b0 fa f2 	rcall	80009a22 <memmove>
8000a442:	c4 38       	rjmp	8000a4c8 <_realloc_r+0x268>
8000a444:	04 9c       	mov	r12,r2
8000a446:	fe b0 f8 9d 	rcall	80009580 <_malloc_r>
8000a44a:	18 95       	mov	r5,r12
8000a44c:	c3 a0       	breq	8000a4c0 <_realloc_r+0x260>
8000a44e:	62 18       	ld.w	r8,r1[0x4]
8000a450:	f8 c9 00 08 	sub	r9,r12,8
8000a454:	a1 c8       	cbr	r8,0x0
8000a456:	e2 08 00 08 	add	r8,r1,r8
8000a45a:	10 39       	cp.w	r9,r8
8000a45c:	c0 71       	brne	8000a46a <_realloc_r+0x20a>
8000a45e:	72 13       	ld.w	r3,r9[0x4]
8000a460:	02 97       	mov	r7,r1
8000a462:	e0 13 ff fc 	andl	r3,0xfffc
8000a466:	00 03       	add	r3,r0
8000a468:	c3 08       	rjmp	8000a4c8 <_realloc_r+0x268>
8000a46a:	e0 ca 00 04 	sub	r10,r0,4
8000a46e:	e0 4a 00 24 	cp.w	r10,36
8000a472:	e0 8b 00 20 	brhi	8000a4b2 <_realloc_r+0x252>
8000a476:	08 99       	mov	r9,r4
8000a478:	18 98       	mov	r8,r12
8000a47a:	59 3a       	cp.w	r10,19
8000a47c:	e0 88 00 14 	brls	8000a4a4 <_realloc_r+0x244>
8000a480:	13 0b       	ld.w	r11,r9++
8000a482:	10 ab       	st.w	r8++,r11
8000a484:	13 0b       	ld.w	r11,r9++
8000a486:	10 ab       	st.w	r8++,r11
8000a488:	59 ba       	cp.w	r10,27
8000a48a:	e0 88 00 0d 	brls	8000a4a4 <_realloc_r+0x244>
8000a48e:	13 0b       	ld.w	r11,r9++
8000a490:	10 ab       	st.w	r8++,r11
8000a492:	13 0b       	ld.w	r11,r9++
8000a494:	10 ab       	st.w	r8++,r11
8000a496:	e0 4a 00 24 	cp.w	r10,36
8000a49a:	c0 51       	brne	8000a4a4 <_realloc_r+0x244>
8000a49c:	13 0a       	ld.w	r10,r9++
8000a49e:	10 aa       	st.w	r8++,r10
8000a4a0:	13 0a       	ld.w	r10,r9++
8000a4a2:	10 aa       	st.w	r8++,r10
8000a4a4:	13 0a       	ld.w	r10,r9++
8000a4a6:	10 aa       	st.w	r8++,r10
8000a4a8:	72 0a       	ld.w	r10,r9[0x0]
8000a4aa:	91 0a       	st.w	r8[0x0],r10
8000a4ac:	72 19       	ld.w	r9,r9[0x4]
8000a4ae:	91 19       	st.w	r8[0x4],r9
8000a4b0:	c0 48       	rjmp	8000a4b8 <_realloc_r+0x258>
8000a4b2:	08 9b       	mov	r11,r4
8000a4b4:	fe b0 fa b7 	rcall	80009a22 <memmove>
8000a4b8:	08 9b       	mov	r11,r4
8000a4ba:	04 9c       	mov	r12,r2
8000a4bc:	fe b0 f5 86 	rcall	80008fc8 <_free_r>
8000a4c0:	04 9c       	mov	r12,r2
8000a4c2:	c2 a8       	rjmp	8000a516 <_realloc_r+0x2b6>
8000a4c4:	00 93       	mov	r3,r0
8000a4c6:	02 97       	mov	r7,r1
8000a4c8:	e6 06 01 09 	sub	r9,r3,r6
8000a4cc:	6e 18       	ld.w	r8,r7[0x4]
8000a4ce:	58 f9       	cp.w	r9,15
8000a4d0:	e0 88 00 16 	brls	8000a4fc <_realloc_r+0x29c>
8000a4d4:	f1 d8 c0 01 	bfextu	r8,r8,0x0,0x1
8000a4d8:	ed e8 10 08 	or	r8,r6,r8
8000a4dc:	8f 18       	st.w	r7[0x4],r8
8000a4de:	12 98       	mov	r8,r9
8000a4e0:	a1 a8       	sbr	r8,0x0
8000a4e2:	ee 06 00 0b 	add	r11,r7,r6
8000a4e6:	f6 09 00 09 	add	r9,r11,r9
8000a4ea:	97 18       	st.w	r11[0x4],r8
8000a4ec:	72 18       	ld.w	r8,r9[0x4]
8000a4ee:	a1 a8       	sbr	r8,0x0
8000a4f0:	2f 8b       	sub	r11,-8
8000a4f2:	93 18       	st.w	r9[0x4],r8
8000a4f4:	04 9c       	mov	r12,r2
8000a4f6:	fe b0 f5 69 	rcall	80008fc8 <_free_r>
8000a4fa:	c0 b8       	rjmp	8000a510 <_realloc_r+0x2b0>
8000a4fc:	f1 d8 c0 01 	bfextu	r8,r8,0x0,0x1
8000a500:	e7 e8 10 08 	or	r8,r3,r8
8000a504:	8f 18       	st.w	r7[0x4],r8
8000a506:	ee 03 00 03 	add	r3,r7,r3
8000a50a:	66 18       	ld.w	r8,r3[0x4]
8000a50c:	a1 a8       	sbr	r8,0x0
8000a50e:	87 18       	st.w	r3[0x4],r8
8000a510:	04 9c       	mov	r12,r2
8000a512:	ee c5 ff f8 	sub	r5,r7,-8
8000a516:	fe b0 fa a6 	rcall	80009a62 <__malloc_unlock>
8000a51a:	0a 9c       	mov	r12,r5
8000a51c:	2f fd       	sub	sp,-4
8000a51e:	d8 32       	popm	r0-r7,pc

8000a520 <__srefill_r>:
8000a520:	d4 21       	pushm	r4-r7,lr
8000a522:	16 97       	mov	r7,r11
8000a524:	18 96       	mov	r6,r12
8000a526:	58 0c       	cp.w	r12,0
8000a528:	c0 60       	breq	8000a534 <__srefill_r+0x14>
8000a52a:	78 68       	ld.w	r8,r12[0x18]
8000a52c:	58 08       	cp.w	r8,0
8000a52e:	c0 31       	brne	8000a534 <__srefill_r+0x14>
8000a530:	fe b0 f4 58 	rcall	80008de0 <__sinit>
8000a534:	fe c8 c8 88 	sub	r8,pc,-14200
8000a538:	10 37       	cp.w	r7,r8
8000a53a:	c0 31       	brne	8000a540 <__srefill_r+0x20>
8000a53c:	6c 07       	ld.w	r7,r6[0x0]
8000a53e:	c0 c8       	rjmp	8000a556 <__srefill_r+0x36>
8000a540:	fe c8 c8 74 	sub	r8,pc,-14220
8000a544:	10 37       	cp.w	r7,r8
8000a546:	c0 31       	brne	8000a54c <__srefill_r+0x2c>
8000a548:	6c 17       	ld.w	r7,r6[0x4]
8000a54a:	c0 68       	rjmp	8000a556 <__srefill_r+0x36>
8000a54c:	fe c8 c8 60 	sub	r8,pc,-14240
8000a550:	10 37       	cp.w	r7,r8
8000a552:	ed f7 00 02 	ld.weq	r7,r6[0x8]
8000a556:	30 08       	mov	r8,0
8000a558:	8f 18       	st.w	r7[0x4],r8
8000a55a:	8e 68       	ld.sh	r8,r7[0xc]
8000a55c:	ed b8 00 05 	bld	r8,0x5
8000a560:	c5 b0       	breq	8000a616 <__srefill_r+0xf6>
8000a562:	ed b8 00 02 	bld	r8,0x2
8000a566:	c1 a0       	breq	8000a59a <__srefill_r+0x7a>
8000a568:	ed b8 00 04 	bld	r8,0x4
8000a56c:	c0 60       	breq	8000a578 <__srefill_r+0x58>
8000a56e:	a7 a8       	sbr	r8,0x6
8000a570:	ae 68       	st.h	r7[0xc],r8
8000a572:	30 98       	mov	r8,9
8000a574:	8d 38       	st.w	r6[0xc],r8
8000a576:	c4 f8       	rjmp	8000a614 <__srefill_r+0xf4>
8000a578:	ed b8 00 03 	bld	r8,0x3
8000a57c:	c0 b1       	brne	8000a592 <__srefill_r+0x72>
8000a57e:	0e 9b       	mov	r11,r7
8000a580:	0c 9c       	mov	r12,r6
8000a582:	fe b0 f3 45 	rcall	80008c0c <_fflush_r>
8000a586:	c4 81       	brne	8000a616 <__srefill_r+0xf6>
8000a588:	8e 68       	ld.sh	r8,r7[0xc]
8000a58a:	8f 6c       	st.w	r7[0x18],r12
8000a58c:	a3 d8       	cbr	r8,0x3
8000a58e:	8f 2c       	st.w	r7[0x8],r12
8000a590:	ae 68       	st.h	r7[0xc],r8
8000a592:	8e 68       	ld.sh	r8,r7[0xc]
8000a594:	a3 a8       	sbr	r8,0x2
8000a596:	ae 68       	st.h	r7[0xc],r8
8000a598:	c1 48       	rjmp	8000a5c0 <__srefill_r+0xa0>
8000a59a:	6e db       	ld.w	r11,r7[0x34]
8000a59c:	58 0b       	cp.w	r11,0
8000a59e:	c1 10       	breq	8000a5c0 <__srefill_r+0xa0>
8000a5a0:	ee c8 ff bc 	sub	r8,r7,-68
8000a5a4:	10 3b       	cp.w	r11,r8
8000a5a6:	c0 40       	breq	8000a5ae <__srefill_r+0x8e>
8000a5a8:	0c 9c       	mov	r12,r6
8000a5aa:	fe b0 f5 0f 	rcall	80008fc8 <_free_r>
8000a5ae:	30 0c       	mov	r12,0
8000a5b0:	6f 08       	ld.w	r8,r7[0x40]
8000a5b2:	8f dc       	st.w	r7[0x34],r12
8000a5b4:	8f 18       	st.w	r7[0x4],r8
8000a5b6:	58 08       	cp.w	r8,0
8000a5b8:	c0 40       	breq	8000a5c0 <__srefill_r+0xa0>
8000a5ba:	6e f8       	ld.w	r8,r7[0x3c]
8000a5bc:	8f 08       	st.w	r7[0x0],r8
8000a5be:	d8 22       	popm	r4-r7,pc
8000a5c0:	6e 48       	ld.w	r8,r7[0x10]
8000a5c2:	58 08       	cp.w	r8,0
8000a5c4:	c0 51       	brne	8000a5ce <__srefill_r+0xae>
8000a5c6:	0e 9b       	mov	r11,r7
8000a5c8:	0c 9c       	mov	r12,r6
8000a5ca:	fe b0 f7 75 	rcall	800094b4 <__smakebuf_r>
8000a5ce:	8e 68       	ld.sh	r8,r7[0xc]
8000a5d0:	f1 d8 c0 02 	bfextu	r8,r8,0x0,0x2
8000a5d4:	c0 80       	breq	8000a5e4 <__srefill_r+0xc4>
8000a5d6:	fe c8 ce 42 	sub	r8,pc,-12734
8000a5da:	fe cb ff c2 	sub	r11,pc,-62
8000a5de:	70 0c       	ld.w	r12,r8[0x0]
8000a5e0:	fe b0 f7 32 	rcall	80009444 <_fwalk>
8000a5e4:	6e 4a       	ld.w	r10,r7[0x10]
8000a5e6:	6e 98       	ld.w	r8,r7[0x24]
8000a5e8:	0c 9c       	mov	r12,r6
8000a5ea:	8f 0a       	st.w	r7[0x0],r10
8000a5ec:	6e 59       	ld.w	r9,r7[0x14]
8000a5ee:	6e 8b       	ld.w	r11,r7[0x20]
8000a5f0:	5d 18       	icall	r8
8000a5f2:	8e 68       	ld.sh	r8,r7[0xc]
8000a5f4:	8f 1c       	st.w	r7[0x4],r12
8000a5f6:	ad d8       	cbr	r8,0xd
8000a5f8:	ae 68       	st.h	r7[0xc],r8
8000a5fa:	58 0c       	cp.w	r12,0
8000a5fc:	e0 8a 00 03 	brle	8000a602 <__srefill_r+0xe2>
8000a600:	d8 2a       	popm	r4-r7,pc,r12=0
8000a602:	58 0c       	cp.w	r12,0
8000a604:	c0 41       	brne	8000a60c <__srefill_r+0xec>
8000a606:	a5 b8       	sbr	r8,0x5
8000a608:	ae 68       	st.h	r7[0xc],r8
8000a60a:	c0 58       	rjmp	8000a614 <__srefill_r+0xf4>
8000a60c:	a7 a8       	sbr	r8,0x6
8000a60e:	ae 68       	st.h	r7[0xc],r8
8000a610:	30 08       	mov	r8,0
8000a612:	8f 18       	st.w	r7[0x4],r8
8000a614:	dc 2a       	popm	r4-r7,pc,r12=-1
8000a616:	dc 2a       	popm	r4-r7,pc,r12=-1

8000a618 <lflush>:
8000a618:	d4 01       	pushm	lr
8000a61a:	98 68       	ld.sh	r8,r12[0xc]
8000a61c:	e2 18 00 09 	andl	r8,0x9,COH
8000a620:	58 98       	cp.w	r8,9
8000a622:	c0 20       	breq	8000a626 <lflush+0xe>
8000a624:	d8 0a       	popm	pc,r12=0
8000a626:	fe b0 f3 79 	rcall	80008d18 <fflush>
8000a62a:	d8 02       	popm	pc

8000a62c <__isinfd>:
8000a62c:	14 98       	mov	r8,r10
8000a62e:	fc 19 7f f0 	movh	r9,0x7ff0
8000a632:	f5 db c0 1f 	bfextu	r10,r11,0x0,0x1f
8000a636:	f0 0b 11 00 	rsub	r11,r8,0
8000a63a:	f7 e8 10 08 	or	r8,r11,r8
8000a63e:	f5 e8 13 f8 	or	r8,r10,r8>>0x1f
8000a642:	f2 08 01 08 	sub	r8,r9,r8
8000a646:	f0 0c 11 00 	rsub	r12,r8,0
8000a64a:	f9 e8 10 08 	or	r8,r12,r8
8000a64e:	f0 0c 14 1f 	asr	r12,r8,0x1f
8000a652:	2f fc       	sub	r12,-1
8000a654:	5e fc       	retal	r12

8000a656 <__isnand>:
8000a656:	14 98       	mov	r8,r10
8000a658:	f5 db c0 1f 	bfextu	r10,r11,0x0,0x1f
8000a65c:	f0 0c 11 00 	rsub	r12,r8,0
8000a660:	10 4c       	or	r12,r8
8000a662:	fc 18 7f f0 	movh	r8,0x7ff0
8000a666:	f5 ec 13 fc 	or	r12,r10,r12>>0x1f
8000a66a:	f0 0c 01 0c 	sub	r12,r8,r12
8000a66e:	bf 9c       	lsr	r12,0x1f
8000a670:	5e fc       	retal	r12
8000a672:	d7 03       	nop

8000a674 <_sbrk_r>:
8000a674:	d4 21       	pushm	r4-r7,lr
8000a676:	30 08       	mov	r8,0
8000a678:	18 97       	mov	r7,r12
8000a67a:	e0 66 0c 38 	mov	r6,3128
8000a67e:	16 9c       	mov	r12,r11
8000a680:	8d 08       	st.w	r6[0x0],r8
8000a682:	e0 a0 09 ed 	rcall	8000ba5c <_sbrk>
8000a686:	5b fc       	cp.w	r12,-1
8000a688:	c0 51       	brne	8000a692 <_sbrk_r+0x1e>
8000a68a:	6c 08       	ld.w	r8,r6[0x0]
8000a68c:	58 08       	cp.w	r8,0
8000a68e:	ef f8 1a 03 	st.wne	r7[0xc],r8
8000a692:	d8 22       	popm	r4-r7,pc

8000a694 <__sccl>:
8000a694:	d4 31       	pushm	r0-r7,lr
8000a696:	18 9e       	mov	lr,r12
8000a698:	17 38       	ld.ub	r8,r11++
8000a69a:	e0 48 00 5e 	cp.w	r8,94
8000a69e:	c0 30       	breq	8000a6a4 <__sccl+0x10>
8000a6a0:	30 0a       	mov	r10,0
8000a6a2:	c0 38       	rjmp	8000a6a8 <__sccl+0x14>
8000a6a4:	17 38       	ld.ub	r8,r11++
8000a6a6:	30 1a       	mov	r10,1
8000a6a8:	30 09       	mov	r9,0
8000a6aa:	fc 09 0b 0a 	st.b	lr[r9],r10
8000a6ae:	2f f9       	sub	r9,-1
8000a6b0:	e0 49 01 00 	cp.w	r9,256
8000a6b4:	cf b1       	brne	8000a6aa <__sccl+0x16>
8000a6b6:	58 08       	cp.w	r8,0
8000a6b8:	c0 41       	brne	8000a6c0 <__sccl+0x2c>
8000a6ba:	f6 cc 00 01 	sub	r12,r11,1
8000a6be:	d8 32       	popm	r0-r7,pc
8000a6c0:	14 96       	mov	r6,r10
8000a6c2:	32 d4       	mov	r4,45
8000a6c4:	ec 16 00 01 	eorl	r6,0x1
8000a6c8:	30 07       	mov	r7,0
8000a6ca:	35 d5       	mov	r5,93
8000a6cc:	c0 38       	rjmp	8000a6d2 <__sccl+0x3e>
8000a6ce:	14 98       	mov	r8,r10
8000a6d0:	12 9b       	mov	r11,r9
8000a6d2:	fc 08 0b 06 	st.b	lr[r8],r6
8000a6d6:	f6 c9 ff ff 	sub	r9,r11,-1
8000a6da:	17 8a       	ld.ub	r10,r11[0x0]
8000a6dc:	12 9c       	mov	r12,r9
8000a6de:	e8 0a 18 00 	cp.b	r10,r4
8000a6e2:	c0 90       	breq	8000a6f4 <__sccl+0x60>
8000a6e4:	ea 0a 18 00 	cp.b	r10,r5
8000a6e8:	c1 e0       	breq	8000a724 <__sccl+0x90>
8000a6ea:	ee 0a 18 00 	cp.b	r10,r7
8000a6ee:	cf 01       	brne	8000a6ce <__sccl+0x3a>
8000a6f0:	16 9c       	mov	r12,r11
8000a6f2:	d8 32       	popm	r0-r7,pc
8000a6f4:	13 8c       	ld.ub	r12,r9[0x0]
8000a6f6:	10 3c       	cp.w	r12,r8
8000a6f8:	5f 53       	srlt	r3
8000a6fa:	e0 4c 00 5d 	cp.w	r12,93
8000a6fe:	5f 0a       	sreq	r10
8000a700:	e7 ea 10 0a 	or	r10,r3,r10
8000a704:	ee 0a 18 00 	cp.b	r10,r7
8000a708:	c0 30       	breq	8000a70e <__sccl+0x7a>
8000a70a:	32 d8       	mov	r8,45
8000a70c:	ce 2b       	rjmp	8000a6d0 <__sccl+0x3c>
8000a70e:	f0 ca ff ff 	sub	r10,r8,-1
8000a712:	fc 0a 00 0a 	add	r10,lr,r10
8000a716:	14 c6       	st.b	r10++,r6
8000a718:	2f f8       	sub	r8,-1
8000a71a:	18 38       	cp.w	r8,r12
8000a71c:	cf d5       	brlt	8000a716 <__sccl+0x82>
8000a71e:	2f eb       	sub	r11,-2
8000a720:	2f e9       	sub	r9,-2
8000a722:	cd cb       	rjmp	8000a6da <__sccl+0x46>
8000a724:	d8 32       	popm	r0-r7,pc

8000a726 <nanf>:
8000a726:	fc 1c 7f c0 	movh	r12,0x7fc0
8000a72a:	5e fc       	retal	r12

8000a72c <sprintf>:
8000a72c:	d4 01       	pushm	lr
8000a72e:	21 7d       	sub	sp,92
8000a730:	e0 68 ff ff 	mov	r8,65535
8000a734:	ea 18 7f ff 	orh	r8,0x7fff
8000a738:	50 58       	stdsp	sp[0x14],r8
8000a73a:	50 28       	stdsp	sp[0x8],r8
8000a73c:	e0 68 02 08 	mov	r8,520
8000a740:	ba 68       	st.h	sp[0xc],r8
8000a742:	3f f8       	mov	r8,-1
8000a744:	ba 78       	st.h	sp[0xe],r8
8000a746:	e0 68 01 94 	mov	r8,404
8000a74a:	50 4c       	stdsp	sp[0x10],r12
8000a74c:	16 9a       	mov	r10,r11
8000a74e:	50 0c       	stdsp	sp[0x0],r12
8000a750:	fa c9 ff a0 	sub	r9,sp,-96
8000a754:	70 0c       	ld.w	r12,r8[0x0]
8000a756:	1a 9b       	mov	r11,sp
8000a758:	fe b0 d1 5e 	rcall	80004a14 <_vfprintf_r>
8000a75c:	30 09       	mov	r9,0
8000a75e:	40 08       	lddsp	r8,sp[0x0]
8000a760:	b0 89       	st.b	r8[0x0],r9
8000a762:	2e 9d       	sub	sp,-92
8000a764:	d8 02       	popm	pc
8000a766:	d7 03       	nop

8000a768 <__sclose>:
8000a768:	d4 01       	pushm	lr
8000a76a:	96 7b       	ld.sh	r11,r11[0xe]
8000a76c:	e0 a0 0a 74 	rcall	8000bc54 <_close_r>
8000a770:	d8 02       	popm	pc
8000a772:	d7 03       	nop

8000a774 <__sseek>:
8000a774:	d4 21       	pushm	r4-r7,lr
8000a776:	16 97       	mov	r7,r11
8000a778:	96 7b       	ld.sh	r11,r11[0xe]
8000a77a:	e0 a0 0e 2f 	rcall	8000c3d8 <_lseek_r>
8000a77e:	8e 68       	ld.sh	r8,r7[0xc]
8000a780:	10 99       	mov	r9,r8
8000a782:	ad c8       	cbr	r8,0xc
8000a784:	ad a9       	sbr	r9,0xc
8000a786:	5b fc       	cp.w	r12,-1
8000a788:	ef f8 0c 06 	st.heq	r7[0xc],r8
8000a78c:	ef f9 1c 06 	st.hne	r7[0xc],r9
8000a790:	ef fc 1a 15 	st.wne	r7[0x54],r12
8000a794:	d8 22       	popm	r4-r7,pc
8000a796:	d7 03       	nop

8000a798 <__swrite>:
8000a798:	d4 21       	pushm	r4-r7,lr
8000a79a:	96 68       	ld.sh	r8,r11[0xc]
8000a79c:	16 97       	mov	r7,r11
8000a79e:	14 95       	mov	r5,r10
8000a7a0:	12 94       	mov	r4,r9
8000a7a2:	e2 18 01 00 	andl	r8,0x100,COH
8000a7a6:	18 96       	mov	r6,r12
8000a7a8:	c0 60       	breq	8000a7b4 <__swrite+0x1c>
8000a7aa:	30 29       	mov	r9,2
8000a7ac:	30 0a       	mov	r10,0
8000a7ae:	96 7b       	ld.sh	r11,r11[0xe]
8000a7b0:	e0 a0 0e 14 	rcall	8000c3d8 <_lseek_r>
8000a7b4:	8e 68       	ld.sh	r8,r7[0xc]
8000a7b6:	ad c8       	cbr	r8,0xc
8000a7b8:	08 99       	mov	r9,r4
8000a7ba:	0a 9a       	mov	r10,r5
8000a7bc:	8e 7b       	ld.sh	r11,r7[0xe]
8000a7be:	0c 9c       	mov	r12,r6
8000a7c0:	ae 68       	st.h	r7[0xc],r8
8000a7c2:	e0 a0 0a 09 	rcall	8000bbd4 <_write_r>
8000a7c6:	d8 22       	popm	r4-r7,pc

8000a7c8 <__sread>:
8000a7c8:	d4 21       	pushm	r4-r7,lr
8000a7ca:	16 97       	mov	r7,r11
8000a7cc:	96 7b       	ld.sh	r11,r11[0xe]
8000a7ce:	e0 a0 0e 19 	rcall	8000c400 <_read_r>
8000a7d2:	c0 65       	brlt	8000a7de <__sread+0x16>
8000a7d4:	6f 58       	ld.w	r8,r7[0x54]
8000a7d6:	18 08       	add	r8,r12
8000a7d8:	ef 48 00 54 	st.w	r7[84],r8
8000a7dc:	d8 22       	popm	r4-r7,pc
8000a7de:	8e 68       	ld.sh	r8,r7[0xc]
8000a7e0:	ad c8       	cbr	r8,0xc
8000a7e2:	ae 68       	st.h	r7[0xc],r8
8000a7e4:	d8 22       	popm	r4-r7,pc
8000a7e6:	d7 03       	nop

8000a7e8 <strlen>:
8000a7e8:	30 09       	mov	r9,0
8000a7ea:	18 98       	mov	r8,r12
8000a7ec:	c0 28       	rjmp	8000a7f0 <strlen+0x8>
8000a7ee:	2f f8       	sub	r8,-1
8000a7f0:	11 8a       	ld.ub	r10,r8[0x0]
8000a7f2:	f2 0a 18 00 	cp.b	r10,r9
8000a7f6:	cf c1       	brne	8000a7ee <strlen+0x6>
8000a7f8:	f0 0c 01 0c 	sub	r12,r8,r12
8000a7fc:	5e fc       	retal	r12
8000a7fe:	d7 03       	nop

8000a800 <_strtod_r>:
8000a800:	d4 31       	pushm	r0-r7,lr
8000a802:	21 bd       	sub	sp,108
8000a804:	50 ba       	stdsp	sp[0x2c],r10
8000a806:	51 8b       	stdsp	sp[0x60],r11
8000a808:	16 92       	mov	r2,r11
8000a80a:	18 96       	mov	r6,r12
8000a80c:	fa c7 ff b8 	sub	r7,sp,-72
8000a810:	30 08       	mov	r8,0
8000a812:	30 09       	mov	r9,0
8000a814:	30 d5       	mov	r5,13
8000a816:	ee e9 00 00 	st.d	r7[0],r8
8000a81a:	32 be       	mov	lr,43
8000a81c:	32 dc       	mov	r12,45
8000a81e:	32 0b       	mov	r11,32
8000a820:	30 9a       	mov	r10,9
8000a822:	41 89       	lddsp	r9,sp[0x60]
8000a824:	13 88       	ld.ub	r8,r9[0x0]
8000a826:	ea 08 18 00 	cp.b	r8,r5
8000a82a:	e0 8b 00 0b 	brhi	8000a840 <_strtod_r+0x40>
8000a82e:	f4 08 18 00 	cp.b	r8,r10
8000a832:	c1 f2       	brcc	8000a870 <_strtod_r+0x70>
8000a834:	30 09       	mov	r9,0
8000a836:	f2 08 18 00 	cp.b	r8,r9
8000a83a:	c1 e1       	brne	8000a876 <_strtod_r+0x76>
8000a83c:	e0 8f 01 fe 	bral	8000ac38 <_strtod_r+0x438>
8000a840:	fc 08 18 00 	cp.b	r8,lr
8000a844:	c0 80       	breq	8000a854 <_strtod_r+0x54>
8000a846:	f8 08 18 00 	cp.b	r8,r12
8000a84a:	c0 80       	breq	8000a85a <_strtod_r+0x5a>
8000a84c:	f6 08 18 00 	cp.b	r8,r11
8000a850:	c1 31       	brne	8000a876 <_strtod_r+0x76>
8000a852:	c0 f8       	rjmp	8000a870 <_strtod_r+0x70>
8000a854:	30 0e       	mov	lr,0
8000a856:	50 8e       	stdsp	sp[0x20],lr
8000a858:	c0 38       	rjmp	8000a85e <_strtod_r+0x5e>
8000a85a:	30 1c       	mov	r12,1
8000a85c:	50 8c       	stdsp	sp[0x20],r12
8000a85e:	2f f9       	sub	r9,-1
8000a860:	51 89       	stdsp	sp[0x60],r9
8000a862:	30 08       	mov	r8,0
8000a864:	13 89       	ld.ub	r9,r9[0x0]
8000a866:	f0 09 18 00 	cp.b	r9,r8
8000a86a:	c0 81       	brne	8000a87a <_strtod_r+0x7a>
8000a86c:	e0 8f 01 e6 	bral	8000ac38 <_strtod_r+0x438>
8000a870:	2f f9       	sub	r9,-1
8000a872:	51 89       	stdsp	sp[0x60],r9
8000a874:	cd 7b       	rjmp	8000a822 <_strtod_r+0x22>
8000a876:	30 0b       	mov	r11,0
8000a878:	50 8b       	stdsp	sp[0x20],r11
8000a87a:	41 89       	lddsp	r9,sp[0x60]
8000a87c:	33 0a       	mov	r10,48
8000a87e:	13 88       	ld.ub	r8,r9[0x0]
8000a880:	f4 08 18 00 	cp.b	r8,r10
8000a884:	c0 30       	breq	8000a88a <_strtod_r+0x8a>
8000a886:	30 00       	mov	r0,0
8000a888:	c6 b8       	rjmp	8000a95e <_strtod_r+0x15e>
8000a88a:	13 99       	ld.ub	r9,r9[0x1]
8000a88c:	35 8a       	mov	r10,88
8000a88e:	f4 09 18 00 	cp.b	r9,r10
8000a892:	c0 50       	breq	8000a89c <_strtod_r+0x9c>
8000a894:	37 8a       	mov	r10,120
8000a896:	f4 09 18 00 	cp.b	r9,r10
8000a89a:	c5 61       	brne	8000a946 <_strtod_r+0x146>
8000a89c:	40 8a       	lddsp	r10,sp[0x20]
8000a89e:	e0 67 05 c4 	mov	r7,1476
8000a8a2:	1a da       	st.w	--sp,r10
8000a8a4:	0c 9c       	mov	r12,r6
8000a8a6:	fa c8 ff a0 	sub	r8,sp,-96
8000a8aa:	fa c9 ff a4 	sub	r9,sp,-92
8000a8ae:	fa cb ff 9c 	sub	r11,sp,-100
8000a8b2:	0e 9a       	mov	r10,r7
8000a8b4:	e0 a0 0a c0 	rcall	8000be34 <__gethex>
8000a8b8:	2f fd       	sub	sp,-4
8000a8ba:	18 94       	mov	r4,r12
8000a8bc:	eb dc c0 03 	bfextu	r5,r12,0x0,0x3
8000a8c0:	e0 80 05 be 	breq	8000b43c <_strtod_r+0xc3c>
8000a8c4:	58 65       	cp.w	r5,6
8000a8c6:	c0 61       	brne	8000a8d2 <_strtod_r+0xd2>
8000a8c8:	30 09       	mov	r9,0
8000a8ca:	51 82       	stdsp	sp[0x60],r2
8000a8cc:	50 89       	stdsp	sp[0x20],r9
8000a8ce:	e0 8f 05 b7 	bral	8000b43c <_strtod_r+0xc3c>
8000a8d2:	41 7a       	lddsp	r10,sp[0x5c]
8000a8d4:	58 0a       	cp.w	r10,0
8000a8d6:	c0 a0       	breq	8000a8ea <_strtod_r+0xea>
8000a8d8:	6e 0b       	ld.w	r11,r7[0x0]
8000a8da:	fa cc ff c8 	sub	r12,sp,-56
8000a8de:	fe b0 f9 eb 	rcall	80009cb4 <__copybits>
8000a8e2:	0c 9c       	mov	r12,r6
8000a8e4:	41 7b       	lddsp	r11,sp[0x5c]
8000a8e6:	fe b0 fa 25 	rcall	80009d30 <_Bfree>
8000a8ea:	41 69       	lddsp	r9,sp[0x58]
8000a8ec:	58 65       	cp.w	r5,6
8000a8ee:	e0 8b 00 23 	brhi	8000a934 <_strtod_r+0x134>
8000a8f2:	fe c8 ca aa 	sub	r8,pc,-13654
8000a8f6:	f0 05 03 2f 	ld.w	pc,r8[r5<<0x2]
8000a8fa:	30 08       	mov	r8,0
8000a8fc:	51 28       	stdsp	sp[0x48],r8
8000a8fe:	c1 a8       	rjmp	8000a932 <_strtod_r+0x132>
8000a900:	40 e8       	lddsp	r8,sp[0x38]
8000a902:	51 38       	stdsp	sp[0x4c],r8
8000a904:	40 f8       	lddsp	r8,sp[0x3c]
8000a906:	c0 98       	rjmp	8000a918 <_strtod_r+0x118>
8000a908:	40 e8       	lddsp	r8,sp[0x38]
8000a90a:	f2 c9 fb cd 	sub	r9,r9,-1075
8000a90e:	51 38       	stdsp	sp[0x4c],r8
8000a910:	40 f8       	lddsp	r8,sp[0x3c]
8000a912:	b5 c8       	cbr	r8,0x14
8000a914:	f1 e9 11 48 	or	r8,r8,r9<<0x14
8000a918:	51 28       	stdsp	sp[0x48],r8
8000a91a:	c0 d8       	rjmp	8000a934 <_strtod_r+0x134>
8000a91c:	fc 18 7f f0 	movh	r8,0x7ff0
8000a920:	51 28       	stdsp	sp[0x48],r8
8000a922:	30 08       	mov	r8,0
8000a924:	c0 78       	rjmp	8000a932 <_strtod_r+0x132>
8000a926:	e0 68 ff ff 	mov	r8,65535
8000a92a:	ea 18 7f ff 	orh	r8,0x7fff
8000a92e:	51 28       	stdsp	sp[0x48],r8
8000a930:	3f f8       	mov	r8,-1
8000a932:	51 38       	stdsp	sp[0x4c],r8
8000a934:	e2 14 00 08 	andl	r4,0x8,COH
8000a938:	e0 80 05 82 	breq	8000b43c <_strtod_r+0xc3c>
8000a93c:	41 28       	lddsp	r8,sp[0x48]
8000a93e:	bf b8       	sbr	r8,0x1f
8000a940:	51 28       	stdsp	sp[0x48],r8
8000a942:	e0 8f 05 7d 	bral	8000b43c <_strtod_r+0xc3c>
8000a946:	10 9a       	mov	r10,r8
8000a948:	41 88       	lddsp	r8,sp[0x60]
8000a94a:	2f f8       	sub	r8,-1
8000a94c:	51 88       	stdsp	sp[0x60],r8
8000a94e:	11 88       	ld.ub	r8,r8[0x0]
8000a950:	f4 08 18 00 	cp.b	r8,r10
8000a954:	cf a0       	breq	8000a948 <_strtod_r+0x148>
8000a956:	58 08       	cp.w	r8,0
8000a958:	e0 80 05 72 	breq	8000b43c <_strtod_r+0xc3c>
8000a95c:	30 10       	mov	r0,1
8000a95e:	30 04       	mov	r4,0
8000a960:	41 88       	lddsp	r8,sp[0x60]
8000a962:	08 93       	mov	r3,r4
8000a964:	50 78       	stdsp	sp[0x1c],r8
8000a966:	08 9a       	mov	r10,r4
8000a968:	c1 38       	rjmp	8000a98e <_strtod_r+0x18e>
8000a96a:	58 8a       	cp.w	r10,8
8000a96c:	e0 89 00 06 	brgt	8000a978 <_strtod_r+0x178>
8000a970:	23 08       	sub	r8,48
8000a972:	f0 0b 00 13 	add	r3,r8,r11<<0x1
8000a976:	c0 98       	rjmp	8000a988 <_strtod_r+0x188>
8000a978:	58 fa       	cp.w	r10,15
8000a97a:	e0 89 00 07 	brgt	8000a988 <_strtod_r+0x188>
8000a97e:	e8 04 00 24 	add	r4,r4,r4<<0x2
8000a982:	23 08       	sub	r8,48
8000a984:	f0 04 00 14 	add	r4,r8,r4<<0x1
8000a988:	2f f9       	sub	r9,-1
8000a98a:	2f fa       	sub	r10,-1
8000a98c:	51 89       	stdsp	sp[0x60],r9
8000a98e:	41 89       	lddsp	r9,sp[0x60]
8000a990:	e6 03 00 2b 	add	r11,r3,r3<<0x2
8000a994:	13 88       	ld.ub	r8,r9[0x0]
8000a996:	e0 48 00 2f 	cp.w	r8,47
8000a99a:	e0 8a 00 07 	brle	8000a9a8 <_strtod_r+0x1a8>
8000a99e:	e0 48 00 39 	cp.w	r8,57
8000a9a2:	fe 9a ff e4 	brle	8000a96a <_strtod_r+0x16a>
8000a9a6:	c5 b8       	rjmp	8000aa5c <_strtod_r+0x25c>
8000a9a8:	14 95       	mov	r5,r10
8000a9aa:	e0 48 00 2e 	cp.w	r8,46
8000a9ae:	c5 71       	brne	8000aa5c <_strtod_r+0x25c>
8000a9b0:	2f f9       	sub	r9,-1
8000a9b2:	51 89       	stdsp	sp[0x60],r9
8000a9b4:	13 88       	ld.ub	r8,r9[0x0]
8000a9b6:	58 0a       	cp.w	r10,0
8000a9b8:	c0 40       	breq	8000a9c0 <_strtod_r+0x1c0>
8000a9ba:	30 09       	mov	r9,0
8000a9bc:	12 9b       	mov	r11,r9
8000a9be:	c4 78       	rjmp	8000aa4c <_strtod_r+0x24c>
8000a9c0:	14 99       	mov	r9,r10
8000a9c2:	c0 68       	rjmp	8000a9ce <_strtod_r+0x1ce>
8000a9c4:	41 88       	lddsp	r8,sp[0x60]
8000a9c6:	2f f9       	sub	r9,-1
8000a9c8:	2f f8       	sub	r8,-1
8000a9ca:	51 88       	stdsp	sp[0x60],r8
8000a9cc:	11 88       	ld.ub	r8,r8[0x0]
8000a9ce:	e0 48 00 30 	cp.w	r8,48
8000a9d2:	cf 90       	breq	8000a9c4 <_strtod_r+0x1c4>
8000a9d4:	f0 cb 00 31 	sub	r11,r8,49
8000a9d8:	58 8b       	cp.w	r11,8
8000a9da:	e0 88 00 07 	brls	8000a9e8 <_strtod_r+0x1e8>
8000a9de:	30 0a       	mov	r10,0
8000a9e0:	30 11       	mov	r1,1
8000a9e2:	14 9b       	mov	r11,r10
8000a9e4:	50 11       	stdsp	sp[0x4],r1
8000a9e6:	c3 f8       	rjmp	8000aa64 <_strtod_r+0x264>
8000a9e8:	12 9b       	mov	r11,r9
8000a9ea:	41 8e       	lddsp	lr,sp[0x60]
8000a9ec:	30 09       	mov	r9,0
8000a9ee:	50 7e       	stdsp	sp[0x1c],lr
8000a9f0:	2f f9       	sub	r9,-1
8000a9f2:	23 08       	sub	r8,48
8000a9f4:	c2 80       	breq	8000aa44 <_strtod_r+0x244>
8000a9f6:	12 0b       	add	r11,r9
8000a9f8:	30 1e       	mov	lr,1
8000a9fa:	c1 08       	rjmp	8000aa1a <_strtod_r+0x21a>
8000a9fc:	18 95       	mov	r5,r12
8000a9fe:	20 1c       	sub	r12,1
8000aa00:	58 8c       	cp.w	r12,8
8000aa02:	e0 89 00 05 	brgt	8000aa0c <_strtod_r+0x20c>
8000aa06:	e2 03 15 01 	lsl	r3,r1,0x1
8000aa0a:	c0 78       	rjmp	8000aa18 <_strtod_r+0x218>
8000aa0c:	59 05       	cp.w	r5,16
8000aa0e:	e0 89 00 05 	brgt	8000aa18 <_strtod_r+0x218>
8000aa12:	e8 04 00 24 	add	r4,r4,r4<<0x2
8000aa16:	a1 74       	lsl	r4,0x1
8000aa18:	2f fe       	sub	lr,-1
8000aa1a:	e6 03 00 21 	add	r1,r3,r3<<0x2
8000aa1e:	ea cc ff ff 	sub	r12,r5,-1
8000aa22:	12 3e       	cp.w	lr,r9
8000aa24:	ce c5       	brlt	8000a9fc <_strtod_r+0x1fc>
8000aa26:	58 85       	cp.w	r5,8
8000aa28:	e0 89 00 05 	brgt	8000aa32 <_strtod_r+0x232>
8000aa2c:	f0 01 00 13 	add	r3,r8,r1<<0x1
8000aa30:	c0 88       	rjmp	8000aa40 <_strtod_r+0x240>
8000aa32:	59 0c       	cp.w	r12,16
8000aa34:	e0 89 00 06 	brgt	8000aa40 <_strtod_r+0x240>
8000aa38:	e8 04 00 24 	add	r4,r4,r4<<0x2
8000aa3c:	f0 04 00 14 	add	r4,r8,r4<<0x1
8000aa40:	18 95       	mov	r5,r12
8000aa42:	30 09       	mov	r9,0
8000aa44:	41 88       	lddsp	r8,sp[0x60]
8000aa46:	2f f8       	sub	r8,-1
8000aa48:	51 88       	stdsp	sp[0x60],r8
8000aa4a:	11 88       	ld.ub	r8,r8[0x0]
8000aa4c:	f0 cc 00 30 	sub	r12,r8,48
8000aa50:	58 9c       	cp.w	r12,9
8000aa52:	fe 98 ff cf 	brls	8000a9f0 <_strtod_r+0x1f0>
8000aa56:	30 1c       	mov	r12,1
8000aa58:	50 1c       	stdsp	sp[0x4],r12
8000aa5a:	c0 58       	rjmp	8000aa64 <_strtod_r+0x264>
8000aa5c:	30 09       	mov	r9,0
8000aa5e:	14 95       	mov	r5,r10
8000aa60:	12 9b       	mov	r11,r9
8000aa62:	50 19       	stdsp	sp[0x4],r9
8000aa64:	e0 48 00 45 	cp.w	r8,69
8000aa68:	5f 0e       	sreq	lr
8000aa6a:	e0 48 00 65 	cp.w	r8,101
8000aa6e:	5f 0c       	sreq	r12
8000aa70:	fd ec 10 0c 	or	r12,lr,r12
8000aa74:	c6 60       	breq	8000ab40 <_strtod_r+0x340>
8000aa76:	eb e9 10 08 	or	r8,r5,r9
8000aa7a:	00 48       	or	r8,r0
8000aa7c:	e0 80 00 de 	breq	8000ac38 <_strtod_r+0x438>
8000aa80:	41 82       	lddsp	r2,sp[0x60]
8000aa82:	e4 cc ff ff 	sub	r12,r2,-1
8000aa86:	51 8c       	stdsp	sp[0x60],r12
8000aa88:	32 be       	mov	lr,43
8000aa8a:	19 88       	ld.ub	r8,r12[0x0]
8000aa8c:	fc 08 18 00 	cp.b	r8,lr
8000aa90:	c0 60       	breq	8000aa9c <_strtod_r+0x29c>
8000aa92:	32 de       	mov	lr,45
8000aa94:	fc 08 18 00 	cp.b	r8,lr
8000aa98:	c0 51       	brne	8000aaa2 <_strtod_r+0x2a2>
8000aa9a:	c0 78       	rjmp	8000aaa8 <_strtod_r+0x2a8>
8000aa9c:	30 08       	mov	r8,0
8000aa9e:	50 c8       	stdsp	sp[0x30],r8
8000aaa0:	c0 68       	rjmp	8000aaac <_strtod_r+0x2ac>
8000aaa2:	30 01       	mov	r1,0
8000aaa4:	50 c1       	stdsp	sp[0x30],r1
8000aaa6:	c0 68       	rjmp	8000aab2 <_strtod_r+0x2b2>
8000aaa8:	30 1e       	mov	lr,1
8000aaaa:	50 ce       	stdsp	sp[0x30],lr
8000aaac:	2f fc       	sub	r12,-1
8000aaae:	51 8c       	stdsp	sp[0x60],r12
8000aab0:	19 88       	ld.ub	r8,r12[0x0]
8000aab2:	f0 cc 00 30 	sub	r12,r8,48
8000aab6:	58 9c       	cp.w	r12,9
8000aab8:	e0 88 00 08 	brls	8000aac8 <_strtod_r+0x2c8>
8000aabc:	c3 e8       	rjmp	8000ab38 <_strtod_r+0x338>
8000aabe:	41 88       	lddsp	r8,sp[0x60]
8000aac0:	2f f8       	sub	r8,-1
8000aac2:	51 88       	stdsp	sp[0x60],r8
8000aac4:	11 88       	ld.ub	r8,r8[0x0]
8000aac6:	c0 28       	rjmp	8000aaca <_strtod_r+0x2ca>
8000aac8:	40 ce       	lddsp	lr,sp[0x30]
8000aaca:	e0 48 00 30 	cp.w	r8,48
8000aace:	cf 80       	breq	8000aabe <_strtod_r+0x2be>
8000aad0:	50 ce       	stdsp	sp[0x30],lr
8000aad2:	f0 cc 00 31 	sub	r12,r8,49
8000aad6:	58 8c       	cp.w	r12,8
8000aad8:	e0 8b 00 34 	brhi	8000ab40 <_strtod_r+0x340>
8000aadc:	41 8c       	lddsp	r12,sp[0x60]
8000aade:	23 08       	sub	r8,48
8000aae0:	50 3c       	stdsp	sp[0xc],r12
8000aae2:	50 98       	stdsp	sp[0x24],r8
8000aae4:	10 9c       	mov	r12,r8
8000aae6:	c0 58       	rjmp	8000aaf0 <_strtod_r+0x2f0>
8000aae8:	23 08       	sub	r8,48
8000aaea:	40 51       	lddsp	r1,sp[0x14]
8000aaec:	f0 01 00 1c 	add	r12,r8,r1<<0x1
8000aaf0:	41 81       	lddsp	r1,sp[0x60]
8000aaf2:	f8 0c 00 28 	add	r8,r12,r12<<0x2
8000aaf6:	2f f1       	sub	r1,-1
8000aaf8:	50 58       	stdsp	sp[0x14],r8
8000aafa:	51 81       	stdsp	sp[0x60],r1
8000aafc:	03 88       	ld.ub	r8,r1[0x0]
8000aafe:	e0 48 00 2f 	cp.w	r8,47
8000ab02:	e0 8a 00 06 	brle	8000ab0e <_strtod_r+0x30e>
8000ab06:	e0 48 00 39 	cp.w	r8,57
8000ab0a:	fe 9a ff ef 	brle	8000aae8 <_strtod_r+0x2e8>
8000ab0e:	50 ce       	stdsp	sp[0x30],lr
8000ab10:	40 3e       	lddsp	lr,sp[0xc]
8000ab12:	1c 11       	sub	r1,lr
8000ab14:	50 9c       	stdsp	sp[0x24],r12
8000ab16:	58 81       	cp.w	r1,8
8000ab18:	5f 9c       	srgt	r12
8000ab1a:	40 91       	lddsp	r1,sp[0x24]
8000ab1c:	e0 41 4e 1f 	cp.w	r1,19999
8000ab20:	5f 9e       	srgt	lr
8000ab22:	1c 4c       	or	r12,lr
8000ab24:	e0 6e 4e 1f 	mov	lr,19999
8000ab28:	fc 01 17 10 	movne	r1,lr
8000ab2c:	50 31       	stdsp	sp[0xc],r1
8000ab2e:	40 cc       	lddsp	r12,sp[0x30]
8000ab30:	58 0c       	cp.w	r12,0
8000ab32:	c0 90       	breq	8000ab44 <_strtod_r+0x344>
8000ab34:	5c 31       	neg	r1
8000ab36:	c0 38       	rjmp	8000ab3c <_strtod_r+0x33c>
8000ab38:	51 82       	stdsp	sp[0x60],r2
8000ab3a:	30 01       	mov	r1,0
8000ab3c:	50 31       	stdsp	sp[0xc],r1
8000ab3e:	c0 38       	rjmp	8000ab44 <_strtod_r+0x344>
8000ab40:	30 0e       	mov	lr,0
8000ab42:	50 3e       	stdsp	sp[0xc],lr
8000ab44:	58 05       	cp.w	r5,0
8000ab46:	c7 e1       	brne	8000ac42 <_strtod_r+0x442>
8000ab48:	00 49       	or	r9,r0
8000ab4a:	e0 81 04 79 	brne	8000b43c <_strtod_r+0xc3c>
8000ab4e:	40 1c       	lddsp	r12,sp[0x4]
8000ab50:	58 0c       	cp.w	r12,0
8000ab52:	c7 31       	brne	8000ac38 <_strtod_r+0x438>
8000ab54:	e0 48 00 4e 	cp.w	r8,78
8000ab58:	c3 e0       	breq	8000abd4 <_strtod_r+0x3d4>
8000ab5a:	e0 89 00 06 	brgt	8000ab66 <_strtod_r+0x366>
8000ab5e:	e0 48 00 49 	cp.w	r8,73
8000ab62:	c6 b1       	brne	8000ac38 <_strtod_r+0x438>
8000ab64:	c0 88       	rjmp	8000ab74 <_strtod_r+0x374>
8000ab66:	e0 48 00 69 	cp.w	r8,105
8000ab6a:	c0 50       	breq	8000ab74 <_strtod_r+0x374>
8000ab6c:	e0 48 00 6e 	cp.w	r8,110
8000ab70:	c6 41       	brne	8000ac38 <_strtod_r+0x438>
8000ab72:	c3 18       	rjmp	8000abd4 <_strtod_r+0x3d4>
8000ab74:	41 88       	lddsp	r8,sp[0x60]
8000ab76:	fe ca cd 12 	sub	r10,pc,-13038
8000ab7a:	c0 d8       	rjmp	8000ab94 <_strtod_r+0x394>
8000ab7c:	2f f8       	sub	r8,-1
8000ab7e:	11 89       	ld.ub	r9,r8[0x0]
8000ab80:	e0 49 00 40 	cp.w	r9,64
8000ab84:	e0 8a 00 06 	brle	8000ab90 <_strtod_r+0x390>
8000ab88:	e0 49 00 5a 	cp.w	r9,90
8000ab8c:	f7 b9 0a e0 	suble	r9,-32
8000ab90:	16 39       	cp.w	r9,r11
8000ab92:	c5 31       	brne	8000ac38 <_strtod_r+0x438>
8000ab94:	15 3b       	ld.ub	r11,r10++
8000ab96:	58 0b       	cp.w	r11,0
8000ab98:	cf 21       	brne	8000ab7c <_strtod_r+0x37c>
8000ab9a:	51 88       	stdsp	sp[0x60],r8
8000ab9c:	10 9a       	mov	r10,r8
8000ab9e:	fe cb cd 36 	sub	r11,pc,-13002
8000aba2:	c0 c8       	rjmp	8000abba <_strtod_r+0x3ba>
8000aba4:	15 89       	ld.ub	r9,r10[0x0]
8000aba6:	e0 49 00 40 	cp.w	r9,64
8000abaa:	e0 8a 00 06 	brle	8000abb6 <_strtod_r+0x3b6>
8000abae:	e0 49 00 5a 	cp.w	r9,90
8000abb2:	f7 b9 0a e0 	suble	r9,-32
8000abb6:	18 39       	cp.w	r9,r12
8000abb8:	c0 91       	brne	8000abca <_strtod_r+0x3ca>
8000abba:	f4 c9 ff ff 	sub	r9,r10,-1
8000abbe:	17 3c       	ld.ub	r12,r11++
8000abc0:	12 9a       	mov	r10,r9
8000abc2:	58 0c       	cp.w	r12,0
8000abc4:	cf 01       	brne	8000aba4 <_strtod_r+0x3a4>
8000abc6:	51 89       	stdsp	sp[0x60],r9
8000abc8:	c0 38       	rjmp	8000abce <_strtod_r+0x3ce>
8000abca:	2f f8       	sub	r8,-1
8000abcc:	51 88       	stdsp	sp[0x60],r8
8000abce:	fc 18 7f f0 	movh	r8,0x7ff0
8000abd2:	c2 e8       	rjmp	8000ac2e <_strtod_r+0x42e>
8000abd4:	41 89       	lddsp	r9,sp[0x60]
8000abd6:	fe ca cd 66 	sub	r10,pc,-12954
8000abda:	c0 c8       	rjmp	8000abf2 <_strtod_r+0x3f2>
8000abdc:	13 88       	ld.ub	r8,r9[0x0]
8000abde:	e0 48 00 40 	cp.w	r8,64
8000abe2:	e0 8a 00 06 	brle	8000abee <_strtod_r+0x3ee>
8000abe6:	e0 48 00 5a 	cp.w	r8,90
8000abea:	f7 b8 0a e0 	suble	r8,-32
8000abee:	16 38       	cp.w	r8,r11
8000abf0:	c2 41       	brne	8000ac38 <_strtod_r+0x438>
8000abf2:	f2 c8 ff ff 	sub	r8,r9,-1
8000abf6:	15 3b       	ld.ub	r11,r10++
8000abf8:	10 99       	mov	r9,r8
8000abfa:	58 0b       	cp.w	r11,0
8000abfc:	cf 01       	brne	8000abdc <_strtod_r+0x3dc>
8000abfe:	51 88       	stdsp	sp[0x60],r8
8000ac00:	11 89       	ld.ub	r9,r8[0x0]
8000ac02:	32 88       	mov	r8,40
8000ac04:	f0 09 18 00 	cp.b	r9,r8
8000ac08:	c1 11       	brne	8000ac2a <_strtod_r+0x42a>
8000ac0a:	fa ca ff c8 	sub	r10,sp,-56
8000ac0e:	e0 6b 05 b0 	mov	r11,1456
8000ac12:	fa cc ff a0 	sub	r12,sp,-96
8000ac16:	e0 a0 0b 23 	rcall	8000c25c <__hexnan>
8000ac1a:	58 5c       	cp.w	r12,5
8000ac1c:	c0 71       	brne	8000ac2a <_strtod_r+0x42a>
8000ac1e:	40 f8       	lddsp	r8,sp[0x3c]
8000ac20:	ea 18 7f f0 	orh	r8,0x7ff0
8000ac24:	8f 08       	st.w	r7[0x0],r8
8000ac26:	40 e8       	lddsp	r8,sp[0x38]
8000ac28:	c0 58       	rjmp	8000ac32 <_strtod_r+0x432>
8000ac2a:	fc 18 7f f8 	movh	r8,0x7ff8
8000ac2e:	8f 08       	st.w	r7[0x0],r8
8000ac30:	30 08       	mov	r8,0
8000ac32:	8f 18       	st.w	r7[0x4],r8
8000ac34:	e0 8f 04 04 	bral	8000b43c <_strtod_r+0xc3c>
8000ac38:	30 0b       	mov	r11,0
8000ac3a:	51 82       	stdsp	sp[0x60],r2
8000ac3c:	50 8b       	stdsp	sp[0x20],r11
8000ac3e:	e0 8f 03 ff 	bral	8000b43c <_strtod_r+0xc3c>
8000ac42:	58 0a       	cp.w	r10,0
8000ac44:	ea 0a 17 00 	moveq	r10,r5
8000ac48:	40 31       	lddsp	r1,sp[0xc]
8000ac4a:	50 5a       	stdsp	sp[0x14],r10
8000ac4c:	16 11       	sub	r1,r11
8000ac4e:	06 9c       	mov	r12,r3
8000ac50:	e0 a0 0e 43 	rcall	8000c8d6 <__avr32_u32_to_f64>
8000ac54:	ee eb 00 00 	st.d	r7[0],r10
8000ac58:	31 02       	mov	r2,16
8000ac5a:	ea 02 0d 42 	min	r2,r5,r2
8000ac5e:	58 92       	cp.w	r2,9
8000ac60:	e0 8a 00 19 	brle	8000ac92 <_strtod_r+0x492>
8000ac64:	fa e8 00 48 	ld.d	r8,sp[72]
8000ac68:	e4 cb 00 09 	sub	r11,r2,9
8000ac6c:	fe ca cf 14 	sub	r10,pc,-12524
8000ac70:	f4 0b 02 3a 	ld.d	r10,r10[r11<<0x3]
8000ac74:	e0 a0 0b da 	rcall	8000c428 <__avr32_f64_mul>
8000ac78:	08 9c       	mov	r12,r4
8000ac7a:	fa eb 00 04 	st.d	sp[4],r10
8000ac7e:	e0 a0 0e 2c 	rcall	8000c8d6 <__avr32_u32_to_f64>
8000ac82:	14 98       	mov	r8,r10
8000ac84:	16 99       	mov	r9,r11
8000ac86:	fa ea 00 04 	ld.d	r10,sp[4]
8000ac8a:	e0 a0 0d 89 	rcall	8000c79c <__avr32_f64_add>
8000ac8e:	ee eb 00 00 	st.d	r7[0],r10
8000ac92:	58 f5       	cp.w	r5,15
8000ac94:	e0 89 00 2b 	brgt	8000acea <_strtod_r+0x4ea>
8000ac98:	58 01       	cp.w	r1,0
8000ac9a:	e0 80 03 d1 	breq	8000b43c <_strtod_r+0xc3c>
8000ac9e:	e0 8a 00 19 	brle	8000acd0 <_strtod_r+0x4d0>
8000aca2:	59 61       	cp.w	r1,22
8000aca4:	e0 8a 00 0a 	brle	8000acb8 <_strtod_r+0x4b8>
8000aca8:	ea 08 11 0f 	rsub	r8,r5,15
8000acac:	f0 c9 ff ea 	sub	r9,r8,-22
8000acb0:	12 31       	cp.w	r1,r9
8000acb2:	e0 89 00 1c 	brgt	8000acea <_strtod_r+0x4ea>
8000acb6:	10 11       	sub	r1,r8
8000acb8:	fe c8 cf 60 	sub	r8,pc,-12448
8000acbc:	fa ea 00 48 	ld.d	r10,sp[72]
8000acc0:	f0 01 02 38 	ld.d	r8,r8[r1<<0x3]
8000acc4:	e0 a0 0b b2 	rcall	8000c428 <__avr32_f64_mul>
8000acc8:	ee eb 00 00 	st.d	r7[0],r10
8000accc:	e0 8f 03 b8 	bral	8000b43c <_strtod_r+0xc3c>
8000acd0:	5a a1       	cp.w	r1,-22
8000acd2:	c0 c5       	brlt	8000acea <_strtod_r+0x4ea>
8000acd4:	fe c8 cf 7c 	sub	r8,pc,-12420
8000acd8:	fa ea 00 48 	ld.d	r10,sp[72]
8000acdc:	f0 01 01 31 	sub	r1,r8,r1<<0x3
8000ace0:	e2 e8 00 00 	ld.d	r8,r1[0]
8000ace4:	e0 a0 0e e8 	rcall	8000cab4 <__avr32_f64_div>
8000ace8:	cf 0b       	rjmp	8000acc8 <_strtod_r+0x4c8>
8000acea:	ea 02 01 04 	sub	r4,r5,r2
8000acee:	02 04       	add	r4,r1
8000acf0:	58 04       	cp.w	r4,0
8000acf2:	e0 8a 00 72 	brle	8000add6 <_strtod_r+0x5d6>
8000acf6:	f1 d4 c0 04 	bfextu	r8,r4,0x0,0x4
8000acfa:	c0 b0       	breq	8000ad10 <_strtod_r+0x510>
8000acfc:	fa ea 00 48 	ld.d	r10,sp[72]
8000ad00:	fe c9 cf a8 	sub	r9,pc,-12376
8000ad04:	f2 08 02 38 	ld.d	r8,r9[r8<<0x3]
8000ad08:	e0 a0 0b 90 	rcall	8000c428 <__avr32_f64_mul>
8000ad0c:	ee eb 00 00 	st.d	r7[0],r10
8000ad10:	e0 14 ff f0 	andl	r4,0xfff0
8000ad14:	e0 80 00 d2 	breq	8000aeb8 <_strtod_r+0x6b8>
8000ad18:	e0 44 01 34 	cp.w	r4,308
8000ad1c:	e0 8a 00 15 	brle	8000ad46 <_strtod_r+0x546>
8000ad20:	30 05       	mov	r5,0
8000ad22:	0a 92       	mov	r2,r5
8000ad24:	50 75       	stdsp	sp[0x1c],r5
8000ad26:	0a 90       	mov	r0,r5
8000ad28:	c0 28       	rjmp	8000ad2c <_strtod_r+0x52c>
8000ad2a:	06 95       	mov	r5,r3
8000ad2c:	32 28       	mov	r8,34
8000ad2e:	8d 38       	st.w	r6[0xc],r8
8000ad30:	fc 18 7f f0 	movh	r8,0x7ff0
8000ad34:	8f 08       	st.w	r7[0x0],r8
8000ad36:	30 08       	mov	r8,0
8000ad38:	8f 18       	st.w	r7[0x4],r8
8000ad3a:	40 7a       	lddsp	r10,sp[0x1c]
8000ad3c:	58 0a       	cp.w	r10,0
8000ad3e:	e0 81 03 6b 	brne	8000b414 <_strtod_r+0xc14>
8000ad42:	e0 8f 03 7d 	bral	8000b43c <_strtod_r+0xc3c>
8000ad46:	fa e8 00 48 	ld.d	r8,sp[72]
8000ad4a:	a5 44       	asr	r4,0x4
8000ad4c:	fa e9 00 04 	st.d	sp[4],r8
8000ad50:	fe c2 cf 30 	sub	r2,pc,-12496
8000ad54:	30 00       	mov	r0,0
8000ad56:	c0 f8       	rjmp	8000ad74 <_strtod_r+0x574>
8000ad58:	2f f0       	sub	r0,-1
8000ad5a:	ed b4 00 00 	bld	r4,0x0
8000ad5e:	c0 91       	brne	8000ad70 <_strtod_r+0x570>
8000ad60:	fa ea 00 04 	ld.d	r10,sp[4]
8000ad64:	e4 e8 00 00 	ld.d	r8,r2[0]
8000ad68:	e0 a0 0b 60 	rcall	8000c428 <__avr32_f64_mul>
8000ad6c:	ee eb 00 00 	st.d	r7[0],r10
8000ad70:	a1 54       	asr	r4,0x1
8000ad72:	2f 82       	sub	r2,-8
8000ad74:	58 14       	cp.w	r4,1
8000ad76:	fe 99 ff f1 	brgt	8000ad58 <_strtod_r+0x558>
8000ad7a:	41 24       	lddsp	r4,sp[0x48]
8000ad7c:	fc 18 fc b0 	movh	r8,0xfcb0
8000ad80:	e8 08 00 08 	add	r8,r4,r8
8000ad84:	8f 08       	st.w	r7[0x0],r8
8000ad86:	fe c8 cf 66 	sub	r8,pc,-12442
8000ad8a:	fa ea 00 48 	ld.d	r10,sp[72]
8000ad8e:	f0 00 02 38 	ld.d	r8,r8[r0<<0x3]
8000ad92:	e0 a0 0b 4b 	rcall	8000c428 <__avr32_f64_mul>
8000ad96:	ee eb 00 00 	st.d	r7[0],r10
8000ad9a:	08 98       	mov	r8,r4
8000ad9c:	fc 1e 7c a0 	movh	lr,0x7ca0
8000ada0:	e6 18 7f f0 	andh	r8,0x7ff0,COH
8000ada4:	1c 38       	cp.w	r8,lr
8000ada6:	fe 9b ff bd 	brhi	8000ad20 <_strtod_r+0x520>
8000adaa:	fc 1c 7c 90 	movh	r12,0x7c90
8000adae:	18 38       	cp.w	r8,r12
8000adb0:	e0 88 00 0c 	brls	8000adc8 <_strtod_r+0x5c8>
8000adb4:	e0 68 ff ff 	mov	r8,65535
8000adb8:	ea 18 7f ef 	orh	r8,0x7fef
8000adbc:	8f 08       	st.w	r7[0x0],r8
8000adbe:	3f f8       	mov	r8,-1
8000adc0:	8f 18       	st.w	r7[0x4],r8
8000adc2:	30 0b       	mov	r11,0
8000adc4:	50 1b       	stdsp	sp[0x4],r11
8000adc6:	c7 b8       	rjmp	8000aebc <_strtod_r+0x6bc>
8000adc8:	fc 18 03 50 	movh	r8,0x350
8000adcc:	10 04       	add	r4,r8
8000adce:	8f 04       	st.w	r7[0x0],r4
8000add0:	30 0a       	mov	r10,0
8000add2:	50 1a       	stdsp	sp[0x4],r10
8000add4:	c7 48       	rjmp	8000aebc <_strtod_r+0x6bc>
8000add6:	58 04       	cp.w	r4,0
8000add8:	c7 00       	breq	8000aeb8 <_strtod_r+0x6b8>
8000adda:	5c 34       	neg	r4
8000addc:	f1 d4 c0 04 	bfextu	r8,r4,0x0,0x4
8000ade0:	c0 b0       	breq	8000adf6 <_strtod_r+0x5f6>
8000ade2:	fa ea 00 48 	ld.d	r10,sp[72]
8000ade6:	fe c9 d0 8e 	sub	r9,pc,-12146
8000adea:	f2 08 02 38 	ld.d	r8,r9[r8<<0x3]
8000adee:	e0 a0 0e 63 	rcall	8000cab4 <__avr32_f64_div>
8000adf2:	ee eb 00 00 	st.d	r7[0],r10
8000adf6:	a5 44       	asr	r4,0x4
8000adf8:	c6 00       	breq	8000aeb8 <_strtod_r+0x6b8>
8000adfa:	59 f4       	cp.w	r4,31
8000adfc:	e0 89 00 4c 	brgt	8000ae94 <_strtod_r+0x694>
8000ae00:	08 98       	mov	r8,r4
8000ae02:	e2 18 00 10 	andl	r8,0x10,COH
8000ae06:	f9 b8 01 6a 	movne	r8,106
8000ae0a:	fe c2 cf 96 	sub	r2,pc,-12394
8000ae0e:	50 18       	stdsp	sp[0x4],r8
8000ae10:	fa e8 00 48 	ld.d	r8,sp[72]
8000ae14:	fa e9 00 0c 	st.d	sp[12],r8
8000ae18:	c0 f8       	rjmp	8000ae36 <_strtod_r+0x636>
8000ae1a:	d7 03       	nop
8000ae1c:	ed b4 00 00 	bld	r4,0x0
8000ae20:	c0 91       	brne	8000ae32 <_strtod_r+0x632>
8000ae22:	fa ea 00 0c 	ld.d	r10,sp[12]
8000ae26:	e4 e8 00 00 	ld.d	r8,r2[0]
8000ae2a:	e0 a0 0a ff 	rcall	8000c428 <__avr32_f64_mul>
8000ae2e:	ee eb 00 00 	st.d	r7[0],r10
8000ae32:	a1 54       	asr	r4,0x1
8000ae34:	2f 82       	sub	r2,-8
8000ae36:	58 04       	cp.w	r4,0
8000ae38:	fe 99 ff f2 	brgt	8000ae1c <_strtod_r+0x61c>
8000ae3c:	40 18       	lddsp	r8,sp[0x4]
8000ae3e:	58 08       	cp.w	r8,0
8000ae40:	c2 30       	breq	8000ae86 <_strtod_r+0x686>
8000ae42:	41 29       	lddsp	r9,sp[0x48]
8000ae44:	f1 d9 c2 8b 	bfextu	r8,r9,0x14,0xb
8000ae48:	f0 08 11 6b 	rsub	r8,r8,107
8000ae4c:	58 08       	cp.w	r8,0
8000ae4e:	e0 8a 00 1c 	brle	8000ae86 <_strtod_r+0x686>
8000ae52:	59 f8       	cp.w	r8,31
8000ae54:	e0 8a 00 13 	brle	8000ae7a <_strtod_r+0x67a>
8000ae58:	30 0a       	mov	r10,0
8000ae5a:	8f 1a       	st.w	r7[0x4],r10
8000ae5c:	e0 48 00 34 	cp.w	r8,52
8000ae60:	e0 8a 00 06 	brle	8000ae6c <_strtod_r+0x66c>
8000ae64:	fc 18 03 70 	movh	r8,0x370
8000ae68:	8f 08       	st.w	r7[0x0],r8
8000ae6a:	c0 e8       	rjmp	8000ae86 <_strtod_r+0x686>
8000ae6c:	3f fa       	mov	r10,-1
8000ae6e:	f4 08 09 48 	lsl	r8,r10,r8
8000ae72:	f1 e9 00 09 	and	r9,r8,r9
8000ae76:	8f 09       	st.w	r7[0x0],r9
8000ae78:	c0 78       	rjmp	8000ae86 <_strtod_r+0x686>
8000ae7a:	3f f9       	mov	r9,-1
8000ae7c:	f2 08 09 48 	lsl	r8,r9,r8
8000ae80:	41 39       	lddsp	r9,sp[0x4c]
8000ae82:	12 68       	and	r8,r9
8000ae84:	8f 18       	st.w	r7[0x4],r8
8000ae86:	30 08       	mov	r8,0
8000ae88:	30 09       	mov	r9,0
8000ae8a:	fa ea 00 48 	ld.d	r10,sp[72]
8000ae8e:	e0 a0 0d 98 	rcall	8000c9be <__avr32_f64_cmp_eq>
8000ae92:	c1 50       	breq	8000aebc <_strtod_r+0x6bc>
8000ae94:	30 05       	mov	r5,0
8000ae96:	0a 92       	mov	r2,r5
8000ae98:	50 75       	stdsp	sp[0x1c],r5
8000ae9a:	0a 90       	mov	r0,r5
8000ae9c:	c0 28       	rjmp	8000aea0 <_strtod_r+0x6a0>
8000ae9e:	06 95       	mov	r5,r3
8000aea0:	30 08       	mov	r8,0
8000aea2:	30 09       	mov	r9,0
8000aea4:	ee e9 00 00 	st.d	r7[0],r8
8000aea8:	32 28       	mov	r8,34
8000aeaa:	8d 38       	st.w	r6[0xc],r8
8000aeac:	40 71       	lddsp	r1,sp[0x1c]
8000aeae:	58 01       	cp.w	r1,0
8000aeb0:	e0 81 02 b2 	brne	8000b414 <_strtod_r+0xc14>
8000aeb4:	e0 8f 02 c4 	bral	8000b43c <_strtod_r+0xc3c>
8000aeb8:	30 0e       	mov	lr,0
8000aeba:	50 1e       	stdsp	sp[0x4],lr
8000aebc:	06 98       	mov	r8,r3
8000aebe:	0a 99       	mov	r9,r5
8000aec0:	40 5a       	lddsp	r10,sp[0x14]
8000aec2:	40 7b       	lddsp	r11,sp[0x1c]
8000aec4:	0c 9c       	mov	r12,r6
8000aec6:	fe b0 f9 91 	rcall	8000a1e8 <__s2b>
8000aeca:	50 7c       	stdsp	sp[0x1c],r12
8000aecc:	2f 4c       	sub	r12,-12
8000aece:	50 dc       	stdsp	sp[0x34],r12
8000aed0:	e2 0c 11 00 	rsub	r12,r1,0
8000aed4:	50 cc       	stdsp	sp[0x30],r12
8000aed6:	40 7a       	lddsp	r10,sp[0x1c]
8000aed8:	0c 9c       	mov	r12,r6
8000aeda:	74 1b       	ld.w	r11,r10[0x4]
8000aedc:	fe b0 f7 44 	rcall	80009d64 <_Balloc>
8000aee0:	40 79       	lddsp	r9,sp[0x1c]
8000aee2:	40 db       	lddsp	r11,sp[0x34]
8000aee4:	72 4a       	ld.w	r10,r9[0x10]
8000aee6:	18 90       	mov	r0,r12
8000aee8:	2f ea       	sub	r10,-2
8000aeea:	2f 4c       	sub	r12,-12
8000aeec:	a3 6a       	lsl	r10,0x2
8000aeee:	fe b0 ca 89 	rcall	80004400 <memcpy>
8000aef2:	fa ea 00 48 	ld.d	r10,sp[72]
8000aef6:	fa c8 ff 9c 	sub	r8,sp,-100
8000aefa:	fa c9 ff 98 	sub	r9,sp,-104
8000aefe:	0c 9c       	mov	r12,r6
8000af00:	fe b0 f7 6a 	rcall	80009dd4 <__d2b>
8000af04:	30 1b       	mov	r11,1
8000af06:	51 7c       	stdsp	sp[0x5c],r12
8000af08:	0c 9c       	mov	r12,r6
8000af0a:	fe b0 f8 e3 	rcall	8000a0d0 <__i2b>
8000af0e:	41 ab       	lddsp	r11,sp[0x68]
8000af10:	58 01       	cp.w	r1,0
8000af12:	f9 ba 04 00 	movge	r10,0
8000af16:	e2 03 17 40 	movge	r3,r1
8000af1a:	e2 05 17 40 	movge	r5,r1
8000af1e:	f4 08 17 40 	movge	r8,r10
8000af22:	f9 b3 05 00 	movlt	r3,0
8000af26:	fb fa 50 0c 	ld.wlt	r10,sp[0x30]
8000af2a:	f4 08 17 50 	movlt	r8,r10
8000af2e:	e6 05 17 50 	movlt	r5,r3
8000af32:	18 92       	mov	r2,r12
8000af34:	58 0b       	cp.w	r11,0
8000af36:	c0 45       	brlt	8000af3e <_strtod_r+0x73e>
8000af38:	f4 0b 00 08 	add	r8,r10,r11
8000af3c:	c0 28       	rjmp	8000af40 <_strtod_r+0x740>
8000af3e:	16 15       	sub	r5,r11
8000af40:	40 1e       	lddsp	lr,sp[0x4]
8000af42:	41 99       	lddsp	r9,sp[0x64]
8000af44:	1c 1b       	sub	r11,lr
8000af46:	1c 05       	add	r5,lr
8000af48:	f6 cc fb cd 	sub	r12,r11,-1075
8000af4c:	f2 0e 11 36 	rsub	lr,r9,54
8000af50:	f6 09 00 09 	add	r9,r11,r9
8000af54:	fe 59 fc 02 	cp.w	r9,-1022
8000af58:	fc 09 17 90 	movgt	r9,lr
8000af5c:	f8 09 17 a0 	movle	r9,r12
8000af60:	12 05       	add	r5,r9
8000af62:	f2 08 00 04 	add	r4,r9,r8
8000af66:	e8 05 0d 49 	min	r9,r4,r5
8000af6a:	f2 08 0d 49 	min	r9,r9,r8
8000af6e:	58 09       	cp.w	r9,0
8000af70:	e0 89 00 04 	brgt	8000af78 <_strtod_r+0x778>
8000af74:	50 38       	stdsp	sp[0xc],r8
8000af76:	c0 58       	rjmp	8000af80 <_strtod_r+0x780>
8000af78:	12 18       	sub	r8,r9
8000af7a:	12 14       	sub	r4,r9
8000af7c:	50 38       	stdsp	sp[0xc],r8
8000af7e:	12 15       	sub	r5,r9
8000af80:	58 0a       	cp.w	r10,0
8000af82:	c1 30       	breq	8000afa8 <_strtod_r+0x7a8>
8000af84:	04 9b       	mov	r11,r2
8000af86:	0c 9c       	mov	r12,r6
8000af88:	fe b0 f8 ea 	rcall	8000a15c <__pow5mult>
8000af8c:	41 7a       	lddsp	r10,sp[0x5c]
8000af8e:	18 9b       	mov	r11,r12
8000af90:	18 92       	mov	r2,r12
8000af92:	0c 9c       	mov	r12,r6
8000af94:	fe b0 f8 1e 	rcall	80009fd0 <__multiply>
8000af98:	18 98       	mov	r8,r12
8000af9a:	41 7b       	lddsp	r11,sp[0x5c]
8000af9c:	50 08       	stdsp	sp[0x0],r8
8000af9e:	0c 9c       	mov	r12,r6
8000afa0:	fe b0 f6 c8 	rcall	80009d30 <_Bfree>
8000afa4:	40 08       	lddsp	r8,sp[0x0]
8000afa6:	51 78       	stdsp	sp[0x5c],r8
8000afa8:	58 04       	cp.w	r4,0
8000afaa:	e0 8a 00 08 	brle	8000afba <_strtod_r+0x7ba>
8000afae:	08 9a       	mov	r10,r4
8000afb0:	41 7b       	lddsp	r11,sp[0x5c]
8000afb2:	0c 9c       	mov	r12,r6
8000afb4:	fe b0 f7 ca 	rcall	80009f48 <__lshift>
8000afb8:	51 7c       	stdsp	sp[0x5c],r12
8000afba:	58 03       	cp.w	r3,0
8000afbc:	c0 70       	breq	8000afca <_strtod_r+0x7ca>
8000afbe:	00 9b       	mov	r11,r0
8000afc0:	06 9a       	mov	r10,r3
8000afc2:	0c 9c       	mov	r12,r6
8000afc4:	fe b0 f8 cc 	rcall	8000a15c <__pow5mult>
8000afc8:	18 90       	mov	r0,r12
8000afca:	58 05       	cp.w	r5,0
8000afcc:	e0 8a 00 08 	brle	8000afdc <_strtod_r+0x7dc>
8000afd0:	00 9b       	mov	r11,r0
8000afd2:	0a 9a       	mov	r10,r5
8000afd4:	0c 9c       	mov	r12,r6
8000afd6:	fe b0 f7 b9 	rcall	80009f48 <__lshift>
8000afda:	18 90       	mov	r0,r12
8000afdc:	40 3c       	lddsp	r12,sp[0xc]
8000afde:	58 0c       	cp.w	r12,0
8000afe0:	e0 8a 00 08 	brle	8000aff0 <_strtod_r+0x7f0>
8000afe4:	18 9a       	mov	r10,r12
8000afe6:	04 9b       	mov	r11,r2
8000afe8:	0c 9c       	mov	r12,r6
8000afea:	fe b0 f7 af 	rcall	80009f48 <__lshift>
8000afee:	18 92       	mov	r2,r12
8000aff0:	00 9a       	mov	r10,r0
8000aff2:	41 7b       	lddsp	r11,sp[0x5c]
8000aff4:	0c 9c       	mov	r12,r6
8000aff6:	fe b0 f7 41 	rcall	80009e78 <__mdiff>
8000affa:	30 09       	mov	r9,0
8000affc:	78 3a       	ld.w	r10,r12[0xc]
8000affe:	18 93       	mov	r3,r12
8000b000:	04 9b       	mov	r11,r2
8000b002:	50 3a       	stdsp	sp[0xc],r10
8000b004:	99 39       	st.w	r12[0xc],r9
8000b006:	fe b0 f5 a6 	rcall	80009b52 <__mcmp>
8000b00a:	c2 a4       	brge	8000b05e <_strtod_r+0x85e>
8000b00c:	06 95       	mov	r5,r3
8000b00e:	40 38       	lddsp	r8,sp[0xc]
8000b010:	58 08       	cp.w	r8,0
8000b012:	e0 81 01 e5 	brne	8000b3dc <_strtod_r+0xbdc>
8000b016:	41 38       	lddsp	r8,sp[0x4c]
8000b018:	58 08       	cp.w	r8,0
8000b01a:	e0 81 01 e1 	brne	8000b3dc <_strtod_r+0xbdc>
8000b01e:	41 28       	lddsp	r8,sp[0x48]
8000b020:	f3 d8 c0 14 	bfextu	r9,r8,0x0,0x14
8000b024:	e0 81 01 dc 	brne	8000b3dc <_strtod_r+0xbdc>
8000b028:	e6 18 7f f0 	andh	r8,0x7ff0,COH
8000b02c:	fc 11 06 b0 	movh	r1,0x6b0
8000b030:	02 38       	cp.w	r8,r1
8000b032:	e0 88 01 d5 	brls	8000b3dc <_strtod_r+0xbdc>
8000b036:	66 58       	ld.w	r8,r3[0x14]
8000b038:	58 08       	cp.w	r8,0
8000b03a:	c0 51       	brne	8000b044 <_strtod_r+0x844>
8000b03c:	66 48       	ld.w	r8,r3[0x10]
8000b03e:	58 18       	cp.w	r8,1
8000b040:	e0 8a 01 ce 	brle	8000b3dc <_strtod_r+0xbdc>
8000b044:	0a 9b       	mov	r11,r5
8000b046:	30 1a       	mov	r10,1
8000b048:	0c 9c       	mov	r12,r6
8000b04a:	fe b0 f7 7f 	rcall	80009f48 <__lshift>
8000b04e:	04 9b       	mov	r11,r2
8000b050:	18 95       	mov	r5,r12
8000b052:	fe b0 f5 80 	rcall	80009b52 <__mcmp>
8000b056:	e0 89 00 33 	brgt	8000b0bc <_strtod_r+0x8bc>
8000b05a:	e0 8f 01 c1 	bral	8000b3dc <_strtod_r+0xbdc>
8000b05e:	58 0c       	cp.w	r12,0
8000b060:	c7 91       	brne	8000b152 <_strtod_r+0x952>
8000b062:	06 95       	mov	r5,r3
8000b064:	41 28       	lddsp	r8,sp[0x48]
8000b066:	40 3e       	lddsp	lr,sp[0xc]
8000b068:	58 0e       	cp.w	lr,0
8000b06a:	c2 30       	breq	8000b0b0 <_strtod_r+0x8b0>
8000b06c:	f3 d8 c0 14 	bfextu	r9,r8,0x0,0x14
8000b070:	ee 59 ff ff 	cp.w	r9,1048575
8000b074:	c4 31       	brne	8000b0fa <_strtod_r+0x8fa>
8000b076:	41 3a       	lddsp	r10,sp[0x4c]
8000b078:	40 1c       	lddsp	r12,sp[0x4]
8000b07a:	58 0c       	cp.w	r12,0
8000b07c:	c1 00       	breq	8000b09c <_strtod_r+0x89c>
8000b07e:	10 99       	mov	r9,r8
8000b080:	fc 1b 06 a0 	movh	r11,0x6a0
8000b084:	e6 19 7f f0 	andh	r9,0x7ff0,COH
8000b088:	16 39       	cp.w	r9,r11
8000b08a:	e0 8b 00 09 	brhi	8000b09c <_strtod_r+0x89c>
8000b08e:	b5 89       	lsr	r9,0x14
8000b090:	3f fb       	mov	r11,-1
8000b092:	f2 09 11 6b 	rsub	r9,r9,107
8000b096:	f6 09 09 49 	lsl	r9,r11,r9
8000b09a:	c0 28       	rjmp	8000b09e <_strtod_r+0x89e>
8000b09c:	3f f9       	mov	r9,-1
8000b09e:	12 3a       	cp.w	r10,r9
8000b0a0:	c2 d1       	brne	8000b0fa <_strtod_r+0x8fa>
8000b0a2:	e6 18 7f f0 	andh	r8,0x7ff0,COH
8000b0a6:	f0 28 00 00 	sub	r8,-1048576
8000b0aa:	8f 08       	st.w	r7[0x0],r8
8000b0ac:	30 08       	mov	r8,0
8000b0ae:	c2 48       	rjmp	8000b0f6 <_strtod_r+0x8f6>
8000b0b0:	f1 d8 c0 14 	bfextu	r8,r8,0x0,0x14
8000b0b4:	c2 31       	brne	8000b0fa <_strtod_r+0x8fa>
8000b0b6:	41 38       	lddsp	r8,sp[0x4c]
8000b0b8:	58 08       	cp.w	r8,0
8000b0ba:	c2 01       	brne	8000b0fa <_strtod_r+0x8fa>
8000b0bc:	40 1a       	lddsp	r10,sp[0x4]
8000b0be:	58 0a       	cp.w	r10,0
8000b0c0:	c0 f0       	breq	8000b0de <_strtod_r+0x8de>
8000b0c2:	41 28       	lddsp	r8,sp[0x48]
8000b0c4:	fc 19 06 b0 	movh	r9,0x6b0
8000b0c8:	e6 18 7f f0 	andh	r8,0x7ff0,COH
8000b0cc:	12 38       	cp.w	r8,r9
8000b0ce:	e0 8b 00 08 	brhi	8000b0de <_strtod_r+0x8de>
8000b0d2:	fc 11 03 70 	movh	r1,0x370
8000b0d6:	02 38       	cp.w	r8,r1
8000b0d8:	e0 8b 01 85 	brhi	8000b3e2 <_strtod_r+0xbe2>
8000b0dc:	ce 2a       	rjmp	8000aea0 <_strtod_r+0x6a0>
8000b0de:	41 28       	lddsp	r8,sp[0x48]
8000b0e0:	f0 69 00 00 	mov	r9,-1048576
8000b0e4:	e6 18 7f f0 	andh	r8,0x7ff0,COH
8000b0e8:	12 08       	add	r8,r9
8000b0ea:	ea 18 00 0f 	orh	r8,0xf
8000b0ee:	e8 18 ff ff 	orl	r8,0xffff
8000b0f2:	8f 08       	st.w	r7[0x0],r8
8000b0f4:	3f f8       	mov	r8,-1
8000b0f6:	8f 18       	st.w	r7[0x4],r8
8000b0f8:	c7 29       	rjmp	8000b3dc <_strtod_r+0xbdc>
8000b0fa:	41 38       	lddsp	r8,sp[0x4c]
8000b0fc:	ed b8 00 00 	bld	r8,0x0
8000b100:	e0 81 01 6e 	brne	8000b3dc <_strtod_r+0xbdc>
8000b104:	fa ea 00 48 	ld.d	r10,sp[72]
8000b108:	fa eb 00 14 	st.d	sp[20],r10
8000b10c:	40 3a       	lddsp	r10,sp[0xc]
8000b10e:	58 0a       	cp.w	r10,0
8000b110:	c0 e0       	breq	8000b12c <_strtod_r+0x92c>
8000b112:	fa ea 00 14 	ld.d	r10,sp[20]
8000b116:	fe b0 f5 37 	rcall	80009b84 <__ulp>
8000b11a:	14 98       	mov	r8,r10
8000b11c:	16 99       	mov	r9,r11
8000b11e:	fa ea 00 14 	ld.d	r10,sp[20]
8000b122:	e0 a0 0b 3d 	rcall	8000c79c <__avr32_f64_add>
8000b126:	ee eb 00 00 	st.d	r7[0],r10
8000b12a:	c5 99       	rjmp	8000b3dc <_strtod_r+0xbdc>
8000b12c:	fa ea 00 14 	ld.d	r10,sp[20]
8000b130:	fe b0 f5 2a 	rcall	80009b84 <__ulp>
8000b134:	14 98       	mov	r8,r10
8000b136:	16 99       	mov	r9,r11
8000b138:	fa ea 00 14 	ld.d	r10,sp[20]
8000b13c:	e0 a0 0a 62 	rcall	8000c600 <__avr32_f64_sub>
8000b140:	30 08       	mov	r8,0
8000b142:	ee eb 00 00 	st.d	r7[0],r10
8000b146:	30 09       	mov	r9,0
8000b148:	e0 a0 0c 3b 	rcall	8000c9be <__avr32_f64_cmp_eq>
8000b14c:	e0 80 01 48 	breq	8000b3dc <_strtod_r+0xbdc>
8000b150:	ca 8a       	rjmp	8000aea0 <_strtod_r+0x6a0>
8000b152:	04 9b       	mov	r11,r2
8000b154:	06 9c       	mov	r12,r3
8000b156:	fe b0 f5 87 	rcall	80009c64 <__ratio>
8000b15a:	16 95       	mov	r5,r11
8000b15c:	14 94       	mov	r4,r10
8000b15e:	14 98       	mov	r8,r10
8000b160:	0a 99       	mov	r9,r5
8000b162:	30 0a       	mov	r10,0
8000b164:	fc 1b 40 00 	movh	r11,0x4000
8000b168:	e0 a0 0c 3e 	rcall	8000c9e4 <__avr32_f64_cmp_ge>
8000b16c:	c3 a0       	breq	8000b1e0 <_strtod_r+0x9e0>
8000b16e:	40 39       	lddsp	r9,sp[0xc]
8000b170:	58 09       	cp.w	r9,0
8000b172:	c0 50       	breq	8000b17c <_strtod_r+0x97c>
8000b174:	30 08       	mov	r8,0
8000b176:	fc 19 3f f0 	movh	r9,0x3ff0
8000b17a:	c1 28       	rjmp	8000b19e <_strtod_r+0x99e>
8000b17c:	41 38       	lddsp	r8,sp[0x4c]
8000b17e:	58 08       	cp.w	r8,0
8000b180:	c0 61       	brne	8000b18c <_strtod_r+0x98c>
8000b182:	41 28       	lddsp	r8,sp[0x48]
8000b184:	f1 d8 c0 14 	bfextu	r8,r8,0x0,0x14
8000b188:	c0 81       	brne	8000b198 <_strtod_r+0x998>
8000b18a:	c1 08       	rjmp	8000b1aa <_strtod_r+0x9aa>
8000b18c:	58 18       	cp.w	r8,1
8000b18e:	c0 51       	brne	8000b198 <_strtod_r+0x998>
8000b190:	41 28       	lddsp	r8,sp[0x48]
8000b192:	58 08       	cp.w	r8,0
8000b194:	fe 90 fe 85 	breq	8000ae9e <_strtod_r+0x69e>
8000b198:	30 08       	mov	r8,0
8000b19a:	fc 19 bf f0 	movh	r9,0xbff0
8000b19e:	fa e9 00 50 	st.d	sp[80],r8
8000b1a2:	fc 15 3f f0 	movh	r5,0x3ff0
8000b1a6:	30 04       	mov	r4,0
8000b1a8:	c3 18       	rjmp	8000b20a <_strtod_r+0xa0a>
8000b1aa:	30 08       	mov	r8,0
8000b1ac:	fc 19 3f f0 	movh	r9,0x3ff0
8000b1b0:	08 9a       	mov	r10,r4
8000b1b2:	0a 9b       	mov	r11,r5
8000b1b4:	e0 a0 0c 4c 	rcall	8000ca4c <__avr32_f64_cmp_lt>
8000b1b8:	c0 50       	breq	8000b1c2 <_strtod_r+0x9c2>
8000b1ba:	fc 15 3f e0 	movh	r5,0x3fe0
8000b1be:	30 04       	mov	r4,0
8000b1c0:	c0 a8       	rjmp	8000b1d4 <_strtod_r+0x9d4>
8000b1c2:	08 9a       	mov	r10,r4
8000b1c4:	0a 9b       	mov	r11,r5
8000b1c6:	30 08       	mov	r8,0
8000b1c8:	fc 19 3f e0 	movh	r9,0x3fe0
8000b1cc:	e0 a0 09 2e 	rcall	8000c428 <__avr32_f64_mul>
8000b1d0:	16 95       	mov	r5,r11
8000b1d2:	14 94       	mov	r4,r10
8000b1d4:	0a 98       	mov	r8,r5
8000b1d6:	51 54       	stdsp	sp[0x54],r4
8000b1d8:	ee 18 80 00 	eorh	r8,0x8000
8000b1dc:	51 48       	stdsp	sp[0x50],r8
8000b1de:	c1 68       	rjmp	8000b20a <_strtod_r+0xa0a>
8000b1e0:	08 9a       	mov	r10,r4
8000b1e2:	0a 9b       	mov	r11,r5
8000b1e4:	30 08       	mov	r8,0
8000b1e6:	fc 19 3f e0 	movh	r9,0x3fe0
8000b1ea:	e0 a0 09 1f 	rcall	8000c428 <__avr32_f64_mul>
8000b1ee:	40 3e       	lddsp	lr,sp[0xc]
8000b1f0:	16 95       	mov	r5,r11
8000b1f2:	14 94       	mov	r4,r10
8000b1f4:	0a 9a       	mov	r10,r5
8000b1f6:	08 98       	mov	r8,r4
8000b1f8:	ee 1a 80 00 	eorh	r10,0x8000
8000b1fc:	58 0e       	cp.w	lr,0
8000b1fe:	f4 09 17 00 	moveq	r9,r10
8000b202:	ea 09 17 10 	movne	r9,r5
8000b206:	fa e9 00 50 	st.d	sp[80],r8
8000b20a:	41 29       	lddsp	r9,sp[0x48]
8000b20c:	12 9c       	mov	r12,r9
8000b20e:	e6 1c 7f f0 	andh	r12,0x7ff0,COH
8000b212:	50 5c       	stdsp	sp[0x14],r12
8000b214:	fc 1b 7f e0 	movh	r11,0x7fe0
8000b218:	16 3c       	cp.w	r12,r11
8000b21a:	c4 11       	brne	8000b29c <_strtod_r+0xa9c>
8000b21c:	fa ea 00 48 	ld.d	r10,sp[72]
8000b220:	fc 18 fc b0 	movh	r8,0xfcb0
8000b224:	fa eb 00 40 	st.d	sp[64],r10
8000b228:	f2 08 00 08 	add	r8,r9,r8
8000b22c:	8f 08       	st.w	r7[0x0],r8
8000b22e:	fa e8 00 50 	ld.d	r8,sp[80]
8000b232:	fa e9 00 24 	st.d	sp[36],r8
8000b236:	fe b0 f4 a7 	rcall	80009b84 <__ulp>
8000b23a:	14 98       	mov	r8,r10
8000b23c:	16 99       	mov	r9,r11
8000b23e:	fa ea 00 24 	ld.d	r10,sp[36]
8000b242:	e0 a0 08 f3 	rcall	8000c428 <__avr32_f64_mul>
8000b246:	14 98       	mov	r8,r10
8000b248:	16 99       	mov	r9,r11
8000b24a:	fa ea 00 48 	ld.d	r10,sp[72]
8000b24e:	e0 a0 0a a7 	rcall	8000c79c <__avr32_f64_add>
8000b252:	ee eb 00 00 	st.d	r7[0],r10
8000b256:	e0 6e ff ff 	mov	lr,65535
8000b25a:	ea 1e 7c 9f 	orh	lr,0x7c9f
8000b25e:	41 28       	lddsp	r8,sp[0x48]
8000b260:	10 99       	mov	r9,r8
8000b262:	e6 19 7f f0 	andh	r9,0x7ff0,COH
8000b266:	1c 39       	cp.w	r9,lr
8000b268:	e0 88 00 15 	brls	8000b292 <_strtod_r+0xa92>
8000b26c:	41 08       	lddsp	r8,sp[0x40]
8000b26e:	e0 6c ff ff 	mov	r12,65535
8000b272:	ea 1c 7f ef 	orh	r12,0x7fef
8000b276:	18 38       	cp.w	r8,r12
8000b278:	c0 51       	brne	8000b282 <_strtod_r+0xa82>
8000b27a:	41 18       	lddsp	r8,sp[0x44]
8000b27c:	5b f8       	cp.w	r8,-1
8000b27e:	fe 90 fd 56 	breq	8000ad2a <_strtod_r+0x52a>
8000b282:	e0 68 ff ff 	mov	r8,65535
8000b286:	ea 18 7f ef 	orh	r8,0x7fef
8000b28a:	8f 08       	st.w	r7[0x0],r8
8000b28c:	3f f8       	mov	r8,-1
8000b28e:	8f 18       	st.w	r7[0x4],r8
8000b290:	c9 48       	rjmp	8000b3b8 <_strtod_r+0xbb8>
8000b292:	fc 19 03 50 	movh	r9,0x350
8000b296:	12 08       	add	r8,r9
8000b298:	8f 08       	st.w	r7[0x0],r8
8000b29a:	c4 b8       	rjmp	8000b330 <_strtod_r+0xb30>
8000b29c:	40 1b       	lddsp	r11,sp[0x4]
8000b29e:	40 5a       	lddsp	r10,sp[0x14]
8000b2a0:	58 0b       	cp.w	r11,0
8000b2a2:	5f 19       	srne	r9
8000b2a4:	fc 18 06 a0 	movh	r8,0x6a0
8000b2a8:	10 3a       	cp.w	r10,r8
8000b2aa:	5f 88       	srls	r8
8000b2ac:	f3 e8 00 08 	and	r8,r9,r8
8000b2b0:	c2 a0       	breq	8000b304 <_strtod_r+0xb04>
8000b2b2:	fc 1a ff c0 	movh	r10,0xffc0
8000b2b6:	e0 6b ff ff 	mov	r11,65535
8000b2ba:	ea 1b 41 df 	orh	r11,0x41df
8000b2be:	0a 99       	mov	r9,r5
8000b2c0:	08 98       	mov	r8,r4
8000b2c2:	e0 a0 0b 91 	rcall	8000c9e4 <__avr32_f64_cmp_ge>
8000b2c6:	c1 70       	breq	8000b2f4 <_strtod_r+0xaf4>
8000b2c8:	0a 9b       	mov	r11,r5
8000b2ca:	08 9a       	mov	r10,r4
8000b2cc:	e0 a0 0a f0 	rcall	8000c8ac <__avr32_f64_to_u32>
8000b2d0:	f9 bc 00 01 	moveq	r12,1
8000b2d4:	e0 a0 0b 01 	rcall	8000c8d6 <__avr32_u32_to_f64>
8000b2d8:	40 3e       	lddsp	lr,sp[0xc]
8000b2da:	16 95       	mov	r5,r11
8000b2dc:	14 94       	mov	r4,r10
8000b2de:	0a 9a       	mov	r10,r5
8000b2e0:	08 98       	mov	r8,r4
8000b2e2:	ee 1a 80 00 	eorh	r10,0x8000
8000b2e6:	58 0e       	cp.w	lr,0
8000b2e8:	f4 09 17 00 	moveq	r9,r10
8000b2ec:	ea 09 17 10 	movne	r9,r5
8000b2f0:	fa e9 00 50 	st.d	sp[80],r8
8000b2f4:	41 49       	lddsp	r9,sp[0x50]
8000b2f6:	fc 18 06 b0 	movh	r8,0x6b0
8000b2fa:	40 5c       	lddsp	r12,sp[0x14]
8000b2fc:	f2 08 00 08 	add	r8,r9,r8
8000b300:	18 18       	sub	r8,r12
8000b302:	51 48       	stdsp	sp[0x50],r8
8000b304:	fa ea 00 50 	ld.d	r10,sp[80]
8000b308:	fa eb 00 24 	st.d	sp[36],r10
8000b30c:	fa ea 00 48 	ld.d	r10,sp[72]
8000b310:	fe b0 f4 3a 	rcall	80009b84 <__ulp>
8000b314:	14 98       	mov	r8,r10
8000b316:	16 99       	mov	r9,r11
8000b318:	fa ea 00 24 	ld.d	r10,sp[36]
8000b31c:	e0 a0 08 86 	rcall	8000c428 <__avr32_f64_mul>
8000b320:	14 98       	mov	r8,r10
8000b322:	16 99       	mov	r9,r11
8000b324:	fa ea 00 48 	ld.d	r10,sp[72]
8000b328:	e0 a0 0a 3a 	rcall	8000c79c <__avr32_f64_add>
8000b32c:	ee eb 00 00 	st.d	r7[0],r10
8000b330:	41 2a       	lddsp	r10,sp[0x48]
8000b332:	50 9a       	stdsp	sp[0x24],r10
8000b334:	40 19       	lddsp	r9,sp[0x4]
8000b336:	58 09       	cp.w	r9,0
8000b338:	c4 01       	brne	8000b3b8 <_strtod_r+0xbb8>
8000b33a:	14 98       	mov	r8,r10
8000b33c:	40 5e       	lddsp	lr,sp[0x14]
8000b33e:	e6 18 7f f0 	andh	r8,0x7ff0,COH
8000b342:	10 3e       	cp.w	lr,r8
8000b344:	c3 a1       	brne	8000b3b8 <_strtod_r+0xbb8>
8000b346:	0a 9b       	mov	r11,r5
8000b348:	08 9a       	mov	r10,r4
8000b34a:	e0 a0 0a b3 	rcall	8000c8b0 <__avr32_f64_to_s32>
8000b34e:	e0 a0 0a c8 	rcall	8000c8de <__avr32_s32_to_f64>
8000b352:	14 98       	mov	r8,r10
8000b354:	16 99       	mov	r9,r11
8000b356:	08 9a       	mov	r10,r4
8000b358:	0a 9b       	mov	r11,r5
8000b35a:	e0 a0 09 53 	rcall	8000c600 <__avr32_f64_sub>
8000b35e:	40 3c       	lddsp	r12,sp[0xc]
8000b360:	14 94       	mov	r4,r10
8000b362:	16 95       	mov	r5,r11
8000b364:	58 0c       	cp.w	r12,0
8000b366:	c0 81       	brne	8000b376 <_strtod_r+0xb76>
8000b368:	41 38       	lddsp	r8,sp[0x4c]
8000b36a:	58 08       	cp.w	r8,0
8000b36c:	c0 51       	brne	8000b376 <_strtod_r+0xb76>
8000b36e:	40 99       	lddsp	r9,sp[0x24]
8000b370:	f1 d9 c0 14 	bfextu	r8,r9,0x0,0x14
8000b374:	c1 70       	breq	8000b3a2 <_strtod_r+0xba2>
8000b376:	e0 68 35 95 	mov	r8,13717
8000b37a:	ea 18 94 a0 	orh	r8,0x94a0
8000b37e:	e0 69 ff ff 	mov	r9,65535
8000b382:	ea 19 3f df 	orh	r9,0x3fdf
8000b386:	08 9a       	mov	r10,r4
8000b388:	0a 9b       	mov	r11,r5
8000b38a:	e0 a0 0b 61 	rcall	8000ca4c <__avr32_f64_cmp_lt>
8000b38e:	c4 21       	brne	8000b412 <_strtod_r+0xc12>
8000b390:	08 98       	mov	r8,r4
8000b392:	0a 99       	mov	r9,r5
8000b394:	e0 6a e5 35 	mov	r10,58677
8000b398:	ea 1a 35 af 	orh	r10,0x35af
8000b39c:	fc 1b 3f e0 	movh	r11,0x3fe0
8000b3a0:	c0 98       	rjmp	8000b3b2 <_strtod_r+0xbb2>
8000b3a2:	e0 68 35 95 	mov	r8,13717
8000b3a6:	ea 18 94 a0 	orh	r8,0x94a0
8000b3aa:	e0 69 ff ff 	mov	r9,65535
8000b3ae:	ea 19 3f cf 	orh	r9,0x3fcf
8000b3b2:	e0 a0 0b 4d 	rcall	8000ca4c <__avr32_f64_cmp_lt>
8000b3b6:	c2 e1       	brne	8000b412 <_strtod_r+0xc12>
8000b3b8:	41 7b       	lddsp	r11,sp[0x5c]
8000b3ba:	0c 9c       	mov	r12,r6
8000b3bc:	fe b0 f4 ba 	rcall	80009d30 <_Bfree>
8000b3c0:	00 9b       	mov	r11,r0
8000b3c2:	0c 9c       	mov	r12,r6
8000b3c4:	fe b0 f4 b6 	rcall	80009d30 <_Bfree>
8000b3c8:	04 9b       	mov	r11,r2
8000b3ca:	0c 9c       	mov	r12,r6
8000b3cc:	fe b0 f4 b2 	rcall	80009d30 <_Bfree>
8000b3d0:	06 9b       	mov	r11,r3
8000b3d2:	0c 9c       	mov	r12,r6
8000b3d4:	fe b0 f4 ae 	rcall	80009d30 <_Bfree>
8000b3d8:	fe 9f fd 7f 	bral	8000aed6 <_strtod_r+0x6d6>
8000b3dc:	40 18       	lddsp	r8,sp[0x4]
8000b3de:	58 08       	cp.w	r8,0
8000b3e0:	c1 a0       	breq	8000b414 <_strtod_r+0xc14>
8000b3e2:	fc 19 39 50 	movh	r9,0x3950
8000b3e6:	fa ea 00 48 	ld.d	r10,sp[72]
8000b3ea:	fa c8 ff c0 	sub	r8,sp,-64
8000b3ee:	91 09       	st.w	r8[0x0],r9
8000b3f0:	30 09       	mov	r9,0
8000b3f2:	91 19       	st.w	r8[0x4],r9
8000b3f4:	fa e8 00 40 	ld.d	r8,sp[64]
8000b3f8:	e0 a0 08 18 	rcall	8000c428 <__avr32_f64_mul>
8000b3fc:	ee eb 00 00 	st.d	r7[0],r10
8000b400:	41 28       	lddsp	r8,sp[0x48]
8000b402:	58 08       	cp.w	r8,0
8000b404:	c0 81       	brne	8000b414 <_strtod_r+0xc14>
8000b406:	41 38       	lddsp	r8,sp[0x4c]
8000b408:	58 08       	cp.w	r8,0
8000b40a:	c0 51       	brne	8000b414 <_strtod_r+0xc14>
8000b40c:	32 28       	mov	r8,34
8000b40e:	8d 38       	st.w	r6[0xc],r8
8000b410:	c0 28       	rjmp	8000b414 <_strtod_r+0xc14>
8000b412:	06 95       	mov	r5,r3
8000b414:	41 7b       	lddsp	r11,sp[0x5c]
8000b416:	0c 9c       	mov	r12,r6
8000b418:	fe b0 f4 8c 	rcall	80009d30 <_Bfree>
8000b41c:	00 9b       	mov	r11,r0
8000b41e:	0c 9c       	mov	r12,r6
8000b420:	fe b0 f4 88 	rcall	80009d30 <_Bfree>
8000b424:	04 9b       	mov	r11,r2
8000b426:	0c 9c       	mov	r12,r6
8000b428:	fe b0 f4 84 	rcall	80009d30 <_Bfree>
8000b42c:	40 7b       	lddsp	r11,sp[0x1c]
8000b42e:	0c 9c       	mov	r12,r6
8000b430:	fe b0 f4 80 	rcall	80009d30 <_Bfree>
8000b434:	0a 9b       	mov	r11,r5
8000b436:	0c 9c       	mov	r12,r6
8000b438:	fe b0 f4 7c 	rcall	80009d30 <_Bfree>
8000b43c:	40 b1       	lddsp	r1,sp[0x2c]
8000b43e:	58 01       	cp.w	r1,0
8000b440:	fb f8 10 18 	ld.wne	r8,sp[0x60]
8000b444:	e3 f8 1a 00 	st.wne	r1[0x0],r8
8000b448:	40 8e       	lddsp	lr,sp[0x20]
8000b44a:	41 28       	lddsp	r8,sp[0x48]
8000b44c:	41 3a       	lddsp	r10,sp[0x4c]
8000b44e:	10 99       	mov	r9,r8
8000b450:	ee 19 80 00 	eorh	r9,0x8000
8000b454:	58 0e       	cp.w	lr,0
8000b456:	f0 0b 17 00 	moveq	r11,r8
8000b45a:	f2 0b 17 10 	movne	r11,r9
8000b45e:	2e 5d       	sub	sp,-108
8000b460:	d8 32       	popm	r0-r7,pc
8000b462:	d7 03       	nop

8000b464 <_strtol_r>:
8000b464:	d4 31       	pushm	r0-r7,lr
8000b466:	20 3d       	sub	sp,12
8000b468:	e0 68 01 98 	mov	r8,408
8000b46c:	50 2c       	stdsp	sp[0x8],r12
8000b46e:	70 01       	ld.w	r1,r8[0x0]
8000b470:	16 98       	mov	r8,r11
8000b472:	11 3e       	ld.ub	lr,r8++
8000b474:	e2 0e 07 06 	ld.ub	r6,r1[lr]
8000b478:	e2 16 00 08 	andl	r6,0x8,COH
8000b47c:	cf b1       	brne	8000b472 <_strtol_r+0xe>
8000b47e:	e0 4e 00 2d 	cp.w	lr,45
8000b482:	c0 41       	brne	8000b48a <_strtol_r+0x26>
8000b484:	11 3e       	ld.ub	lr,r8++
8000b486:	30 16       	mov	r6,1
8000b488:	c0 58       	rjmp	8000b492 <_strtol_r+0x2e>
8000b48a:	e0 4e 00 2b 	cp.w	lr,43
8000b48e:	c0 21       	brne	8000b492 <_strtol_r+0x2e>
8000b490:	11 3e       	ld.ub	lr,r8++
8000b492:	58 09       	cp.w	r9,0
8000b494:	5f 0c       	sreq	r12
8000b496:	59 09       	cp.w	r9,16
8000b498:	5f 05       	sreq	r5
8000b49a:	30 07       	mov	r7,0
8000b49c:	f9 e5 10 05 	or	r5,r12,r5
8000b4a0:	ee 05 18 00 	cp.b	r5,r7
8000b4a4:	c1 e0       	breq	8000b4e0 <_strtol_r+0x7c>
8000b4a6:	e0 4e 00 30 	cp.w	lr,48
8000b4aa:	c1 31       	brne	8000b4d0 <_strtol_r+0x6c>
8000b4ac:	11 85       	ld.ub	r5,r8[0x0]
8000b4ae:	35 84       	mov	r4,88
8000b4b0:	37 83       	mov	r3,120
8000b4b2:	e8 05 18 00 	cp.b	r5,r4
8000b4b6:	5f 04       	sreq	r4
8000b4b8:	e6 05 18 00 	cp.b	r5,r3
8000b4bc:	5f 05       	sreq	r5
8000b4be:	e9 e5 10 05 	or	r5,r4,r5
8000b4c2:	ee 05 18 00 	cp.b	r5,r7
8000b4c6:	c0 50       	breq	8000b4d0 <_strtol_r+0x6c>
8000b4c8:	11 9e       	ld.ub	lr,r8[0x1]
8000b4ca:	31 09       	mov	r9,16
8000b4cc:	2f e8       	sub	r8,-2
8000b4ce:	c0 98       	rjmp	8000b4e0 <_strtol_r+0x7c>
8000b4d0:	58 0c       	cp.w	r12,0
8000b4d2:	c0 70       	breq	8000b4e0 <_strtol_r+0x7c>
8000b4d4:	e0 4e 00 30 	cp.w	lr,48
8000b4d8:	f9 b9 00 08 	moveq	r9,8
8000b4dc:	f9 b9 01 0a 	movne	r9,10
8000b4e0:	e0 6c ff ff 	mov	r12,65535
8000b4e4:	ea 1c 7f ff 	orh	r12,0x7fff
8000b4e8:	30 07       	mov	r7,0
8000b4ea:	fc 15 80 00 	movh	r5,0x8000
8000b4ee:	0e 93       	mov	r3,r7
8000b4f0:	0e 36       	cp.w	r6,r7
8000b4f2:	f8 05 17 00 	moveq	r5,r12
8000b4f6:	0e 9c       	mov	r12,r7
8000b4f8:	ea 09 0d 04 	divu	r4,r5,r9
8000b4fc:	08 92       	mov	r2,r4
8000b4fe:	50 05       	stdsp	sp[0x0],r5
8000b500:	e2 0e 07 04 	ld.ub	r4,r1[lr]
8000b504:	e1 d4 c0 01 	bfextu	r0,r4,0x0,0x1
8000b508:	f9 b0 01 37 	movne	r0,55
8000b50c:	f9 b0 00 57 	moveq	r0,87
8000b510:	50 10       	stdsp	sp[0x4],r0
8000b512:	fc c5 00 30 	sub	r5,lr,48
8000b516:	08 90       	mov	r0,r4
8000b518:	e2 10 00 04 	andl	r0,0x4,COH
8000b51c:	c0 81       	brne	8000b52c <_strtol_r+0xc8>
8000b51e:	40 10       	lddsp	r0,sp[0x4]
8000b520:	e9 d4 c0 02 	bfextu	r4,r4,0x0,0x2
8000b524:	fc 00 01 05 	sub	r5,lr,r0
8000b528:	58 04       	cp.w	r4,0
8000b52a:	c1 c0       	breq	8000b562 <_strtol_r+0xfe>
8000b52c:	12 35       	cp.w	r5,r9
8000b52e:	c1 a4       	brge	8000b562 <_strtol_r+0xfe>
8000b530:	04 3c       	cp.w	r12,r2
8000b532:	5f be       	srhi	lr
8000b534:	fd e7 13 fe 	or	lr,lr,r7>>0x1f
8000b538:	e6 0e 18 00 	cp.b	lr,r3
8000b53c:	c1 01       	brne	8000b55c <_strtol_r+0xf8>
8000b53e:	04 3c       	cp.w	r12,r2
8000b540:	5f 0e       	sreq	lr
8000b542:	40 07       	lddsp	r7,sp[0x0]
8000b544:	0e 35       	cp.w	r5,r7
8000b546:	5f 97       	srgt	r7
8000b548:	ef ee 00 0e 	and	lr,r7,lr
8000b54c:	e6 0e 18 00 	cp.b	lr,r3
8000b550:	c0 61       	brne	8000b55c <_strtol_r+0xf8>
8000b552:	b3 3c       	mul	r12,r9
8000b554:	30 17       	mov	r7,1
8000b556:	ea 0c 00 0c 	add	r12,r5,r12
8000b55a:	c0 28       	rjmp	8000b55e <_strtol_r+0xfa>
8000b55c:	3f f7       	mov	r7,-1
8000b55e:	11 3e       	ld.ub	lr,r8++
8000b560:	cd 0b       	rjmp	8000b500 <_strtol_r+0x9c>
8000b562:	5b f7       	cp.w	r7,-1
8000b564:	c0 e1       	brne	8000b580 <_strtol_r+0x11c>
8000b566:	e0 69 ff ff 	mov	r9,65535
8000b56a:	ea 19 7f ff 	orh	r9,0x7fff
8000b56e:	fc 1c 80 00 	movh	r12,0x8000
8000b572:	40 20       	lddsp	r0,sp[0x8]
8000b574:	58 06       	cp.w	r6,0
8000b576:	f2 0c 17 00 	moveq	r12,r9
8000b57a:	32 29       	mov	r9,34
8000b57c:	81 39       	st.w	r0[0xc],r9
8000b57e:	c0 48       	rjmp	8000b586 <_strtol_r+0x122>
8000b580:	58 06       	cp.w	r6,0
8000b582:	fb bc 01 00 	rsubne	r12,0
8000b586:	58 0a       	cp.w	r10,0
8000b588:	c0 60       	breq	8000b594 <_strtol_r+0x130>
8000b58a:	20 18       	sub	r8,1
8000b58c:	58 07       	cp.w	r7,0
8000b58e:	f0 0b 17 10 	movne	r11,r8
8000b592:	95 0b       	st.w	r10[0x0],r11
8000b594:	2f dd       	sub	sp,-12
8000b596:	d8 32       	popm	r0-r7,pc

8000b598 <_strtoll_r>:
8000b598:	d4 31       	pushm	r0-r7,lr
8000b59a:	20 8d       	sub	sp,32
8000b59c:	e0 68 01 98 	mov	r8,408
8000b5a0:	16 93       	mov	r3,r11
8000b5a2:	70 08       	ld.w	r8,r8[0x0]
8000b5a4:	50 7c       	stdsp	sp[0x1c],r12
8000b5a6:	50 2a       	stdsp	sp[0x8],r10
8000b5a8:	12 95       	mov	r5,r9
8000b5aa:	50 18       	stdsp	sp[0x4],r8
8000b5ac:	16 97       	mov	r7,r11
8000b5ae:	0f 36       	ld.ub	r6,r7++
8000b5b0:	40 1a       	lddsp	r10,sp[0x4]
8000b5b2:	f4 06 07 04 	ld.ub	r4,r10[r6]
8000b5b6:	e2 14 00 08 	andl	r4,0x8,COH
8000b5ba:	cf a1       	brne	8000b5ae <_strtoll_r+0x16>
8000b5bc:	e0 46 00 2d 	cp.w	r6,45
8000b5c0:	c0 41       	brne	8000b5c8 <_strtoll_r+0x30>
8000b5c2:	0f 36       	ld.ub	r6,r7++
8000b5c4:	30 14       	mov	r4,1
8000b5c6:	c0 58       	rjmp	8000b5d0 <_strtoll_r+0x38>
8000b5c8:	e0 46 00 2b 	cp.w	r6,43
8000b5cc:	c0 21       	brne	8000b5d0 <_strtoll_r+0x38>
8000b5ce:	0f 36       	ld.ub	r6,r7++
8000b5d0:	58 05       	cp.w	r5,0
8000b5d2:	5f 08       	sreq	r8
8000b5d4:	59 05       	cp.w	r5,16
8000b5d6:	5f 0a       	sreq	r10
8000b5d8:	30 09       	mov	r9,0
8000b5da:	f1 ea 10 0a 	or	r10,r8,r10
8000b5de:	f2 0a 18 00 	cp.b	r10,r9
8000b5e2:	c1 d0       	breq	8000b61c <_strtoll_r+0x84>
8000b5e4:	e0 46 00 30 	cp.w	r6,48
8000b5e8:	c1 21       	brne	8000b60c <_strtoll_r+0x74>
8000b5ea:	0f 8a       	ld.ub	r10,r7[0x0]
8000b5ec:	35 8b       	mov	r11,88
8000b5ee:	37 8c       	mov	r12,120
8000b5f0:	f6 0a 18 00 	cp.b	r10,r11
8000b5f4:	5f 0b       	sreq	r11
8000b5f6:	f8 0a 18 00 	cp.b	r10,r12
8000b5fa:	5f 0a       	sreq	r10
8000b5fc:	14 4b       	or	r11,r10
8000b5fe:	f2 0b 18 00 	cp.b	r11,r9
8000b602:	c0 50       	breq	8000b60c <_strtoll_r+0x74>
8000b604:	0f 96       	ld.ub	r6,r7[0x1]
8000b606:	31 05       	mov	r5,16
8000b608:	2f e7       	sub	r7,-2
8000b60a:	c0 98       	rjmp	8000b61c <_strtoll_r+0x84>
8000b60c:	58 08       	cp.w	r8,0
8000b60e:	c0 70       	breq	8000b61c <_strtoll_r+0x84>
8000b610:	e0 46 00 30 	cp.w	r6,48
8000b614:	f9 b5 00 08 	moveq	r5,8
8000b618:	f9 b5 01 0a 	movne	r5,10
8000b61c:	58 04       	cp.w	r4,0
8000b61e:	c0 71       	brne	8000b62c <_strtoll_r+0x94>
8000b620:	3f f0       	mov	r0,-1
8000b622:	e0 61 ff ff 	mov	r1,65535
8000b626:	ea 11 7f ff 	orh	r1,0x7fff
8000b62a:	c0 48       	rjmp	8000b632 <_strtoll_r+0x9a>
8000b62c:	30 00       	mov	r0,0
8000b62e:	fc 11 80 00 	movh	r1,0x8000
8000b632:	ea 09 14 1f 	asr	r9,r5,0x1f
8000b636:	0a 98       	mov	r8,r5
8000b638:	50 09       	stdsp	sp[0x0],r9
8000b63a:	00 9a       	mov	r10,r0
8000b63c:	02 9b       	mov	r11,r1
8000b63e:	e0 a0 0d 3e 	rcall	8000d0ba <__avr32_umod64>
8000b642:	40 09       	lddsp	r9,sp[0x0]
8000b644:	50 5a       	stdsp	sp[0x14],r10
8000b646:	0a 98       	mov	r8,r5
8000b648:	00 9a       	mov	r10,r0
8000b64a:	02 9b       	mov	r11,r1
8000b64c:	e0 a0 0c 05 	rcall	8000ce56 <__avr32_udiv64>
8000b650:	06 9c       	mov	r12,r3
8000b652:	14 98       	mov	r8,r10
8000b654:	16 99       	mov	r9,r11
8000b656:	30 0a       	mov	r10,0
8000b658:	30 00       	mov	r0,0
8000b65a:	30 01       	mov	r1,0
8000b65c:	14 9e       	mov	lr,r10
8000b65e:	10 92       	mov	r2,r8
8000b660:	12 93       	mov	r3,r9
8000b662:	40 19       	lddsp	r9,sp[0x4]
8000b664:	f2 06 07 0b 	ld.ub	r11,r9[r6]
8000b668:	f3 db c0 01 	bfextu	r9,r11,0x0,0x1
8000b66c:	f9 b9 01 37 	movne	r9,55
8000b670:	f9 b9 00 57 	moveq	r9,87
8000b674:	50 69       	stdsp	sp[0x18],r9
8000b676:	ec c8 00 30 	sub	r8,r6,48
8000b67a:	ed bb 00 02 	bld	r11,0x2
8000b67e:	c0 80       	breq	8000b68e <_strtoll_r+0xf6>
8000b680:	40 69       	lddsp	r9,sp[0x18]
8000b682:	f7 db c0 02 	bfextu	r11,r11,0x0,0x2
8000b686:	ec 09 01 08 	sub	r8,r6,r9
8000b68a:	58 0b       	cp.w	r11,0
8000b68c:	c2 e0       	breq	8000b6e8 <_strtoll_r+0x150>
8000b68e:	0a 38       	cp.w	r8,r5
8000b690:	c2 c4       	brge	8000b6e8 <_strtoll_r+0x150>
8000b692:	04 30       	cp.w	r0,r2
8000b694:	e6 01 13 00 	cpc	r1,r3
8000b698:	5f b9       	srhi	r9
8000b69a:	f3 ea 13 fa 	or	r10,r9,r10>>0x1f
8000b69e:	fc 0a 18 00 	cp.b	r10,lr
8000b6a2:	c2 01       	brne	8000b6e2 <_strtoll_r+0x14a>
8000b6a4:	04 30       	cp.w	r0,r2
8000b6a6:	e6 01 13 00 	cpc	r1,r3
8000b6aa:	5f 09       	sreq	r9
8000b6ac:	40 56       	lddsp	r6,sp[0x14]
8000b6ae:	0c 38       	cp.w	r8,r6
8000b6b0:	5f 9a       	srgt	r10
8000b6b2:	f5 e9 00 09 	and	r9,r10,r9
8000b6b6:	fc 09 18 00 	cp.b	r9,lr
8000b6ba:	c1 41       	brne	8000b6e2 <_strtoll_r+0x14a>
8000b6bc:	e0 05 06 4a 	mulu.d	r10,r0,r5
8000b6c0:	ea 01 02 49 	mul	r9,r5,r1
8000b6c4:	50 48       	stdsp	sp[0x10],r8
8000b6c6:	40 06       	lddsp	r6,sp[0x0]
8000b6c8:	bf 58       	asr	r8,0x1f
8000b6ca:	ec 00 03 49 	mac	r9,r6,r0
8000b6ce:	50 38       	stdsp	sp[0xc],r8
8000b6d0:	f2 0b 00 0b 	add	r11,r9,r11
8000b6d4:	fa e0 00 0c 	ld.d	r0,sp[12]
8000b6d8:	14 00       	add	r0,r10
8000b6da:	e2 0b 00 41 	adc	r1,r1,r11
8000b6de:	30 1a       	mov	r10,1
8000b6e0:	c0 28       	rjmp	8000b6e4 <_strtoll_r+0x14c>
8000b6e2:	3f fa       	mov	r10,-1
8000b6e4:	0f 36       	ld.ub	r6,r7++
8000b6e6:	cb eb       	rjmp	8000b662 <_strtoll_r+0xca>
8000b6e8:	18 93       	mov	r3,r12
8000b6ea:	5b fa       	cp.w	r10,-1
8000b6ec:	c1 01       	brne	8000b70c <_strtoll_r+0x174>
8000b6ee:	58 04       	cp.w	r4,0
8000b6f0:	c0 71       	brne	8000b6fe <_strtoll_r+0x166>
8000b6f2:	3f f0       	mov	r0,-1
8000b6f4:	e0 61 ff ff 	mov	r1,65535
8000b6f8:	ea 11 7f ff 	orh	r1,0x7fff
8000b6fc:	c0 48       	rjmp	8000b704 <_strtoll_r+0x16c>
8000b6fe:	30 00       	mov	r0,0
8000b700:	fc 11 80 00 	movh	r1,0x8000
8000b704:	32 28       	mov	r8,34
8000b706:	40 76       	lddsp	r6,sp[0x1c]
8000b708:	8d 38       	st.w	r6[0xc],r8
8000b70a:	c0 98       	rjmp	8000b71c <_strtoll_r+0x184>
8000b70c:	58 04       	cp.w	r4,0
8000b70e:	c0 70       	breq	8000b71c <_strtoll_r+0x184>
8000b710:	30 08       	mov	r8,0
8000b712:	30 09       	mov	r9,0
8000b714:	f0 00 01 00 	sub	r0,r8,r0
8000b718:	f2 01 01 41 	sbc	r1,r9,r1
8000b71c:	40 29       	lddsp	r9,sp[0x8]
8000b71e:	58 09       	cp.w	r9,0
8000b720:	c0 60       	breq	8000b72c <_strtoll_r+0x194>
8000b722:	20 17       	sub	r7,1
8000b724:	58 0a       	cp.w	r10,0
8000b726:	ee 03 17 10 	movne	r3,r7
8000b72a:	93 03       	st.w	r9[0x0],r3
8000b72c:	00 9a       	mov	r10,r0
8000b72e:	02 9b       	mov	r11,r1
8000b730:	2f 8d       	sub	sp,-32
8000b732:	d8 32       	popm	r0-r7,pc

8000b734 <_strtoul_r>:
8000b734:	d4 31       	pushm	r0-r7,lr
8000b736:	20 3d       	sub	sp,12
8000b738:	e0 68 01 98 	mov	r8,408
8000b73c:	50 2c       	stdsp	sp[0x8],r12
8000b73e:	70 01       	ld.w	r1,r8[0x0]
8000b740:	16 98       	mov	r8,r11
8000b742:	11 3e       	ld.ub	lr,r8++
8000b744:	e2 0e 07 05 	ld.ub	r5,r1[lr]
8000b748:	e2 15 00 08 	andl	r5,0x8,COH
8000b74c:	cf b1       	brne	8000b742 <_strtoul_r+0xe>
8000b74e:	e0 4e 00 2d 	cp.w	lr,45
8000b752:	c0 41       	brne	8000b75a <_strtoul_r+0x26>
8000b754:	11 3e       	ld.ub	lr,r8++
8000b756:	30 15       	mov	r5,1
8000b758:	c0 58       	rjmp	8000b762 <_strtoul_r+0x2e>
8000b75a:	e0 4e 00 2b 	cp.w	lr,43
8000b75e:	c0 21       	brne	8000b762 <_strtoul_r+0x2e>
8000b760:	11 3e       	ld.ub	lr,r8++
8000b762:	58 09       	cp.w	r9,0
8000b764:	5f 0c       	sreq	r12
8000b766:	59 09       	cp.w	r9,16
8000b768:	5f 06       	sreq	r6
8000b76a:	30 07       	mov	r7,0
8000b76c:	f9 e6 10 06 	or	r6,r12,r6
8000b770:	ee 06 18 00 	cp.b	r6,r7
8000b774:	c1 e0       	breq	8000b7b0 <_strtoul_r+0x7c>
8000b776:	e0 4e 00 30 	cp.w	lr,48
8000b77a:	c1 31       	brne	8000b7a0 <_strtoul_r+0x6c>
8000b77c:	11 86       	ld.ub	r6,r8[0x0]
8000b77e:	35 84       	mov	r4,88
8000b780:	37 83       	mov	r3,120
8000b782:	e8 06 18 00 	cp.b	r6,r4
8000b786:	5f 04       	sreq	r4
8000b788:	e6 06 18 00 	cp.b	r6,r3
8000b78c:	5f 06       	sreq	r6
8000b78e:	e9 e6 10 06 	or	r6,r4,r6
8000b792:	ee 06 18 00 	cp.b	r6,r7
8000b796:	c0 50       	breq	8000b7a0 <_strtoul_r+0x6c>
8000b798:	11 9e       	ld.ub	lr,r8[0x1]
8000b79a:	31 09       	mov	r9,16
8000b79c:	2f e8       	sub	r8,-2
8000b79e:	c0 98       	rjmp	8000b7b0 <_strtoul_r+0x7c>
8000b7a0:	58 0c       	cp.w	r12,0
8000b7a2:	c0 70       	breq	8000b7b0 <_strtoul_r+0x7c>
8000b7a4:	e0 4e 00 30 	cp.w	lr,48
8000b7a8:	f9 b9 00 08 	moveq	r9,8
8000b7ac:	f9 b9 01 0a 	movne	r9,10
8000b7b0:	3f f3       	mov	r3,-1
8000b7b2:	e6 09 0d 02 	divu	r2,r3,r9
8000b7b6:	30 07       	mov	r7,0
8000b7b8:	50 03       	stdsp	sp[0x0],r3
8000b7ba:	0e 9c       	mov	r12,r7
8000b7bc:	0e 93       	mov	r3,r7
8000b7be:	e2 0e 07 04 	ld.ub	r4,r1[lr]
8000b7c2:	e1 d4 c0 01 	bfextu	r0,r4,0x0,0x1
8000b7c6:	f9 b0 01 37 	movne	r0,55
8000b7ca:	f9 b0 00 57 	moveq	r0,87
8000b7ce:	50 10       	stdsp	sp[0x4],r0
8000b7d0:	fc c6 00 30 	sub	r6,lr,48
8000b7d4:	08 90       	mov	r0,r4
8000b7d6:	e2 10 00 04 	andl	r0,0x4,COH
8000b7da:	c0 81       	brne	8000b7ea <_strtoul_r+0xb6>
8000b7dc:	40 10       	lddsp	r0,sp[0x4]
8000b7de:	e9 d4 c0 02 	bfextu	r4,r4,0x0,0x2
8000b7e2:	fc 00 01 06 	sub	r6,lr,r0
8000b7e6:	58 04       	cp.w	r4,0
8000b7e8:	c1 c0       	breq	8000b820 <_strtoul_r+0xec>
8000b7ea:	12 36       	cp.w	r6,r9
8000b7ec:	c1 a4       	brge	8000b820 <_strtoul_r+0xec>
8000b7ee:	04 3c       	cp.w	r12,r2
8000b7f0:	5f be       	srhi	lr
8000b7f2:	fd e7 13 fe 	or	lr,lr,r7>>0x1f
8000b7f6:	e6 0e 18 00 	cp.b	lr,r3
8000b7fa:	c1 01       	brne	8000b81a <_strtoul_r+0xe6>
8000b7fc:	04 3c       	cp.w	r12,r2
8000b7fe:	5f 0e       	sreq	lr
8000b800:	40 07       	lddsp	r7,sp[0x0]
8000b802:	0e 36       	cp.w	r6,r7
8000b804:	5f 97       	srgt	r7
8000b806:	ef ee 00 0e 	and	lr,r7,lr
8000b80a:	e6 0e 18 00 	cp.b	lr,r3
8000b80e:	c0 61       	brne	8000b81a <_strtoul_r+0xe6>
8000b810:	b3 3c       	mul	r12,r9
8000b812:	30 17       	mov	r7,1
8000b814:	ec 0c 00 0c 	add	r12,r6,r12
8000b818:	c0 28       	rjmp	8000b81c <_strtoul_r+0xe8>
8000b81a:	3f f7       	mov	r7,-1
8000b81c:	11 3e       	ld.ub	lr,r8++
8000b81e:	cd 0b       	rjmp	8000b7be <_strtoul_r+0x8a>
8000b820:	5b f7       	cp.w	r7,-1
8000b822:	c0 61       	brne	8000b82e <_strtoul_r+0xfa>
8000b824:	32 29       	mov	r9,34
8000b826:	40 20       	lddsp	r0,sp[0x8]
8000b828:	0e 9c       	mov	r12,r7
8000b82a:	81 39       	st.w	r0[0xc],r9
8000b82c:	c0 48       	rjmp	8000b834 <_strtoul_r+0x100>
8000b82e:	58 05       	cp.w	r5,0
8000b830:	fb bc 01 00 	rsubne	r12,0
8000b834:	58 0a       	cp.w	r10,0
8000b836:	c0 60       	breq	8000b842 <_strtoul_r+0x10e>
8000b838:	20 18       	sub	r8,1
8000b83a:	58 07       	cp.w	r7,0
8000b83c:	f0 0b 17 10 	movne	r11,r8
8000b840:	95 0b       	st.w	r10[0x0],r11
8000b842:	2f dd       	sub	sp,-12
8000b844:	d8 32       	popm	r0-r7,pc
8000b846:	d7 03       	nop

8000b848 <_strtoull_r>:
8000b848:	d4 31       	pushm	r0-r7,lr
8000b84a:	20 9d       	sub	sp,36
8000b84c:	e0 68 01 98 	mov	r8,408
8000b850:	16 97       	mov	r7,r11
8000b852:	70 08       	ld.w	r8,r8[0x0]
8000b854:	50 8c       	stdsp	sp[0x20],r12
8000b856:	50 5a       	stdsp	sp[0x14],r10
8000b858:	12 94       	mov	r4,r9
8000b85a:	50 48       	stdsp	sp[0x10],r8
8000b85c:	16 96       	mov	r6,r11
8000b85e:	0d 35       	ld.ub	r5,r6++
8000b860:	40 4e       	lddsp	lr,sp[0x10]
8000b862:	fc 05 07 02 	ld.ub	r2,lr[r5]
8000b866:	e2 12 00 08 	andl	r2,0x8,COH
8000b86a:	cf a1       	brne	8000b85e <_strtoull_r+0x16>
8000b86c:	e0 45 00 2d 	cp.w	r5,45
8000b870:	c0 41       	brne	8000b878 <_strtoull_r+0x30>
8000b872:	0d 35       	ld.ub	r5,r6++
8000b874:	30 12       	mov	r2,1
8000b876:	c0 58       	rjmp	8000b880 <_strtoull_r+0x38>
8000b878:	e0 45 00 2b 	cp.w	r5,43
8000b87c:	c0 21       	brne	8000b880 <_strtoull_r+0x38>
8000b87e:	0d 35       	ld.ub	r5,r6++
8000b880:	58 04       	cp.w	r4,0
8000b882:	5f 08       	sreq	r8
8000b884:	59 04       	cp.w	r4,16
8000b886:	5f 0a       	sreq	r10
8000b888:	30 09       	mov	r9,0
8000b88a:	f1 ea 10 0a 	or	r10,r8,r10
8000b88e:	f2 0a 18 00 	cp.b	r10,r9
8000b892:	c1 d0       	breq	8000b8cc <_strtoull_r+0x84>
8000b894:	e0 45 00 30 	cp.w	r5,48
8000b898:	c1 21       	brne	8000b8bc <_strtoull_r+0x74>
8000b89a:	0d 8a       	ld.ub	r10,r6[0x0]
8000b89c:	35 8b       	mov	r11,88
8000b89e:	37 8c       	mov	r12,120
8000b8a0:	f6 0a 18 00 	cp.b	r10,r11
8000b8a4:	5f 0b       	sreq	r11
8000b8a6:	f8 0a 18 00 	cp.b	r10,r12
8000b8aa:	5f 0a       	sreq	r10
8000b8ac:	14 4b       	or	r11,r10
8000b8ae:	f2 0b 18 00 	cp.b	r11,r9
8000b8b2:	c0 50       	breq	8000b8bc <_strtoull_r+0x74>
8000b8b4:	0d 95       	ld.ub	r5,r6[0x1]
8000b8b6:	31 04       	mov	r4,16
8000b8b8:	2f e6       	sub	r6,-2
8000b8ba:	c0 98       	rjmp	8000b8cc <_strtoull_r+0x84>
8000b8bc:	58 08       	cp.w	r8,0
8000b8be:	c0 70       	breq	8000b8cc <_strtoull_r+0x84>
8000b8c0:	e0 45 00 30 	cp.w	r5,48
8000b8c4:	f9 b4 00 08 	moveq	r4,8
8000b8c8:	f9 b4 01 0a 	movne	r4,10
8000b8cc:	e8 03 14 1f 	asr	r3,r4,0x1f
8000b8d0:	08 98       	mov	r8,r4
8000b8d2:	06 99       	mov	r9,r3
8000b8d4:	3f fa       	mov	r10,-1
8000b8d6:	3f fb       	mov	r11,-1
8000b8d8:	e0 a0 0a bf 	rcall	8000ce56 <__avr32_udiv64>
8000b8dc:	06 99       	mov	r9,r3
8000b8de:	50 2b       	stdsp	sp[0x8],r11
8000b8e0:	50 3a       	stdsp	sp[0xc],r10
8000b8e2:	08 98       	mov	r8,r4
8000b8e4:	3f fa       	mov	r10,-1
8000b8e6:	3f fb       	mov	r11,-1
8000b8e8:	e0 a0 0b e9 	rcall	8000d0ba <__avr32_umod64>
8000b8ec:	30 0b       	mov	r11,0
8000b8ee:	30 08       	mov	r8,0
8000b8f0:	30 09       	mov	r9,0
8000b8f2:	40 41       	lddsp	r1,sp[0x10]
8000b8f4:	e2 05 07 0e 	ld.ub	lr,r1[r5]
8000b8f8:	e1 de c0 01 	bfextu	r0,lr,0x0,0x1
8000b8fc:	ea cc 00 30 	sub	r12,r5,48
8000b900:	58 00       	cp.w	r0,0
8000b902:	f9 b1 01 37 	movne	r1,55
8000b906:	f9 b1 00 57 	moveq	r1,87
8000b90a:	1c 90       	mov	r0,lr
8000b90c:	e2 10 00 04 	andl	r0,0x4,COH
8000b910:	c0 61       	brne	8000b91c <_strtoull_r+0xd4>
8000b912:	ea 01 01 0c 	sub	r12,r5,r1
8000b916:	fd de c0 02 	bfextu	lr,lr,0x0,0x2
8000b91a:	c3 70       	breq	8000b988 <_strtoull_r+0x140>
8000b91c:	08 3c       	cp.w	r12,r4
8000b91e:	c3 54       	brge	8000b988 <_strtoull_r+0x140>
8000b920:	fa e0 00 08 	ld.d	r0,sp[8]
8000b924:	00 38       	cp.w	r8,r0
8000b926:	e2 09 13 00 	cpc	r9,r1
8000b92a:	5f be       	srhi	lr
8000b92c:	30 00       	mov	r0,0
8000b92e:	fd eb 13 fb 	or	r11,lr,r11>>0x1f
8000b932:	e0 0b 18 00 	cp.b	r11,r0
8000b936:	c2 61       	brne	8000b982 <_strtoull_r+0x13a>
8000b938:	fa e0 00 08 	ld.d	r0,sp[8]
8000b93c:	14 3c       	cp.w	r12,r10
8000b93e:	5f 9e       	srgt	lr
8000b940:	00 38       	cp.w	r8,r0
8000b942:	e2 09 13 00 	cpc	r9,r1
8000b946:	5f 0b       	sreq	r11
8000b948:	30 00       	mov	r0,0
8000b94a:	fd eb 00 0b 	and	r11,lr,r11
8000b94e:	e0 0b 18 00 	cp.b	r11,r0
8000b952:	c1 81       	brne	8000b982 <_strtoull_r+0x13a>
8000b954:	f0 04 06 40 	mulu.d	r0,r8,r4
8000b958:	e8 09 02 4b 	mul	r11,r4,r9
8000b95c:	fa e1 00 00 	st.d	sp[0],r0
8000b960:	e6 08 03 4b 	mac	r11,r3,r8
8000b964:	f6 01 00 01 	add	r1,r11,r1
8000b968:	50 7c       	stdsp	sp[0x1c],r12
8000b96a:	50 01       	stdsp	sp[0x0],r1
8000b96c:	bf 5c       	asr	r12,0x1f
8000b96e:	fa e0 00 00 	ld.d	r0,sp[0]
8000b972:	50 6c       	stdsp	sp[0x18],r12
8000b974:	30 1b       	mov	r11,1
8000b976:	fa e8 00 18 	ld.d	r8,sp[24]
8000b97a:	00 08       	add	r8,r0
8000b97c:	f2 01 00 49 	adc	r9,r9,r1
8000b980:	c0 28       	rjmp	8000b984 <_strtoull_r+0x13c>
8000b982:	3f fb       	mov	r11,-1
8000b984:	0d 35       	ld.ub	r5,r6++
8000b986:	cb 6b       	rjmp	8000b8f2 <_strtoull_r+0xaa>
8000b988:	5b fb       	cp.w	r11,-1
8000b98a:	c0 71       	brne	8000b998 <_strtoull_r+0x150>
8000b98c:	32 28       	mov	r8,34
8000b98e:	40 80       	lddsp	r0,sp[0x20]
8000b990:	3f f9       	mov	r9,-1
8000b992:	81 38       	st.w	r0[0xc],r8
8000b994:	3f f8       	mov	r8,-1
8000b996:	c0 98       	rjmp	8000b9a8 <_strtoull_r+0x160>
8000b998:	58 02       	cp.w	r2,0
8000b99a:	c0 70       	breq	8000b9a8 <_strtoull_r+0x160>
8000b99c:	30 04       	mov	r4,0
8000b99e:	30 05       	mov	r5,0
8000b9a0:	e8 08 01 08 	sub	r8,r4,r8
8000b9a4:	ea 09 01 49 	sbc	r9,r5,r9
8000b9a8:	40 5e       	lddsp	lr,sp[0x14]
8000b9aa:	58 0e       	cp.w	lr,0
8000b9ac:	c0 60       	breq	8000b9b8 <_strtoull_r+0x170>
8000b9ae:	20 16       	sub	r6,1
8000b9b0:	58 0b       	cp.w	r11,0
8000b9b2:	ec 07 17 10 	movne	r7,r6
8000b9b6:	9d 07       	st.w	lr[0x0],r7
8000b9b8:	10 9a       	mov	r10,r8
8000b9ba:	12 9b       	mov	r11,r9
8000b9bc:	2f 7d       	sub	sp,-36
8000b9be:	d8 32       	popm	r0-r7,pc

8000b9c0 <_close>:
8000b9c0:	30 28       	mov	r8,2
8000b9c2:	d6 73       	breakpoint
8000b9c4:	3f fc       	mov	r12,-1
8000b9c6:	35 8b       	mov	r11,88
8000b9c8:	58 0c       	cp.w	r12,0
8000b9ca:	5e 4c       	retge	r12
8000b9cc:	e0 6a 0c 38 	mov	r10,3128
8000b9d0:	95 0b       	st.w	r10[0x0],r11
8000b9d2:	5e fc       	retal	r12

8000b9d4 <_lseek>:
8000b9d4:	30 58       	mov	r8,5
8000b9d6:	d6 73       	breakpoint
8000b9d8:	3f fc       	mov	r12,-1
8000b9da:	35 8b       	mov	r11,88
8000b9dc:	58 0c       	cp.w	r12,0
8000b9de:	5e 4c       	retge	r12
8000b9e0:	e0 6a 0c 38 	mov	r10,3128
8000b9e4:	95 0b       	st.w	r10[0x0],r11
8000b9e6:	5e fc       	retal	r12

8000b9e8 <isatty>:
8000b9e8:	30 b8       	mov	r8,11
8000b9ea:	d6 73       	breakpoint
8000b9ec:	3f fc       	mov	r12,-1
8000b9ee:	35 8b       	mov	r11,88
8000b9f0:	58 0c       	cp.w	r12,0
8000b9f2:	5e 4c       	retge	r12
8000b9f4:	e0 6a 0c 38 	mov	r10,3128
8000b9f8:	95 0b       	st.w	r10[0x0],r11
8000b9fa:	5e fc       	retal	r12

8000b9fc <_fstat_host>:
8000b9fc:	30 98       	mov	r8,9
8000b9fe:	d6 73       	breakpoint
8000ba00:	3f fc       	mov	r12,-1
8000ba02:	35 8b       	mov	r11,88
8000ba04:	58 0c       	cp.w	r12,0
8000ba06:	5e 4c       	retge	r12
8000ba08:	e0 6a 0c 38 	mov	r10,3128
8000ba0c:	95 0b       	st.w	r10[0x0],r11
8000ba0e:	5e fc       	retal	r12

8000ba10 <_fstat>:
8000ba10:	d4 21       	pushm	r4-r7,lr
8000ba12:	21 0d       	sub	sp,64
8000ba14:	16 97       	mov	r7,r11
8000ba16:	1a 9b       	mov	r11,sp
8000ba18:	cf 2f       	rcall	8000b9fc <_fstat_host>
8000ba1a:	c0 34       	brge	8000ba20 <_fstat+0x10>
8000ba1c:	3f fc       	mov	r12,-1
8000ba1e:	c1 c8       	rjmp	8000ba56 <_fstat+0x46>
8000ba20:	40 08       	lddsp	r8,sp[0x0]
8000ba22:	ae 08       	st.h	r7[0x0],r8
8000ba24:	40 18       	lddsp	r8,sp[0x4]
8000ba26:	ae 18       	st.h	r7[0x2],r8
8000ba28:	40 28       	lddsp	r8,sp[0x8]
8000ba2a:	8f 18       	st.w	r7[0x4],r8
8000ba2c:	40 38       	lddsp	r8,sp[0xc]
8000ba2e:	ae 48       	st.h	r7[0x8],r8
8000ba30:	40 48       	lddsp	r8,sp[0x10]
8000ba32:	ae 58       	st.h	r7[0xa],r8
8000ba34:	40 58       	lddsp	r8,sp[0x14]
8000ba36:	ae 68       	st.h	r7[0xc],r8
8000ba38:	40 68       	lddsp	r8,sp[0x18]
8000ba3a:	ae 78       	st.h	r7[0xe],r8
8000ba3c:	40 88       	lddsp	r8,sp[0x20]
8000ba3e:	8f 48       	st.w	r7[0x10],r8
8000ba40:	40 a8       	lddsp	r8,sp[0x28]
8000ba42:	8f b8       	st.w	r7[0x2c],r8
8000ba44:	40 c8       	lddsp	r8,sp[0x30]
8000ba46:	8f c8       	st.w	r7[0x30],r8
8000ba48:	40 d8       	lddsp	r8,sp[0x34]
8000ba4a:	8f 58       	st.w	r7[0x14],r8
8000ba4c:	40 e8       	lddsp	r8,sp[0x38]
8000ba4e:	30 0c       	mov	r12,0
8000ba50:	8f 78       	st.w	r7[0x1c],r8
8000ba52:	40 f8       	lddsp	r8,sp[0x3c]
8000ba54:	8f 98       	st.w	r7[0x24],r8
8000ba56:	2f 0d       	sub	sp,-64
8000ba58:	d8 22       	popm	r4-r7,pc
8000ba5a:	d7 03       	nop

8000ba5c <_sbrk>:
8000ba5c:	d4 01       	pushm	lr
8000ba5e:	e0 68 0a 04 	mov	r8,2564
8000ba62:	70 09       	ld.w	r9,r8[0x0]
8000ba64:	58 09       	cp.w	r9,0
8000ba66:	c0 41       	brne	8000ba6e <_sbrk+0x12>
8000ba68:	e0 69 0c 40 	mov	r9,3136
8000ba6c:	91 09       	st.w	r8[0x0],r9
8000ba6e:	e0 69 0a 04 	mov	r9,2564
8000ba72:	e0 6a 70 00 	mov	r10,28672
8000ba76:	72 08       	ld.w	r8,r9[0x0]
8000ba78:	f0 0c 00 0c 	add	r12,r8,r12
8000ba7c:	14 3c       	cp.w	r12,r10
8000ba7e:	e0 8b 00 04 	brhi	8000ba86 <_sbrk+0x2a>
8000ba82:	93 0c       	st.w	r9[0x0],r12
8000ba84:	c0 58       	rjmp	8000ba8e <_sbrk+0x32>
8000ba86:	cf 7c       	rcall	8000bc74 <__errno>
8000ba88:	30 c8       	mov	r8,12
8000ba8a:	99 08       	st.w	r12[0x0],r8
8000ba8c:	3f f8       	mov	r8,-1
8000ba8e:	10 9c       	mov	r12,r8
8000ba90:	d8 02       	popm	pc
8000ba92:	d7 03       	nop

8000ba94 <__submore>:
8000ba94:	d4 21       	pushm	r4-r7,lr
8000ba96:	16 97       	mov	r7,r11
8000ba98:	76 db       	ld.w	r11,r11[0x34]
8000ba9a:	ee c8 ff bc 	sub	r8,r7,-68
8000ba9e:	10 3b       	cp.w	r11,r8
8000baa0:	c1 71       	brne	8000bace <__submore+0x3a>
8000baa2:	e0 6b 04 00 	mov	r11,1024
8000baa6:	fe b0 ed 6d 	rcall	80009580 <_malloc_r>
8000baaa:	c2 50       	breq	8000baf4 <__submore+0x60>
8000baac:	e0 68 04 00 	mov	r8,1024
8000bab0:	8f dc       	st.w	r7[0x34],r12
8000bab2:	8f e8       	st.w	r7[0x38],r8
8000bab4:	ef 38 00 46 	ld.ub	r8,r7[70]
8000bab8:	f8 cc fc 03 	sub	r12,r12,-1021
8000babc:	b8 a8       	st.b	r12[0x2],r8
8000babe:	ef 38 00 45 	ld.ub	r8,r7[69]
8000bac2:	b8 98       	st.b	r12[0x1],r8
8000bac4:	ef 38 00 44 	ld.ub	r8,r7[68]
8000bac8:	b8 88       	st.b	r12[0x0],r8
8000baca:	8f 0c       	st.w	r7[0x0],r12
8000bacc:	c1 38       	rjmp	8000baf2 <__submore+0x5e>
8000bace:	6e e5       	ld.w	r5,r7[0x38]
8000bad0:	ea 04 15 01 	lsl	r4,r5,0x1
8000bad4:	08 9a       	mov	r10,r4
8000bad6:	fe b0 f3 c5 	rcall	8000a260 <_realloc_r>
8000bada:	18 96       	mov	r6,r12
8000badc:	c0 c0       	breq	8000baf4 <__submore+0x60>
8000bade:	0a 9a       	mov	r10,r5
8000bae0:	18 9b       	mov	r11,r12
8000bae2:	f8 05 00 05 	add	r5,r12,r5
8000bae6:	0a 9c       	mov	r12,r5
8000bae8:	fe b0 c4 8c 	rcall	80004400 <memcpy>
8000baec:	8f e4       	st.w	r7[0x38],r4
8000baee:	8f 05       	st.w	r7[0x0],r5
8000baf0:	8f d6       	st.w	r7[0x34],r6
8000baf2:	d8 2a       	popm	r4-r7,pc,r12=0
8000baf4:	dc 2a       	popm	r4-r7,pc,r12=-1
8000baf6:	d7 03       	nop

8000baf8 <_ungetc_r>:
8000baf8:	d4 21       	pushm	r4-r7,lr
8000bafa:	16 97       	mov	r7,r11
8000bafc:	14 96       	mov	r6,r10
8000bafe:	18 95       	mov	r5,r12
8000bb00:	5b fb       	cp.w	r11,-1
8000bb02:	c6 70       	breq	8000bbd0 <_ungetc_r+0xd8>
8000bb04:	58 0c       	cp.w	r12,0
8000bb06:	c0 60       	breq	8000bb12 <_ungetc_r+0x1a>
8000bb08:	78 68       	ld.w	r8,r12[0x18]
8000bb0a:	58 08       	cp.w	r8,0
8000bb0c:	c0 31       	brne	8000bb12 <_ungetc_r+0x1a>
8000bb0e:	fe b0 e9 69 	rcall	80008de0 <__sinit>
8000bb12:	fe c8 de 66 	sub	r8,pc,-8602
8000bb16:	10 36       	cp.w	r6,r8
8000bb18:	c0 31       	brne	8000bb1e <_ungetc_r+0x26>
8000bb1a:	6a 06       	ld.w	r6,r5[0x0]
8000bb1c:	c0 c8       	rjmp	8000bb34 <_ungetc_r+0x3c>
8000bb1e:	fe c8 de 52 	sub	r8,pc,-8622
8000bb22:	10 36       	cp.w	r6,r8
8000bb24:	c0 31       	brne	8000bb2a <_ungetc_r+0x32>
8000bb26:	6a 16       	ld.w	r6,r5[0x4]
8000bb28:	c0 68       	rjmp	8000bb34 <_ungetc_r+0x3c>
8000bb2a:	fe c8 de 3e 	sub	r8,pc,-8642
8000bb2e:	10 36       	cp.w	r6,r8
8000bb30:	eb f6 00 02 	ld.weq	r6,r5[0x8]
8000bb34:	8c 68       	ld.sh	r8,r6[0xc]
8000bb36:	a5 d8       	cbr	r8,0x5
8000bb38:	ac 68       	st.h	r6[0xc],r8
8000bb3a:	ed b8 00 02 	bld	r8,0x2
8000bb3e:	c1 40       	breq	8000bb66 <_ungetc_r+0x6e>
8000bb40:	ed b8 00 04 	bld	r8,0x4
8000bb44:	c4 51       	brne	8000bbce <_ungetc_r+0xd6>
8000bb46:	ed b8 00 03 	bld	r8,0x3
8000bb4a:	c0 b1       	brne	8000bb60 <_ungetc_r+0x68>
8000bb4c:	0c 9b       	mov	r11,r6
8000bb4e:	0a 9c       	mov	r12,r5
8000bb50:	fe b0 e8 5e 	rcall	80008c0c <_fflush_r>
8000bb54:	c3 d1       	brne	8000bbce <_ungetc_r+0xd6>
8000bb56:	8c 68       	ld.sh	r8,r6[0xc]
8000bb58:	8d 6c       	st.w	r6[0x18],r12
8000bb5a:	a3 d8       	cbr	r8,0x3
8000bb5c:	8d 2c       	st.w	r6[0x8],r12
8000bb5e:	ac 68       	st.h	r6[0xc],r8
8000bb60:	8c 68       	ld.sh	r8,r6[0xc]
8000bb62:	a3 a8       	sbr	r8,0x2
8000bb64:	ac 68       	st.h	r6[0xc],r8
8000bb66:	0e 94       	mov	r4,r7
8000bb68:	6c d8       	ld.w	r8,r6[0x34]
8000bb6a:	5c 54       	castu.b	r4
8000bb6c:	58 08       	cp.w	r8,0
8000bb6e:	c0 f0       	breq	8000bb8c <_ungetc_r+0x94>
8000bb70:	6c 19       	ld.w	r9,r6[0x4]
8000bb72:	6c e8       	ld.w	r8,r6[0x38]
8000bb74:	10 39       	cp.w	r9,r8
8000bb76:	c0 55       	brlt	8000bb80 <_ungetc_r+0x88>
8000bb78:	0a 9c       	mov	r12,r5
8000bb7a:	0c 9b       	mov	r11,r6
8000bb7c:	c8 cf       	rcall	8000ba94 <__submore>
8000bb7e:	c2 81       	brne	8000bbce <_ungetc_r+0xd6>
8000bb80:	6c 08       	ld.w	r8,r6[0x0]
8000bb82:	20 18       	sub	r8,1
8000bb84:	8d 08       	st.w	r6[0x0],r8
8000bb86:	b0 84       	st.b	r8[0x0],r4
8000bb88:	08 97       	mov	r7,r4
8000bb8a:	c0 c8       	rjmp	8000bba2 <_ungetc_r+0xaa>
8000bb8c:	6c 49       	ld.w	r9,r6[0x10]
8000bb8e:	58 09       	cp.w	r9,0
8000bb90:	c0 c0       	breq	8000bba8 <_ungetc_r+0xb0>
8000bb92:	6c 08       	ld.w	r8,r6[0x0]
8000bb94:	12 38       	cp.w	r8,r9
8000bb96:	e0 88 00 09 	brls	8000bba8 <_ungetc_r+0xb0>
8000bb9a:	11 77       	ld.ub	r7,--r8
8000bb9c:	08 37       	cp.w	r7,r4
8000bb9e:	c0 51       	brne	8000bba8 <_ungetc_r+0xb0>
8000bba0:	8d 08       	st.w	r6[0x0],r8
8000bba2:	6c 18       	ld.w	r8,r6[0x4]
8000bba4:	2f f8       	sub	r8,-1
8000bba6:	c1 28       	rjmp	8000bbca <_ungetc_r+0xd2>
8000bba8:	6c 18       	ld.w	r8,r6[0x4]
8000bbaa:	ed 48 00 40 	st.w	r6[64],r8
8000bbae:	6c 08       	ld.w	r8,r6[0x0]
8000bbb0:	8d f8       	st.w	r6[0x3c],r8
8000bbb2:	ec c8 ff bc 	sub	r8,r6,-68
8000bbb6:	8d d8       	st.w	r6[0x34],r8
8000bbb8:	30 38       	mov	r8,3
8000bbba:	8d e8       	st.w	r6[0x38],r8
8000bbbc:	ec c8 ff ba 	sub	r8,r6,-70
8000bbc0:	ed 64 00 46 	st.b	r6[70],r4
8000bbc4:	8d 08       	st.w	r6[0x0],r8
8000bbc6:	08 97       	mov	r7,r4
8000bbc8:	30 18       	mov	r8,1
8000bbca:	8d 18       	st.w	r6[0x4],r8
8000bbcc:	c0 28       	rjmp	8000bbd0 <_ungetc_r+0xd8>
8000bbce:	3f f7       	mov	r7,-1
8000bbd0:	0e 9c       	mov	r12,r7
8000bbd2:	d8 22       	popm	r4-r7,pc

8000bbd4 <_write_r>:
8000bbd4:	d4 21       	pushm	r4-r7,lr
8000bbd6:	16 98       	mov	r8,r11
8000bbd8:	18 97       	mov	r7,r12
8000bbda:	10 9c       	mov	r12,r8
8000bbdc:	30 08       	mov	r8,0
8000bbde:	14 9b       	mov	r11,r10
8000bbe0:	e0 66 0c 38 	mov	r6,3128
8000bbe4:	12 9a       	mov	r10,r9
8000bbe6:	8d 08       	st.w	r6[0x0],r8
8000bbe8:	fe b0 c3 5c 	rcall	800042a0 <_write>
8000bbec:	5b fc       	cp.w	r12,-1
8000bbee:	c0 51       	brne	8000bbf8 <_write_r+0x24>
8000bbf0:	6c 08       	ld.w	r8,r6[0x0]
8000bbf2:	58 08       	cp.w	r8,0
8000bbf4:	ef f8 1a 03 	st.wne	r7[0xc],r8
8000bbf8:	d8 22       	popm	r4-r7,pc
8000bbfa:	d7 03       	nop

8000bbfc <_calloc_r>:
8000bbfc:	d4 21       	pushm	r4-r7,lr
8000bbfe:	f4 0b 02 4b 	mul	r11,r10,r11
8000bc02:	fe b0 ec bf 	rcall	80009580 <_malloc_r>
8000bc06:	18 97       	mov	r7,r12
8000bc08:	c2 30       	breq	8000bc4e <_calloc_r+0x52>
8000bc0a:	f8 fa ff fc 	ld.w	r10,r12[-4]
8000bc0e:	e0 1a ff fc 	andl	r10,0xfffc
8000bc12:	20 4a       	sub	r10,4
8000bc14:	e0 4a 00 24 	cp.w	r10,36
8000bc18:	e0 8b 00 18 	brhi	8000bc48 <_calloc_r+0x4c>
8000bc1c:	18 98       	mov	r8,r12
8000bc1e:	59 3a       	cp.w	r10,19
8000bc20:	e0 88 00 0f 	brls	8000bc3e <_calloc_r+0x42>
8000bc24:	30 09       	mov	r9,0
8000bc26:	10 a9       	st.w	r8++,r9
8000bc28:	10 a9       	st.w	r8++,r9
8000bc2a:	59 ba       	cp.w	r10,27
8000bc2c:	e0 88 00 09 	brls	8000bc3e <_calloc_r+0x42>
8000bc30:	10 a9       	st.w	r8++,r9
8000bc32:	10 a9       	st.w	r8++,r9
8000bc34:	e0 4a 00 24 	cp.w	r10,36
8000bc38:	c0 31       	brne	8000bc3e <_calloc_r+0x42>
8000bc3a:	10 a9       	st.w	r8++,r9
8000bc3c:	10 a9       	st.w	r8++,r9
8000bc3e:	30 09       	mov	r9,0
8000bc40:	10 a9       	st.w	r8++,r9
8000bc42:	91 19       	st.w	r8[0x4],r9
8000bc44:	91 09       	st.w	r8[0x0],r9
8000bc46:	c0 48       	rjmp	8000bc4e <_calloc_r+0x52>
8000bc48:	30 0b       	mov	r11,0
8000bc4a:	fe b0 c4 7f 	rcall	80004548 <memset>
8000bc4e:	0e 9c       	mov	r12,r7
8000bc50:	d8 22       	popm	r4-r7,pc
8000bc52:	d7 03       	nop

8000bc54 <_close_r>:
8000bc54:	d4 21       	pushm	r4-r7,lr
8000bc56:	30 08       	mov	r8,0
8000bc58:	18 97       	mov	r7,r12
8000bc5a:	e0 66 0c 38 	mov	r6,3128
8000bc5e:	16 9c       	mov	r12,r11
8000bc60:	8d 08       	st.w	r6[0x0],r8
8000bc62:	ca fe       	rcall	8000b9c0 <_close>
8000bc64:	5b fc       	cp.w	r12,-1
8000bc66:	c0 51       	brne	8000bc70 <_close_r+0x1c>
8000bc68:	6c 08       	ld.w	r8,r6[0x0]
8000bc6a:	58 08       	cp.w	r8,0
8000bc6c:	ef f8 1a 03 	st.wne	r7[0xc],r8
8000bc70:	d8 22       	popm	r4-r7,pc
8000bc72:	d7 03       	nop

8000bc74 <__errno>:
8000bc74:	e0 68 01 94 	mov	r8,404
8000bc78:	70 0c       	ld.w	r12,r8[0x0]
8000bc7a:	2f 4c       	sub	r12,-12
8000bc7c:	5e fc       	retal	r12
8000bc7e:	d7 03       	nop

8000bc80 <_fclose_r>:
8000bc80:	d4 21       	pushm	r4-r7,lr
8000bc82:	18 96       	mov	r6,r12
8000bc84:	16 97       	mov	r7,r11
8000bc86:	58 0b       	cp.w	r11,0
8000bc88:	c0 31       	brne	8000bc8e <_fclose_r+0xe>
8000bc8a:	16 95       	mov	r5,r11
8000bc8c:	c5 38       	rjmp	8000bd32 <_fclose_r+0xb2>
8000bc8e:	fe b0 e8 57 	rcall	80008d3c <__sfp_lock_acquire>
8000bc92:	58 06       	cp.w	r6,0
8000bc94:	c0 70       	breq	8000bca2 <_fclose_r+0x22>
8000bc96:	6c 68       	ld.w	r8,r6[0x18]
8000bc98:	58 08       	cp.w	r8,0
8000bc9a:	c0 41       	brne	8000bca2 <_fclose_r+0x22>
8000bc9c:	0c 9c       	mov	r12,r6
8000bc9e:	fe b0 e8 a1 	rcall	80008de0 <__sinit>
8000bca2:	fe c8 df f6 	sub	r8,pc,-8202
8000bca6:	10 37       	cp.w	r7,r8
8000bca8:	c0 31       	brne	8000bcae <_fclose_r+0x2e>
8000bcaa:	6c 07       	ld.w	r7,r6[0x0]
8000bcac:	c0 c8       	rjmp	8000bcc4 <_fclose_r+0x44>
8000bcae:	fe c8 df e2 	sub	r8,pc,-8222
8000bcb2:	10 37       	cp.w	r7,r8
8000bcb4:	c0 31       	brne	8000bcba <_fclose_r+0x3a>
8000bcb6:	6c 17       	ld.w	r7,r6[0x4]
8000bcb8:	c0 68       	rjmp	8000bcc4 <_fclose_r+0x44>
8000bcba:	fe c8 df ce 	sub	r8,pc,-8242
8000bcbe:	10 37       	cp.w	r7,r8
8000bcc0:	ed f7 00 02 	ld.weq	r7,r6[0x8]
8000bcc4:	8e 69       	ld.sh	r9,r7[0xc]
8000bcc6:	30 08       	mov	r8,0
8000bcc8:	f0 09 19 00 	cp.h	r9,r8
8000bccc:	c0 51       	brne	8000bcd6 <_fclose_r+0x56>
8000bcce:	fe b0 e8 38 	rcall	80008d3e <__sfp_lock_release>
8000bcd2:	30 05       	mov	r5,0
8000bcd4:	c2 f8       	rjmp	8000bd32 <_fclose_r+0xb2>
8000bcd6:	0e 9b       	mov	r11,r7
8000bcd8:	0c 9c       	mov	r12,r6
8000bcda:	fe b0 e7 99 	rcall	80008c0c <_fflush_r>
8000bcde:	6e c8       	ld.w	r8,r7[0x30]
8000bce0:	18 95       	mov	r5,r12
8000bce2:	58 08       	cp.w	r8,0
8000bce4:	c0 60       	breq	8000bcf0 <_fclose_r+0x70>
8000bce6:	6e 8b       	ld.w	r11,r7[0x20]
8000bce8:	0c 9c       	mov	r12,r6
8000bcea:	5d 18       	icall	r8
8000bcec:	f9 b5 05 ff 	movlt	r5,-1
8000bcf0:	8e 68       	ld.sh	r8,r7[0xc]
8000bcf2:	ed b8 00 07 	bld	r8,0x7
8000bcf6:	c0 51       	brne	8000bd00 <_fclose_r+0x80>
8000bcf8:	6e 4b       	ld.w	r11,r7[0x10]
8000bcfa:	0c 9c       	mov	r12,r6
8000bcfc:	fe b0 e9 66 	rcall	80008fc8 <_free_r>
8000bd00:	6e db       	ld.w	r11,r7[0x34]
8000bd02:	58 0b       	cp.w	r11,0
8000bd04:	c0 a0       	breq	8000bd18 <_fclose_r+0x98>
8000bd06:	ee c8 ff bc 	sub	r8,r7,-68
8000bd0a:	10 3b       	cp.w	r11,r8
8000bd0c:	c0 40       	breq	8000bd14 <_fclose_r+0x94>
8000bd0e:	0c 9c       	mov	r12,r6
8000bd10:	fe b0 e9 5c 	rcall	80008fc8 <_free_r>
8000bd14:	30 08       	mov	r8,0
8000bd16:	8f d8       	st.w	r7[0x34],r8
8000bd18:	6f 2b       	ld.w	r11,r7[0x48]
8000bd1a:	58 0b       	cp.w	r11,0
8000bd1c:	c0 70       	breq	8000bd2a <_fclose_r+0xaa>
8000bd1e:	0c 9c       	mov	r12,r6
8000bd20:	fe b0 e9 54 	rcall	80008fc8 <_free_r>
8000bd24:	30 08       	mov	r8,0
8000bd26:	ef 48 00 48 	st.w	r7[72],r8
8000bd2a:	30 08       	mov	r8,0
8000bd2c:	ae 68       	st.h	r7[0xc],r8
8000bd2e:	fe b0 e8 08 	rcall	80008d3e <__sfp_lock_release>
8000bd32:	0a 9c       	mov	r12,r5
8000bd34:	d8 22       	popm	r4-r7,pc
8000bd36:	d7 03       	nop

8000bd38 <fclose>:
8000bd38:	d4 01       	pushm	lr
8000bd3a:	e0 68 01 94 	mov	r8,404
8000bd3e:	18 9b       	mov	r11,r12
8000bd40:	70 0c       	ld.w	r12,r8[0x0]
8000bd42:	c9 ff       	rcall	8000bc80 <_fclose_r>
8000bd44:	d8 02       	popm	pc
8000bd46:	d7 03       	nop

8000bd48 <_fstat_r>:
8000bd48:	d4 21       	pushm	r4-r7,lr
8000bd4a:	16 98       	mov	r8,r11
8000bd4c:	18 97       	mov	r7,r12
8000bd4e:	10 9c       	mov	r12,r8
8000bd50:	30 08       	mov	r8,0
8000bd52:	e0 66 0c 38 	mov	r6,3128
8000bd56:	14 9b       	mov	r11,r10
8000bd58:	8d 08       	st.w	r6[0x0],r8
8000bd5a:	c5 be       	rcall	8000ba10 <_fstat>
8000bd5c:	5b fc       	cp.w	r12,-1
8000bd5e:	c0 51       	brne	8000bd68 <_fstat_r+0x20>
8000bd60:	6c 08       	ld.w	r8,r6[0x0]
8000bd62:	58 08       	cp.w	r8,0
8000bd64:	ef f8 1a 03 	st.wne	r7[0xc],r8
8000bd68:	d8 22       	popm	r4-r7,pc
8000bd6a:	d7 03       	nop

8000bd6c <__hexdig_init>:
8000bd6c:	fe c9 de c0 	sub	r9,pc,-8512
8000bd70:	31 08       	mov	r8,16
8000bd72:	e0 6b 0b 38 	mov	r11,2872
8000bd76:	c0 58       	rjmp	8000bd80 <__hexdig_init+0x14>
8000bd78:	f6 0a 0b 08 	st.b	r11[r10],r8
8000bd7c:	f1 dc c0 08 	bfextu	r8,r12,0x0,0x8
8000bd80:	f0 cc ff ff 	sub	r12,r8,-1
8000bd84:	13 3a       	ld.ub	r10,r9++
8000bd86:	58 0a       	cp.w	r10,0
8000bd88:	cf 81       	brne	8000bd78 <__hexdig_init+0xc>
8000bd8a:	fe c9 de e6 	sub	r9,pc,-8474
8000bd8e:	31 a8       	mov	r8,26
8000bd90:	e0 6b 0b 38 	mov	r11,2872
8000bd94:	c0 58       	rjmp	8000bd9e <__hexdig_init+0x32>
8000bd96:	f6 0a 0b 08 	st.b	r11[r10],r8
8000bd9a:	f1 dc c0 08 	bfextu	r8,r12,0x0,0x8
8000bd9e:	f0 cc ff ff 	sub	r12,r8,-1
8000bda2:	13 3a       	ld.ub	r10,r9++
8000bda4:	58 0a       	cp.w	r10,0
8000bda6:	cf 81       	brne	8000bd96 <__hexdig_init+0x2a>
8000bda8:	fe c9 df 0c 	sub	r9,pc,-8436
8000bdac:	31 a8       	mov	r8,26
8000bdae:	e0 6b 0b 38 	mov	r11,2872
8000bdb2:	c0 58       	rjmp	8000bdbc <__hexdig_init+0x50>
8000bdb4:	f6 0a 0b 08 	st.b	r11[r10],r8
8000bdb8:	f1 dc c0 08 	bfextu	r8,r12,0x0,0x8
8000bdbc:	f0 cc ff ff 	sub	r12,r8,-1
8000bdc0:	13 3a       	ld.ub	r10,r9++
8000bdc2:	58 0a       	cp.w	r10,0
8000bdc4:	cf 81       	brne	8000bdb4 <__hexdig_init+0x48>
8000bdc6:	5e fc       	retal	r12

8000bdc8 <rshift>:
8000bdc8:	d4 21       	pushm	r4-r7,lr
8000bdca:	f8 c8 ff ec 	sub	r8,r12,-20
8000bdce:	f6 09 14 05 	asr	r9,r11,0x5
8000bdd2:	78 4e       	ld.w	lr,r12[0x10]
8000bdd4:	1c 39       	cp.w	r9,lr
8000bdd6:	c2 64       	brge	8000be22 <rshift+0x5a>
8000bdd8:	2f be       	sub	lr,-5
8000bdda:	2f b9       	sub	r9,-5
8000bddc:	f8 0e 00 2e 	add	lr,r12,lr<<0x2
8000bde0:	f7 db c0 05 	bfextu	r11,r11,0x0,0x5
8000bde4:	f8 09 00 2a 	add	r10,r12,r9<<0x2
8000bde8:	58 0b       	cp.w	r11,0
8000bdea:	c1 a0       	breq	8000be1e <rshift+0x56>
8000bdec:	f8 09 03 29 	ld.w	r9,r12[r9<<0x2]
8000bdf0:	2f ca       	sub	r10,-4
8000bdf2:	f2 0b 0a 49 	lsr	r9,r9,r11
8000bdf6:	f6 07 11 20 	rsub	r7,r11,32
8000bdfa:	c0 98       	rjmp	8000be0c <rshift+0x44>
8000bdfc:	74 06       	ld.w	r6,r10[0x0]
8000bdfe:	ec 07 09 46 	lsl	r6,r6,r7
8000be02:	0c 49       	or	r9,r6
8000be04:	10 a9       	st.w	r8++,r9
8000be06:	15 09       	ld.w	r9,r10++
8000be08:	f2 0b 0a 49 	lsr	r9,r9,r11
8000be0c:	1c 3a       	cp.w	r10,lr
8000be0e:	cf 73       	brcs	8000bdfc <rshift+0x34>
8000be10:	91 09       	st.w	r8[0x0],r9
8000be12:	58 09       	cp.w	r9,0
8000be14:	c0 70       	breq	8000be22 <rshift+0x5a>
8000be16:	2f c8       	sub	r8,-4
8000be18:	c0 58       	rjmp	8000be22 <rshift+0x5a>
8000be1a:	15 09       	ld.w	r9,r10++
8000be1c:	10 a9       	st.w	r8++,r9
8000be1e:	1c 3a       	cp.w	r10,lr
8000be20:	cf d3       	brcs	8000be1a <rshift+0x52>
8000be22:	f8 c9 ff ec 	sub	r9,r12,-20
8000be26:	12 18       	sub	r8,r9
8000be28:	a3 48       	asr	r8,0x2
8000be2a:	99 48       	st.w	r12[0x10],r8
8000be2c:	f9 f8 0a 05 	st.weq	r12[0x14],r8
8000be30:	d8 22       	popm	r4-r7,pc
8000be32:	d7 03       	nop

8000be34 <__gethex>:
8000be34:	d4 31       	pushm	r0-r7,lr
8000be36:	20 3d       	sub	sp,12
8000be38:	50 29       	stdsp	sp[0x8],r9
8000be3a:	50 08       	stdsp	sp[0x0],r8
8000be3c:	40 c9       	lddsp	r9,sp[0x30]
8000be3e:	e0 68 0b 38 	mov	r8,2872
8000be42:	50 19       	stdsp	sp[0x4],r9
8000be44:	18 91       	mov	r1,r12
8000be46:	f1 39 00 30 	ld.ub	r9,r8[48]
8000be4a:	16 96       	mov	r6,r11
8000be4c:	14 97       	mov	r7,r10
8000be4e:	30 08       	mov	r8,0
8000be50:	f0 09 18 00 	cp.b	r9,r8
8000be54:	c0 21       	brne	8000be58 <__gethex+0x24>
8000be56:	c8 bf       	rcall	8000bd6c <__hexdig_init>
8000be58:	6c 05       	ld.w	r5,r6[0x0]
8000be5a:	30 03       	mov	r3,0
8000be5c:	2f e5       	sub	r5,-2
8000be5e:	33 09       	mov	r9,48
8000be60:	c0 28       	rjmp	8000be64 <__gethex+0x30>
8000be62:	2f f3       	sub	r3,-1
8000be64:	0a 94       	mov	r4,r5
8000be66:	0b 88       	ld.ub	r8,r5[0x0]
8000be68:	2f f5       	sub	r5,-1
8000be6a:	f2 08 18 00 	cp.b	r8,r9
8000be6e:	cf a0       	breq	8000be62 <__gethex+0x2e>
8000be70:	e0 6a 0b 38 	mov	r10,2872
8000be74:	30 0b       	mov	r11,0
8000be76:	f4 08 07 09 	ld.ub	r9,r10[r8]
8000be7a:	f6 09 18 00 	cp.b	r9,r11
8000be7e:	c0 50       	breq	8000be88 <__gethex+0x54>
8000be80:	30 0b       	mov	r11,0
8000be82:	08 92       	mov	r2,r4
8000be84:	16 95       	mov	r5,r11
8000be86:	c2 c8       	rjmp	8000bede <__gethex+0xaa>
8000be88:	32 eb       	mov	r11,46
8000be8a:	f6 08 18 00 	cp.b	r8,r11
8000be8e:	c0 30       	breq	8000be94 <__gethex+0x60>
8000be90:	08 92       	mov	r2,r4
8000be92:	c0 88       	rjmp	8000bea2 <__gethex+0x6e>
8000be94:	0b 88       	ld.ub	r8,r5[0x0]
8000be96:	0a 92       	mov	r2,r5
8000be98:	f4 08 07 08 	ld.ub	r8,r10[r8]
8000be9c:	f2 08 18 00 	cp.b	r8,r9
8000bea0:	c0 41       	brne	8000bea8 <__gethex+0x74>
8000bea2:	30 05       	mov	r5,0
8000bea4:	30 1b       	mov	r11,1
8000bea6:	c4 38       	rjmp	8000bf2c <__gethex+0xf8>
8000bea8:	0a 92       	mov	r2,r5
8000beaa:	33 09       	mov	r9,48
8000beac:	c0 28       	rjmp	8000beb0 <__gethex+0x7c>
8000beae:	2f f2       	sub	r2,-1
8000beb0:	05 88       	ld.ub	r8,r2[0x0]
8000beb2:	f2 08 18 00 	cp.b	r8,r9
8000beb6:	cf c0       	breq	8000beae <__gethex+0x7a>
8000beb8:	e0 69 0b 38 	mov	r9,2872
8000bebc:	f2 08 07 09 	ld.ub	r9,r9[r8]
8000bec0:	30 08       	mov	r8,0
8000bec2:	f0 09 18 00 	cp.b	r9,r8
8000bec6:	e4 04 17 10 	movne	r4,r2
8000beca:	f9 bb 01 00 	movne	r11,0
8000bece:	f9 b3 01 01 	movne	r3,1
8000bed2:	f9 bb 00 01 	moveq	r11,1
8000bed6:	e4 04 17 00 	moveq	r4,r2
8000beda:	f6 03 17 00 	moveq	r3,r11
8000bede:	e0 6a 0b 38 	mov	r10,2872
8000bee2:	30 08       	mov	r8,0
8000bee4:	c0 28       	rjmp	8000bee8 <__gethex+0xb4>
8000bee6:	2f f2       	sub	r2,-1
8000bee8:	05 89       	ld.ub	r9,r2[0x0]
8000beea:	f4 09 07 0c 	ld.ub	r12,r10[r9]
8000beee:	f0 0c 18 00 	cp.b	r12,r8
8000bef2:	cf a1       	brne	8000bee6 <__gethex+0xb2>
8000bef4:	58 05       	cp.w	r5,0
8000bef6:	5f 0a       	sreq	r10
8000bef8:	32 ec       	mov	r12,46
8000befa:	f8 09 18 00 	cp.b	r9,r12
8000befe:	5f 09       	sreq	r9
8000bf00:	f3 ea 00 0a 	and	r10,r9,r10
8000bf04:	f0 0a 18 00 	cp.b	r10,r8
8000bf08:	c0 e0       	breq	8000bf24 <__gethex+0xf0>
8000bf0a:	2f f2       	sub	r2,-1
8000bf0c:	e0 69 0b 38 	mov	r9,2872
8000bf10:	04 95       	mov	r5,r2
8000bf12:	30 08       	mov	r8,0
8000bf14:	c0 28       	rjmp	8000bf18 <__gethex+0xe4>
8000bf16:	2f f2       	sub	r2,-1
8000bf18:	05 8a       	ld.ub	r10,r2[0x0]
8000bf1a:	f2 0a 07 0a 	ld.ub	r10,r9[r10]
8000bf1e:	f0 0a 18 00 	cp.b	r10,r8
8000bf22:	cf a1       	brne	8000bf16 <__gethex+0xe2>
8000bf24:	58 05       	cp.w	r5,0
8000bf26:	c0 30       	breq	8000bf2c <__gethex+0xf8>
8000bf28:	04 15       	sub	r5,r2
8000bf2a:	a3 65       	lsl	r5,0x2
8000bf2c:	05 88       	ld.ub	r8,r2[0x0]
8000bf2e:	35 09       	mov	r9,80
8000bf30:	f2 08 18 00 	cp.b	r8,r9
8000bf34:	c0 50       	breq	8000bf3e <__gethex+0x10a>
8000bf36:	37 09       	mov	r9,112
8000bf38:	f2 08 18 00 	cp.b	r8,r9
8000bf3c:	c3 21       	brne	8000bfa0 <__gethex+0x16c>
8000bf3e:	e4 c8 ff ff 	sub	r8,r2,-1
8000bf42:	32 ba       	mov	r10,43
8000bf44:	11 89       	ld.ub	r9,r8[0x0]
8000bf46:	f4 09 18 00 	cp.b	r9,r10
8000bf4a:	c0 90       	breq	8000bf5c <__gethex+0x128>
8000bf4c:	32 da       	mov	r10,45
8000bf4e:	f4 09 18 00 	cp.b	r9,r10
8000bf52:	c0 30       	breq	8000bf58 <__gethex+0x124>
8000bf54:	30 0a       	mov	r10,0
8000bf56:	c0 58       	rjmp	8000bf60 <__gethex+0x12c>
8000bf58:	30 1a       	mov	r10,1
8000bf5a:	c0 28       	rjmp	8000bf5e <__gethex+0x12a>
8000bf5c:	30 0a       	mov	r10,0
8000bf5e:	2f f8       	sub	r8,-1
8000bf60:	e0 6e 0b 38 	mov	lr,2872
8000bf64:	11 89       	ld.ub	r9,r8[0x0]
8000bf66:	fc 09 07 09 	ld.ub	r9,lr[r9]
8000bf6a:	58 09       	cp.w	r9,0
8000bf6c:	c1 a0       	breq	8000bfa0 <__gethex+0x16c>
8000bf6e:	59 99       	cp.w	r9,25
8000bf70:	e0 89 00 18 	brgt	8000bfa0 <__gethex+0x16c>
8000bf74:	21 09       	sub	r9,16
8000bf76:	c0 48       	rjmp	8000bf7e <__gethex+0x14a>
8000bf78:	21 0c       	sub	r12,16
8000bf7a:	f8 00 00 19 	add	r9,r12,r0<<0x1
8000bf7e:	2f f8       	sub	r8,-1
8000bf80:	f2 09 00 20 	add	r0,r9,r9<<0x2
8000bf84:	11 8c       	ld.ub	r12,r8[0x0]
8000bf86:	fc 0c 07 0c 	ld.ub	r12,lr[r12]
8000bf8a:	58 0c       	cp.w	r12,0
8000bf8c:	c0 40       	breq	8000bf94 <__gethex+0x160>
8000bf8e:	59 9c       	cp.w	r12,25
8000bf90:	fe 9a ff f4 	brle	8000bf78 <__gethex+0x144>
8000bf94:	58 0a       	cp.w	r10,0
8000bf96:	fb b9 01 00 	rsubne	r9,0
8000bf9a:	12 05       	add	r5,r9
8000bf9c:	c0 38       	rjmp	8000bfa2 <__gethex+0x16e>
8000bf9e:	d7 03       	nop
8000bfa0:	04 98       	mov	r8,r2
8000bfa2:	8d 08       	st.w	r6[0x0],r8
8000bfa4:	58 0b       	cp.w	r11,0
8000bfa6:	c0 70       	breq	8000bfb4 <__gethex+0x180>
8000bfa8:	58 03       	cp.w	r3,0
8000bfaa:	f9 b3 01 00 	movne	r3,0
8000bfae:	f9 b3 00 06 	moveq	r3,6
8000bfb2:	c5 19       	rjmp	8000c254 <__gethex+0x420>
8000bfb4:	e4 c8 00 01 	sub	r8,r2,1
8000bfb8:	08 18       	sub	r8,r4
8000bfba:	c0 38       	rjmp	8000bfc0 <__gethex+0x18c>
8000bfbc:	2f fb       	sub	r11,-1
8000bfbe:	a1 58       	asr	r8,0x1
8000bfc0:	58 78       	cp.w	r8,7
8000bfc2:	fe 99 ff fd 	brgt	8000bfbc <__gethex+0x188>
8000bfc6:	02 9c       	mov	r12,r1
8000bfc8:	fe b0 ee ce 	rcall	80009d64 <_Balloc>
8000bfcc:	30 08       	mov	r8,0
8000bfce:	f8 c0 ff ec 	sub	r0,r12,-20
8000bfd2:	18 96       	mov	r6,r12
8000bfd4:	00 9a       	mov	r10,r0
8000bfd6:	10 99       	mov	r9,r8
8000bfd8:	32 eb       	mov	r11,46
8000bfda:	e0 6e 0b 38 	mov	lr,2872
8000bfde:	c1 48       	rjmp	8000c006 <__gethex+0x1d2>
8000bfe0:	05 7c       	ld.ub	r12,--r2
8000bfe2:	f6 0c 18 00 	cp.b	r12,r11
8000bfe6:	c1 00       	breq	8000c006 <__gethex+0x1d2>
8000bfe8:	e0 49 00 20 	cp.w	r9,32
8000bfec:	c0 41       	brne	8000bff4 <__gethex+0x1c0>
8000bfee:	14 a8       	st.w	r10++,r8
8000bff0:	30 08       	mov	r8,0
8000bff2:	10 99       	mov	r9,r8
8000bff4:	05 8c       	ld.ub	r12,r2[0x0]
8000bff6:	fc 0c 07 0c 	ld.ub	r12,lr[r12]
8000bffa:	f9 dc c0 04 	bfextu	r12,r12,0x0,0x4
8000bffe:	f8 09 09 4c 	lsl	r12,r12,r9
8000c002:	2f c9       	sub	r9,-4
8000c004:	18 48       	or	r8,r12
8000c006:	08 32       	cp.w	r2,r4
8000c008:	fe 9b ff ec 	brhi	8000bfe0 <__gethex+0x1ac>
8000c00c:	14 a8       	st.w	r10++,r8
8000c00e:	10 9c       	mov	r12,r8
8000c010:	ec c8 ff ec 	sub	r8,r6,-20
8000c014:	10 1a       	sub	r10,r8
8000c016:	a3 4a       	asr	r10,0x2
8000c018:	f4 03 15 05 	lsl	r3,r10,0x5
8000c01c:	8d 4a       	st.w	r6[0x10],r10
8000c01e:	fe b0 ed 23 	rcall	80009a64 <__hi0bits>
8000c022:	6e 04       	ld.w	r4,r7[0x0]
8000c024:	18 13       	sub	r3,r12
8000c026:	08 33       	cp.w	r3,r4
8000c028:	e0 8a 00 27 	brle	8000c076 <__gethex+0x242>
8000c02c:	08 13       	sub	r3,r4
8000c02e:	0c 9c       	mov	r12,r6
8000c030:	06 9b       	mov	r11,r3
8000c032:	fe b0 ee 58 	rcall	80009ce2 <__any_on>
8000c036:	c0 31       	brne	8000c03c <__gethex+0x208>
8000c038:	18 92       	mov	r2,r12
8000c03a:	c1 98       	rjmp	8000c06c <__gethex+0x238>
8000c03c:	e6 cb 00 01 	sub	r11,r3,1
8000c040:	30 12       	mov	r2,1
8000c042:	f6 08 14 05 	asr	r8,r11,0x5
8000c046:	e4 0b 09 49 	lsl	r9,r2,r11
8000c04a:	2f b8       	sub	r8,-5
8000c04c:	ec 08 03 28 	ld.w	r8,r6[r8<<0x2]
8000c050:	f3 e8 00 08 	and	r8,r9,r8
8000c054:	c0 c0       	breq	8000c06c <__gethex+0x238>
8000c056:	04 3b       	cp.w	r11,r2
8000c058:	e0 8a 00 09 	brle	8000c06a <__gethex+0x236>
8000c05c:	20 1b       	sub	r11,1
8000c05e:	0c 9c       	mov	r12,r6
8000c060:	fe b0 ee 41 	rcall	80009ce2 <__any_on>
8000c064:	c0 30       	breq	8000c06a <__gethex+0x236>
8000c066:	30 32       	mov	r2,3
8000c068:	c0 28       	rjmp	8000c06c <__gethex+0x238>
8000c06a:	30 22       	mov	r2,2
8000c06c:	06 05       	add	r5,r3
8000c06e:	06 9b       	mov	r11,r3
8000c070:	0c 9c       	mov	r12,r6
8000c072:	ca be       	rcall	8000bdc8 <rshift>
8000c074:	c1 08       	rjmp	8000c094 <__gethex+0x260>
8000c076:	08 33       	cp.w	r3,r4
8000c078:	c0 35       	brlt	8000c07e <__gethex+0x24a>
8000c07a:	30 02       	mov	r2,0
8000c07c:	c0 c8       	rjmp	8000c094 <__gethex+0x260>
8000c07e:	e8 03 01 0a 	sub	r10,r4,r3
8000c082:	0c 9b       	mov	r11,r6
8000c084:	14 15       	sub	r5,r10
8000c086:	02 9c       	mov	r12,r1
8000c088:	30 02       	mov	r2,0
8000c08a:	fe b0 ef 5f 	rcall	80009f48 <__lshift>
8000c08e:	18 96       	mov	r6,r12
8000c090:	f8 c0 ff ec 	sub	r0,r12,-20
8000c094:	6e 28       	ld.w	r8,r7[0x8]
8000c096:	10 35       	cp.w	r5,r8
8000c098:	e0 8a 00 09 	brle	8000c0aa <__gethex+0x276>
8000c09c:	0c 9b       	mov	r11,r6
8000c09e:	02 9c       	mov	r12,r1
8000c0a0:	e0 63 00 a3 	mov	r3,163
8000c0a4:	fe b0 ee 46 	rcall	80009d30 <_Bfree>
8000c0a8:	c3 38       	rjmp	8000c10e <__gethex+0x2da>
8000c0aa:	6e 18       	ld.w	r8,r7[0x4]
8000c0ac:	10 35       	cp.w	r5,r8
8000c0ae:	c0 35       	brlt	8000c0b4 <__gethex+0x280>
8000c0b0:	30 13       	mov	r3,1
8000c0b2:	c5 38       	rjmp	8000c158 <__gethex+0x324>
8000c0b4:	f0 05 01 05 	sub	r5,r8,r5
8000c0b8:	08 35       	cp.w	r5,r4
8000c0ba:	c2 e5       	brlt	8000c116 <__gethex+0x2e2>
8000c0bc:	6e 38       	ld.w	r8,r7[0xc]
8000c0be:	58 28       	cp.w	r8,2
8000c0c0:	c1 10       	breq	8000c0e2 <__gethex+0x2ae>
8000c0c2:	58 38       	cp.w	r8,3
8000c0c4:	c1 30       	breq	8000c0ea <__gethex+0x2b6>
8000c0c6:	58 18       	cp.w	r8,1
8000c0c8:	c1 e1       	brne	8000c104 <__gethex+0x2d0>
8000c0ca:	08 35       	cp.w	r5,r4
8000c0cc:	c1 c1       	brne	8000c104 <__gethex+0x2d0>
8000c0ce:	58 14       	cp.w	r4,1
8000c0d0:	e0 8a 00 10 	brle	8000c0f0 <__gethex+0x2bc>
8000c0d4:	e8 cb 00 01 	sub	r11,r4,1
8000c0d8:	0c 9c       	mov	r12,r6
8000c0da:	fe b0 ee 04 	rcall	80009ce2 <__any_on>
8000c0de:	c0 91       	brne	8000c0f0 <__gethex+0x2bc>
8000c0e0:	c1 28       	rjmp	8000c104 <__gethex+0x2d0>
8000c0e2:	40 18       	lddsp	r8,sp[0x4]
8000c0e4:	58 08       	cp.w	r8,0
8000c0e6:	c0 50       	breq	8000c0f0 <__gethex+0x2bc>
8000c0e8:	c0 e8       	rjmp	8000c104 <__gethex+0x2d0>
8000c0ea:	40 19       	lddsp	r9,sp[0x4]
8000c0ec:	58 09       	cp.w	r9,0
8000c0ee:	c0 b0       	breq	8000c104 <__gethex+0x2d0>
8000c0f0:	6e 18       	ld.w	r8,r7[0x4]
8000c0f2:	40 29       	lddsp	r9,sp[0x8]
8000c0f4:	93 08       	st.w	r9[0x0],r8
8000c0f6:	40 08       	lddsp	r8,sp[0x0]
8000c0f8:	36 23       	mov	r3,98
8000c0fa:	91 06       	st.w	r8[0x0],r6
8000c0fc:	30 18       	mov	r8,1
8000c0fe:	81 08       	st.w	r0[0x0],r8
8000c100:	8d 48       	st.w	r6[0x10],r8
8000c102:	ca 98       	rjmp	8000c254 <__gethex+0x420>
8000c104:	0c 9b       	mov	r11,r6
8000c106:	02 9c       	mov	r12,r1
8000c108:	35 03       	mov	r3,80
8000c10a:	fe b0 ee 13 	rcall	80009d30 <_Bfree>
8000c10e:	30 08       	mov	r8,0
8000c110:	40 09       	lddsp	r9,sp[0x0]
8000c112:	93 08       	st.w	r9[0x0],r8
8000c114:	ca 08       	rjmp	8000c254 <__gethex+0x420>
8000c116:	ea c3 00 01 	sub	r3,r5,1
8000c11a:	58 02       	cp.w	r2,0
8000c11c:	c0 30       	breq	8000c122 <__gethex+0x2ee>
8000c11e:	30 12       	mov	r2,1
8000c120:	c0 98       	rjmp	8000c132 <__gethex+0x2fe>
8000c122:	58 03       	cp.w	r3,0
8000c124:	e0 8a 00 07 	brle	8000c132 <__gethex+0x2fe>
8000c128:	06 9b       	mov	r11,r3
8000c12a:	0c 9c       	mov	r12,r6
8000c12c:	fe b0 ed db 	rcall	80009ce2 <__any_on>
8000c130:	18 92       	mov	r2,r12
8000c132:	e6 08 14 05 	asr	r8,r3,0x5
8000c136:	e0 08 03 28 	ld.w	r8,r0[r8<<0x2]
8000c13a:	30 19       	mov	r9,1
8000c13c:	f2 03 09 43 	lsl	r3,r9,r3
8000c140:	10 63       	and	r3,r8
8000c142:	04 98       	mov	r8,r2
8000c144:	a1 b8       	sbr	r8,0x1
8000c146:	0a 9b       	mov	r11,r5
8000c148:	58 03       	cp.w	r3,0
8000c14a:	f0 02 17 10 	movne	r2,r8
8000c14e:	0a 14       	sub	r4,r5
8000c150:	0c 9c       	mov	r12,r6
8000c152:	30 23       	mov	r3,2
8000c154:	c3 ae       	rcall	8000bdc8 <rshift>
8000c156:	6e 15       	ld.w	r5,r7[0x4]
8000c158:	58 02       	cp.w	r2,0
8000c15a:	c7 90       	breq	8000c24c <__gethex+0x418>
8000c15c:	6e 38       	ld.w	r8,r7[0xc]
8000c15e:	58 28       	cp.w	r8,2
8000c160:	c1 10       	breq	8000c182 <__gethex+0x34e>
8000c162:	58 38       	cp.w	r8,3
8000c164:	c0 40       	breq	8000c16c <__gethex+0x338>
8000c166:	58 18       	cp.w	r8,1
8000c168:	c7 11       	brne	8000c24a <__gethex+0x416>
8000c16a:	c0 38       	rjmp	8000c170 <__gethex+0x33c>
8000c16c:	40 18       	lddsp	r8,sp[0x4]
8000c16e:	c0 d8       	rjmp	8000c188 <__gethex+0x354>
8000c170:	ed b2 00 01 	bld	r2,0x1
8000c174:	c6 b1       	brne	8000c24a <__gethex+0x416>
8000c176:	60 08       	ld.w	r8,r0[0x0]
8000c178:	10 42       	or	r2,r8
8000c17a:	e5 d2 c0 01 	bfextu	r2,r2,0x0,0x1
8000c17e:	c0 71       	brne	8000c18c <__gethex+0x358>
8000c180:	c6 58       	rjmp	8000c24a <__gethex+0x416>
8000c182:	40 19       	lddsp	r9,sp[0x4]
8000c184:	f2 08 11 01 	rsub	r8,r9,1
8000c188:	58 08       	cp.w	r8,0
8000c18a:	c6 00       	breq	8000c24a <__gethex+0x416>
8000c18c:	6c 40       	ld.w	r0,r6[0x10]
8000c18e:	ec c8 ff ec 	sub	r8,r6,-20
8000c192:	e0 cb ff fb 	sub	r11,r0,-5
8000c196:	30 0a       	mov	r10,0
8000c198:	ec 0b 00 2b 	add	r11,r6,r11<<0x2
8000c19c:	70 09       	ld.w	r9,r8[0x0]
8000c19e:	5b f9       	cp.w	r9,-1
8000c1a0:	c0 40       	breq	8000c1a8 <__gethex+0x374>
8000c1a2:	2f f9       	sub	r9,-1
8000c1a4:	91 09       	st.w	r8[0x0],r9
8000c1a6:	c2 58       	rjmp	8000c1f0 <__gethex+0x3bc>
8000c1a8:	10 aa       	st.w	r8++,r10
8000c1aa:	16 38       	cp.w	r8,r11
8000c1ac:	cf 83       	brcs	8000c19c <__gethex+0x368>
8000c1ae:	6c 49       	ld.w	r9,r6[0x10]
8000c1b0:	6c 28       	ld.w	r8,r6[0x8]
8000c1b2:	10 39       	cp.w	r9,r8
8000c1b4:	c0 34       	brge	8000c1ba <__gethex+0x386>
8000c1b6:	0c 92       	mov	r2,r6
8000c1b8:	c1 38       	rjmp	8000c1de <__gethex+0x3aa>
8000c1ba:	6c 1b       	ld.w	r11,r6[0x4]
8000c1bc:	02 9c       	mov	r12,r1
8000c1be:	2f fb       	sub	r11,-1
8000c1c0:	fe b0 ed d2 	rcall	80009d64 <_Balloc>
8000c1c4:	6c 4a       	ld.w	r10,r6[0x10]
8000c1c6:	ec cb ff f4 	sub	r11,r6,-12
8000c1ca:	18 92       	mov	r2,r12
8000c1cc:	2f ea       	sub	r10,-2
8000c1ce:	2f 4c       	sub	r12,-12
8000c1d0:	a3 6a       	lsl	r10,0x2
8000c1d2:	fe b0 c1 17 	rcall	80004400 <memcpy>
8000c1d6:	0c 9b       	mov	r11,r6
8000c1d8:	02 9c       	mov	r12,r1
8000c1da:	fe b0 ed ab 	rcall	80009d30 <_Bfree>
8000c1de:	64 48       	ld.w	r8,r2[0x10]
8000c1e0:	f0 c9 ff ff 	sub	r9,r8,-1
8000c1e4:	04 96       	mov	r6,r2
8000c1e6:	85 49       	st.w	r2[0x10],r9
8000c1e8:	2f b8       	sub	r8,-5
8000c1ea:	30 19       	mov	r9,1
8000c1ec:	e4 08 09 29 	st.w	r2[r8<<0x2],r9
8000c1f0:	58 23       	cp.w	r3,2
8000c1f2:	c1 01       	brne	8000c212 <__gethex+0x3de>
8000c1f4:	6e 08       	ld.w	r8,r7[0x0]
8000c1f6:	20 18       	sub	r8,1
8000c1f8:	10 34       	cp.w	r4,r8
8000c1fa:	c2 61       	brne	8000c246 <__gethex+0x412>
8000c1fc:	e8 08 14 05 	asr	r8,r4,0x5
8000c200:	30 19       	mov	r9,1
8000c202:	2f b8       	sub	r8,-5
8000c204:	f2 04 09 44 	lsl	r4,r9,r4
8000c208:	ec 08 03 28 	ld.w	r8,r6[r8<<0x2]
8000c20c:	10 64       	and	r4,r8
8000c20e:	c1 b1       	brne	8000c244 <__gethex+0x410>
8000c210:	c1 b8       	rjmp	8000c246 <__gethex+0x412>
8000c212:	6c 48       	ld.w	r8,r6[0x10]
8000c214:	00 38       	cp.w	r8,r0
8000c216:	e0 89 00 0e 	brgt	8000c232 <__gethex+0x3fe>
8000c21a:	e9 d4 c0 05 	bfextu	r4,r4,0x0,0x5
8000c21e:	c1 30       	breq	8000c244 <__gethex+0x410>
8000c220:	2f c0       	sub	r0,-4
8000c222:	e8 04 11 20 	rsub	r4,r4,32
8000c226:	ec 00 03 2c 	ld.w	r12,r6[r0<<0x2]
8000c22a:	fe b0 ec 1d 	rcall	80009a64 <__hi0bits>
8000c22e:	08 3c       	cp.w	r12,r4
8000c230:	c0 a4       	brge	8000c244 <__gethex+0x410>
8000c232:	30 1b       	mov	r11,1
8000c234:	0c 9c       	mov	r12,r6
8000c236:	fe b0 fd c9 	rcall	8000bdc8 <rshift>
8000c23a:	2f f5       	sub	r5,-1
8000c23c:	6e 28       	ld.w	r8,r7[0x8]
8000c23e:	10 35       	cp.w	r5,r8
8000c240:	fe 99 ff 2e 	brgt	8000c09c <__gethex+0x268>
8000c244:	30 13       	mov	r3,1
8000c246:	a5 b3       	sbr	r3,0x5
8000c248:	c0 28       	rjmp	8000c24c <__gethex+0x418>
8000c24a:	a5 a3       	sbr	r3,0x4
8000c24c:	40 08       	lddsp	r8,sp[0x0]
8000c24e:	40 29       	lddsp	r9,sp[0x8]
8000c250:	91 06       	st.w	r8[0x0],r6
8000c252:	93 05       	st.w	r9[0x0],r5
8000c254:	06 9c       	mov	r12,r3
8000c256:	2f dd       	sub	sp,-12
8000c258:	d8 32       	popm	r0-r7,pc
8000c25a:	d7 03       	nop

8000c25c <__hexnan>:
8000c25c:	d4 31       	pushm	r0-r7,lr
8000c25e:	20 2d       	sub	sp,8
8000c260:	e0 68 0b 38 	mov	r8,2872
8000c264:	18 97       	mov	r7,r12
8000c266:	f1 39 00 30 	ld.ub	r9,r8[48]
8000c26a:	16 95       	mov	r5,r11
8000c26c:	14 96       	mov	r6,r10
8000c26e:	30 08       	mov	r8,0
8000c270:	f0 09 18 00 	cp.b	r9,r8
8000c274:	c0 31       	brne	8000c27a <__hexnan+0x1e>
8000c276:	fe b0 fd 7b 	rcall	8000bd6c <__hexdig_init>
8000c27a:	30 08       	mov	r8,0
8000c27c:	6a 09       	ld.w	r9,r5[0x0]
8000c27e:	10 9b       	mov	r11,r8
8000c280:	e9 d9 c0 05 	bfextu	r4,r9,0x0,0x5
8000c284:	6e 05       	ld.w	r5,r7[0x0]
8000c286:	a5 59       	asr	r9,0x5
8000c288:	16 9a       	mov	r10,r11
8000c28a:	ec 09 00 29 	add	r9,r6,r9<<0x2
8000c28e:	16 92       	mov	r2,r11
8000c290:	58 04       	cp.w	r4,0
8000c292:	f7 b9 01 fc 	subne	r9,-4
8000c296:	16 93       	mov	r3,r11
8000c298:	12 d8       	st.w	--r9,r8
8000c29a:	12 9e       	mov	lr,r9
8000c29c:	12 98       	mov	r8,r9
8000c29e:	c5 48       	rjmp	8000c346 <__hexnan+0xea>
8000c2a0:	e0 60 0b 38 	mov	r0,2872
8000c2a4:	e0 0c 07 01 	ld.ub	r1,r0[r12]
8000c2a8:	58 01       	cp.w	r1,0
8000c2aa:	c3 e1       	brne	8000c326 <__hexnan+0xca>
8000c2ac:	e0 4c 00 20 	cp.w	r12,32
8000c2b0:	e0 8b 00 2e 	brhi	8000c30c <__hexnan+0xb0>
8000c2b4:	14 3b       	cp.w	r11,r10
8000c2b6:	c4 84       	brge	8000c346 <__hexnan+0xea>
8000c2b8:	58 72       	cp.w	r2,7
8000c2ba:	5f a1       	srle	r1
8000c2bc:	1c 38       	cp.w	r8,lr
8000c2be:	5f 3c       	srlo	r12
8000c2c0:	e3 ec 00 0c 	and	r12,r1,r12
8000c2c4:	30 01       	mov	r1,0
8000c2c6:	e2 0c 18 00 	cp.b	r12,r1
8000c2ca:	c1 70       	breq	8000c2f8 <__hexnan+0x9c>
8000c2cc:	e4 02 11 08 	rsub	r2,r2,8
8000c2d0:	10 9c       	mov	r12,r8
8000c2d2:	a3 62       	lsl	r2,0x2
8000c2d4:	e4 00 11 20 	rsub	r0,r2,32
8000c2d8:	50 10       	stdsp	sp[0x4],r0
8000c2da:	19 01       	ld.w	r1,r12++
8000c2dc:	50 01       	stdsp	sp[0x0],r1
8000c2de:	78 01       	ld.w	r1,r12[0x0]
8000c2e0:	e2 02 0a 40 	lsr	r0,r1,r2
8000c2e4:	99 00       	st.w	r12[0x0],r0
8000c2e6:	40 10       	lddsp	r0,sp[0x4]
8000c2e8:	e2 00 09 41 	lsl	r1,r1,r0
8000c2ec:	40 00       	lddsp	r0,sp[0x0]
8000c2ee:	00 41       	or	r1,r0
8000c2f0:	f9 41 ff fc 	st.w	r12[-4],r1
8000c2f4:	1c 3c       	cp.w	r12,lr
8000c2f6:	cf 23       	brcs	8000c2da <__hexnan+0x7e>
8000c2f8:	0c 38       	cp.w	r8,r6
8000c2fa:	e0 8b 00 04 	brhi	8000c302 <__hexnan+0xa6>
8000c2fe:	30 82       	mov	r2,8
8000c300:	c2 38       	rjmp	8000c346 <__hexnan+0xea>
8000c302:	10 d3       	st.w	--r8,r3
8000c304:	14 9b       	mov	r11,r10
8000c306:	10 9e       	mov	lr,r8
8000c308:	06 92       	mov	r2,r3
8000c30a:	c1 e8       	rjmp	8000c346 <__hexnan+0xea>
8000c30c:	58 0a       	cp.w	r10,0
8000c30e:	5f 1b       	srne	r11
8000c310:	e0 4c 00 29 	cp.w	r12,41
8000c314:	5f 0a       	sreq	r10
8000c316:	f7 ea 00 0a 	and	r10,r11,r10
8000c31a:	e2 0a 18 00 	cp.b	r10,r1
8000c31e:	c5 90       	breq	8000c3d0 <__hexnan+0x174>
8000c320:	2f f5       	sub	r5,-1
8000c322:	8f 05       	st.w	r7[0x0],r5
8000c324:	c1 78       	rjmp	8000c352 <__hexnan+0xf6>
8000c326:	2f fa       	sub	r10,-1
8000c328:	2f f2       	sub	r2,-1
8000c32a:	58 82       	cp.w	r2,8
8000c32c:	e0 8a 00 07 	brle	8000c33a <__hexnan+0xde>
8000c330:	0c 38       	cp.w	r8,r6
8000c332:	e0 88 00 0a 	brls	8000c346 <__hexnan+0xea>
8000c336:	10 d3       	st.w	--r8,r3
8000c338:	30 12       	mov	r2,1
8000c33a:	70 0c       	ld.w	r12,r8[0x0]
8000c33c:	e3 d1 c0 04 	bfextu	r1,r1,0x0,0x4
8000c340:	e3 ec 10 41 	or	r1,r1,r12<<0x4
8000c344:	91 01       	st.w	r8[0x0],r1
8000c346:	2f f5       	sub	r5,-1
8000c348:	0b 8c       	ld.ub	r12,r5[0x0]
8000c34a:	58 0c       	cp.w	r12,0
8000c34c:	ca a1       	brne	8000c2a0 <__hexnan+0x44>
8000c34e:	58 0a       	cp.w	r10,0
8000c350:	c4 00       	breq	8000c3d0 <__hexnan+0x174>
8000c352:	58 72       	cp.w	r2,7
8000c354:	5f ab       	srle	r11
8000c356:	1c 38       	cp.w	r8,lr
8000c358:	5f 3a       	srlo	r10
8000c35a:	f7 ea 00 0a 	and	r10,r11,r10
8000c35e:	c1 30       	breq	8000c384 <__hexnan+0x128>
8000c360:	e4 02 11 08 	rsub	r2,r2,8
8000c364:	10 9a       	mov	r10,r8
8000c366:	a3 62       	lsl	r2,0x2
8000c368:	e4 0c 11 20 	rsub	r12,r2,32
8000c36c:	15 07       	ld.w	r7,r10++
8000c36e:	74 0b       	ld.w	r11,r10[0x0]
8000c370:	f6 02 0a 45 	lsr	r5,r11,r2
8000c374:	f6 0c 09 4b 	lsl	r11,r11,r12
8000c378:	95 05       	st.w	r10[0x0],r5
8000c37a:	0e 4b       	or	r11,r7
8000c37c:	f5 4b ff fc 	st.w	r10[-4],r11
8000c380:	1c 3a       	cp.w	r10,lr
8000c382:	cf 53       	brcs	8000c36c <__hexnan+0x110>
8000c384:	0c 38       	cp.w	r8,r6
8000c386:	e0 88 00 0f 	brls	8000c3a4 <__hexnan+0x148>
8000c38a:	0c 9a       	mov	r10,r6
8000c38c:	11 0b       	ld.w	r11,r8++
8000c38e:	14 ab       	st.w	r10++,r11
8000c390:	12 38       	cp.w	r8,r9
8000c392:	fe 98 ff fd 	brls	8000c38c <__hexnan+0x130>
8000c396:	30 08       	mov	r8,0
8000c398:	14 a8       	st.w	r10++,r8
8000c39a:	12 3a       	cp.w	r10,r9
8000c39c:	fe 98 ff fe 	brls	8000c398 <__hexnan+0x13c>
8000c3a0:	c0 d8       	rjmp	8000c3ba <__hexnan+0x15e>
8000c3a2:	d7 03       	nop
8000c3a4:	58 04       	cp.w	r4,0
8000c3a6:	c0 a0       	breq	8000c3ba <__hexnan+0x15e>
8000c3a8:	72 08       	ld.w	r8,r9[0x0]
8000c3aa:	e8 04 11 20 	rsub	r4,r4,32
8000c3ae:	3f fa       	mov	r10,-1
8000c3b0:	f4 04 0a 44 	lsr	r4,r10,r4
8000c3b4:	f1 e4 00 04 	and	r4,r8,r4
8000c3b8:	93 04       	st.w	r9[0x0],r4
8000c3ba:	72 08       	ld.w	r8,r9[0x0]
8000c3bc:	58 08       	cp.w	r8,0
8000c3be:	c0 51       	brne	8000c3c8 <__hexnan+0x16c>
8000c3c0:	0c 39       	cp.w	r9,r6
8000c3c2:	c0 51       	brne	8000c3cc <__hexnan+0x170>
8000c3c4:	30 18       	mov	r8,1
8000c3c6:	93 08       	st.w	r9[0x0],r8
8000c3c8:	30 5c       	mov	r12,5
8000c3ca:	c0 48       	rjmp	8000c3d2 <__hexnan+0x176>
8000c3cc:	20 49       	sub	r9,4
8000c3ce:	cf 6b       	rjmp	8000c3ba <__hexnan+0x15e>
8000c3d0:	30 4c       	mov	r12,4
8000c3d2:	2f ed       	sub	sp,-8
8000c3d4:	d8 32       	popm	r0-r7,pc
8000c3d6:	d7 03       	nop

8000c3d8 <_lseek_r>:
8000c3d8:	d4 21       	pushm	r4-r7,lr
8000c3da:	16 98       	mov	r8,r11
8000c3dc:	18 97       	mov	r7,r12
8000c3de:	10 9c       	mov	r12,r8
8000c3e0:	30 08       	mov	r8,0
8000c3e2:	14 9b       	mov	r11,r10
8000c3e4:	e0 66 0c 38 	mov	r6,3128
8000c3e8:	12 9a       	mov	r10,r9
8000c3ea:	8d 08       	st.w	r6[0x0],r8
8000c3ec:	fe b0 fa f4 	rcall	8000b9d4 <_lseek>
8000c3f0:	5b fc       	cp.w	r12,-1
8000c3f2:	c0 51       	brne	8000c3fc <_lseek_r+0x24>
8000c3f4:	6c 08       	ld.w	r8,r6[0x0]
8000c3f6:	58 08       	cp.w	r8,0
8000c3f8:	ef f8 1a 03 	st.wne	r7[0xc],r8
8000c3fc:	d8 22       	popm	r4-r7,pc
8000c3fe:	d7 03       	nop

8000c400 <_read_r>:
8000c400:	d4 21       	pushm	r4-r7,lr
8000c402:	16 98       	mov	r8,r11
8000c404:	18 97       	mov	r7,r12
8000c406:	10 9c       	mov	r12,r8
8000c408:	30 08       	mov	r8,0
8000c40a:	14 9b       	mov	r11,r10
8000c40c:	e0 66 0c 38 	mov	r6,3128
8000c410:	12 9a       	mov	r10,r9
8000c412:	8d 08       	st.w	r6[0x0],r8
8000c414:	fe b0 be cc 	rcall	800041ac <_read>
8000c418:	5b fc       	cp.w	r12,-1
8000c41a:	c0 51       	brne	8000c424 <_read_r+0x24>
8000c41c:	6c 08       	ld.w	r8,r6[0x0]
8000c41e:	58 08       	cp.w	r8,0
8000c420:	ef f8 1a 03 	st.wne	r7[0xc],r8
8000c424:	d8 22       	popm	r4-r7,pc
8000c426:	d7 03       	nop

8000c428 <__avr32_f64_mul>:
8000c428:	f5 eb 10 1c 	or	r12,r10,r11<<0x1
8000c42c:	e0 80 00 dc 	breq	8000c5e4 <__avr32_f64_mul_op1_zero>
8000c430:	d4 21       	pushm	r4-r7,lr
8000c432:	f7 e9 20 0e 	eor	lr,r11,r9
8000c436:	ef db c2 8b 	bfextu	r7,r11,0x14,0xb
8000c43a:	30 15       	mov	r5,1
8000c43c:	c4 30       	breq	8000c4c2 <__avr32_f64_mul_op1_subnormal>
8000c43e:	ab 6b       	lsl	r11,0xa
8000c440:	f7 ea 13 6b 	or	r11,r11,r10>>0x16
8000c444:	ab 6a       	lsl	r10,0xa
8000c446:	f7 d5 d3 c2 	bfins	r11,r5,0x1e,0x2
8000c44a:	ed d9 c2 8b 	bfextu	r6,r9,0x14,0xb
8000c44e:	c5 c0       	breq	8000c506 <__avr32_f64_mul_op2_subnormal>
8000c450:	a1 78       	lsl	r8,0x1
8000c452:	5c f9       	rol	r9
8000c454:	f3 d5 d2 ab 	bfins	r9,r5,0x15,0xb
8000c458:	e0 47 07 ff 	cp.w	r7,2047
8000c45c:	c7 70       	breq	8000c54a <__avr32_f64_mul_op_nan_or_inf>
8000c45e:	e0 46 07 ff 	cp.w	r6,2047
8000c462:	c7 40       	breq	8000c54a <__avr32_f64_mul_op_nan_or_inf>
8000c464:	ee 06 00 0c 	add	r12,r7,r6
8000c468:	e0 2c 03 fe 	sub	r12,1022
8000c46c:	f6 08 06 44 	mulu.d	r4,r11,r8
8000c470:	f4 09 07 44 	macu.d	r4,r10,r9
8000c474:	f4 08 06 46 	mulu.d	r6,r10,r8
8000c478:	f6 09 06 4a 	mulu.d	r10,r11,r9
8000c47c:	08 07       	add	r7,r4
8000c47e:	f4 05 00 4a 	adc	r10,r10,r5
8000c482:	5c 0b       	acr	r11
8000c484:	ed bb 00 14 	bld	r11,0x14
8000c488:	c0 50       	breq	8000c492 <__avr32_f64_mul+0x6a>
8000c48a:	a1 77       	lsl	r7,0x1
8000c48c:	5c fa       	rol	r10
8000c48e:	5c fb       	rol	r11
8000c490:	20 1c       	sub	r12,1
8000c492:	58 0c       	cp.w	r12,0
8000c494:	e0 8a 00 6f 	brle	8000c572 <__avr32_f64_mul_res_subnormal>
8000c498:	e0 4c 07 ff 	cp.w	r12,2047
8000c49c:	e0 84 00 9c 	brge	8000c5d4 <__avr32_f64_mul_res_inf>
8000c4a0:	f7 dc d2 8b 	bfins	r11,r12,0x14,0xb
8000c4a4:	ed ea 11 f6 	or	r6,r6,r10<<0x1f
8000c4a8:	ef e6 12 17 	or	r7,r7,r6>>0x1
8000c4ac:	ee 17 80 00 	eorh	r7,0x8000
8000c4b0:	f1 b7 04 20 	satu	r7,0x1
8000c4b4:	0e 0a       	add	r10,r7
8000c4b6:	5c 0b       	acr	r11
8000c4b8:	ed be 00 1f 	bld	lr,0x1f
8000c4bc:	ef bb 00 1f 	bst	r11,0x1f
8000c4c0:	d8 22       	popm	r4-r7,pc

8000c4c2 <__avr32_f64_mul_op1_subnormal>:
8000c4c2:	e4 1b 00 0f 	andh	r11,0xf
8000c4c6:	f4 0c 12 00 	clz	r12,r10
8000c4ca:	f6 06 12 00 	clz	r6,r11
8000c4ce:	f7 bc 03 e1 	sublo	r12,-31
8000c4d2:	f8 06 17 30 	movlo	r6,r12
8000c4d6:	f7 b6 02 01 	subhs	r6,1
8000c4da:	e0 46 00 20 	cp.w	r6,32
8000c4de:	c0 d4       	brge	8000c4f8 <__avr32_f64_mul_op1_subnormal+0x36>
8000c4e0:	ec 0c 11 20 	rsub	r12,r6,32
8000c4e4:	f6 06 09 4b 	lsl	r11,r11,r6
8000c4e8:	f4 0c 0a 4c 	lsr	r12,r10,r12
8000c4ec:	18 4b       	or	r11,r12
8000c4ee:	f4 06 09 4a 	lsl	r10,r10,r6
8000c4f2:	20 b6       	sub	r6,11
8000c4f4:	0c 17       	sub	r7,r6
8000c4f6:	ca ab       	rjmp	8000c44a <__avr32_f64_mul+0x22>
8000c4f8:	f4 06 09 4b 	lsl	r11,r10,r6
8000c4fc:	c6 40       	breq	8000c5c4 <__avr32_f64_mul_res_zero>
8000c4fe:	30 0a       	mov	r10,0
8000c500:	20 b6       	sub	r6,11
8000c502:	0c 17       	sub	r7,r6
8000c504:	ca 3b       	rjmp	8000c44a <__avr32_f64_mul+0x22>

8000c506 <__avr32_f64_mul_op2_subnormal>:
8000c506:	e4 19 00 0f 	andh	r9,0xf
8000c50a:	f0 0c 12 00 	clz	r12,r8
8000c50e:	f2 05 12 00 	clz	r5,r9
8000c512:	f7 bc 03 ea 	sublo	r12,-22
8000c516:	f8 05 17 30 	movlo	r5,r12
8000c51a:	f7 b5 02 0a 	subhs	r5,10
8000c51e:	e0 45 00 20 	cp.w	r5,32
8000c522:	c0 d4       	brge	8000c53c <__avr32_f64_mul_op2_subnormal+0x36>
8000c524:	ea 0c 11 20 	rsub	r12,r5,32
8000c528:	f2 05 09 49 	lsl	r9,r9,r5
8000c52c:	f0 0c 0a 4c 	lsr	r12,r8,r12
8000c530:	18 49       	or	r9,r12
8000c532:	f0 05 09 48 	lsl	r8,r8,r5
8000c536:	20 25       	sub	r5,2
8000c538:	0a 16       	sub	r6,r5
8000c53a:	c8 fb       	rjmp	8000c458 <__avr32_f64_mul+0x30>
8000c53c:	f0 05 09 49 	lsl	r9,r8,r5
8000c540:	c4 20       	breq	8000c5c4 <__avr32_f64_mul_res_zero>
8000c542:	30 08       	mov	r8,0
8000c544:	20 25       	sub	r5,2
8000c546:	0a 16       	sub	r6,r5
8000c548:	c8 8b       	rjmp	8000c458 <__avr32_f64_mul+0x30>

8000c54a <__avr32_f64_mul_op_nan_or_inf>:
8000c54a:	e4 19 00 0f 	andh	r9,0xf
8000c54e:	e4 1b 00 0f 	andh	r11,0xf
8000c552:	14 4b       	or	r11,r10
8000c554:	10 49       	or	r9,r8
8000c556:	e0 47 07 ff 	cp.w	r7,2047
8000c55a:	c0 91       	brne	8000c56c <__avr32_f64_mul_op1_not_naninf>
8000c55c:	58 0b       	cp.w	r11,0
8000c55e:	c3 81       	brne	8000c5ce <__avr32_f64_mul_res_nan>
8000c560:	e0 46 07 ff 	cp.w	r6,2047
8000c564:	c3 81       	brne	8000c5d4 <__avr32_f64_mul_res_inf>
8000c566:	58 09       	cp.w	r9,0
8000c568:	c3 60       	breq	8000c5d4 <__avr32_f64_mul_res_inf>
8000c56a:	c3 28       	rjmp	8000c5ce <__avr32_f64_mul_res_nan>

8000c56c <__avr32_f64_mul_op1_not_naninf>:
8000c56c:	58 09       	cp.w	r9,0
8000c56e:	c3 30       	breq	8000c5d4 <__avr32_f64_mul_res_inf>
8000c570:	c2 f8       	rjmp	8000c5ce <__avr32_f64_mul_res_nan>

8000c572 <__avr32_f64_mul_res_subnormal>:
8000c572:	5c 3c       	neg	r12
8000c574:	2f fc       	sub	r12,-1
8000c576:	f1 bc 04 c0 	satu	r12,0x6
8000c57a:	e0 4c 00 20 	cp.w	r12,32
8000c57e:	c1 14       	brge	8000c5a0 <__avr32_f64_mul_res_subnormal+0x2e>
8000c580:	f8 08 11 20 	rsub	r8,r12,32
8000c584:	0e 46       	or	r6,r7
8000c586:	ee 0c 0a 47 	lsr	r7,r7,r12
8000c58a:	f4 08 09 49 	lsl	r9,r10,r8
8000c58e:	12 47       	or	r7,r9
8000c590:	f4 0c 0a 4a 	lsr	r10,r10,r12
8000c594:	f6 08 09 49 	lsl	r9,r11,r8
8000c598:	12 4a       	or	r10,r9
8000c59a:	f6 0c 0a 4b 	lsr	r11,r11,r12
8000c59e:	c8 3b       	rjmp	8000c4a4 <__avr32_f64_mul+0x7c>
8000c5a0:	f8 08 11 20 	rsub	r8,r12,32
8000c5a4:	f9 b9 00 00 	moveq	r9,0
8000c5a8:	c0 30       	breq	8000c5ae <__avr32_f64_mul_res_subnormal+0x3c>
8000c5aa:	f6 08 09 49 	lsl	r9,r11,r8
8000c5ae:	0e 46       	or	r6,r7
8000c5b0:	ed ea 10 16 	or	r6,r6,r10<<0x1
8000c5b4:	f4 0c 0a 4a 	lsr	r10,r10,r12
8000c5b8:	f3 ea 10 07 	or	r7,r9,r10
8000c5bc:	f6 0c 0a 4a 	lsr	r10,r11,r12
8000c5c0:	30 0b       	mov	r11,0
8000c5c2:	c7 1b       	rjmp	8000c4a4 <__avr32_f64_mul+0x7c>

8000c5c4 <__avr32_f64_mul_res_zero>:
8000c5c4:	1c 9b       	mov	r11,lr
8000c5c6:	e6 1b 80 00 	andh	r11,0x8000,COH
8000c5ca:	30 0a       	mov	r10,0
8000c5cc:	d8 22       	popm	r4-r7,pc

8000c5ce <__avr32_f64_mul_res_nan>:
8000c5ce:	3f fb       	mov	r11,-1
8000c5d0:	3f fa       	mov	r10,-1
8000c5d2:	d8 22       	popm	r4-r7,pc

8000c5d4 <__avr32_f64_mul_res_inf>:
8000c5d4:	f0 6b 00 00 	mov	r11,-1048576
8000c5d8:	ed be 00 1f 	bld	lr,0x1f
8000c5dc:	ef bb 00 1f 	bst	r11,0x1f
8000c5e0:	30 0a       	mov	r10,0
8000c5e2:	d8 22       	popm	r4-r7,pc

8000c5e4 <__avr32_f64_mul_op1_zero>:
8000c5e4:	f7 e9 20 0b 	eor	r11,r11,r9
8000c5e8:	e6 1b 80 00 	andh	r11,0x8000,COH
8000c5ec:	f9 d9 c2 8b 	bfextu	r12,r9,0x14,0xb
8000c5f0:	e0 4c 07 ff 	cp.w	r12,2047
8000c5f4:	5e 1c       	retne	r12
8000c5f6:	3f fa       	mov	r10,-1
8000c5f8:	3f fb       	mov	r11,-1
8000c5fa:	5e fc       	retal	r12

8000c5fc <__avr32_f64_sub_from_add>:
8000c5fc:	ee 19 80 00 	eorh	r9,0x8000

8000c600 <__avr32_f64_sub>:
8000c600:	f7 e9 20 0c 	eor	r12,r11,r9
8000c604:	e0 86 00 ca 	brmi	8000c798 <__avr32_f64_add_from_sub>
8000c608:	eb cd 40 e0 	pushm	r5-r7,lr
8000c60c:	16 9c       	mov	r12,r11
8000c60e:	e6 1c 80 00 	andh	r12,0x8000,COH
8000c612:	bf db       	cbr	r11,0x1f
8000c614:	bf d9       	cbr	r9,0x1f
8000c616:	10 3a       	cp.w	r10,r8
8000c618:	f2 0b 13 00 	cpc	r11,r9
8000c61c:	c0 92       	brcc	8000c62e <__avr32_f64_sub+0x2e>
8000c61e:	16 97       	mov	r7,r11
8000c620:	12 9b       	mov	r11,r9
8000c622:	0e 99       	mov	r9,r7
8000c624:	14 97       	mov	r7,r10
8000c626:	10 9a       	mov	r10,r8
8000c628:	0e 98       	mov	r8,r7
8000c62a:	ee 1c 80 00 	eorh	r12,0x8000
8000c62e:	f6 07 16 14 	lsr	r7,r11,0x14
8000c632:	ab 7b       	lsl	r11,0xb
8000c634:	f7 ea 13 5b 	or	r11,r11,r10>>0x15
8000c638:	ab 7a       	lsl	r10,0xb
8000c63a:	bf bb       	sbr	r11,0x1f
8000c63c:	f2 06 16 14 	lsr	r6,r9,0x14
8000c640:	c4 40       	breq	8000c6c8 <__avr32_f64_sub_opL_subnormal>
8000c642:	ab 79       	lsl	r9,0xb
8000c644:	f3 e8 13 59 	or	r9,r9,r8>>0x15
8000c648:	ab 78       	lsl	r8,0xb
8000c64a:	bf b9       	sbr	r9,0x1f

8000c64c <__avr32_f64_sub_opL_subnormal_done>:
8000c64c:	e0 47 07 ff 	cp.w	r7,2047
8000c650:	c4 f0       	breq	8000c6ee <__avr32_f64_sub_opH_nan_or_inf>
8000c652:	0e 26       	rsub	r6,r7
8000c654:	c1 20       	breq	8000c678 <__avr32_f64_sub_shift_done>
8000c656:	ec 05 11 20 	rsub	r5,r6,32
8000c65a:	e0 46 00 20 	cp.w	r6,32
8000c65e:	c7 c2       	brcc	8000c756 <__avr32_f64_sub_longshift>
8000c660:	f0 05 09 4e 	lsl	lr,r8,r5
8000c664:	f2 05 09 45 	lsl	r5,r9,r5
8000c668:	f0 06 0a 48 	lsr	r8,r8,r6
8000c66c:	f2 06 0a 49 	lsr	r9,r9,r6
8000c670:	0a 48       	or	r8,r5
8000c672:	58 0e       	cp.w	lr,0
8000c674:	5f 1e       	srne	lr
8000c676:	1c 48       	or	r8,lr

8000c678 <__avr32_f64_sub_shift_done>:
8000c678:	10 1a       	sub	r10,r8
8000c67a:	f6 09 01 4b 	sbc	r11,r11,r9
8000c67e:	f6 06 12 00 	clz	r6,r11
8000c682:	c0 e0       	breq	8000c69e <__avr32_f64_sub_longnormalize_done>
8000c684:	c7 83       	brcs	8000c774 <__avr32_f64_sub_longnormalize>
8000c686:	ec 0e 11 20 	rsub	lr,r6,32
8000c68a:	f6 06 09 4b 	lsl	r11,r11,r6
8000c68e:	f4 0e 0a 4e 	lsr	lr,r10,lr
8000c692:	1c 4b       	or	r11,lr
8000c694:	f4 06 09 4a 	lsl	r10,r10,r6
8000c698:	0c 17       	sub	r7,r6
8000c69a:	e0 8a 00 39 	brle	8000c70c <__avr32_f64_sub_subnormal_result>

8000c69e <__avr32_f64_sub_longnormalize_done>:
8000c69e:	f4 09 15 15 	lsl	r9,r10,0x15
8000c6a2:	ab 9a       	lsr	r10,0xb
8000c6a4:	f5 eb 11 5a 	or	r10,r10,r11<<0x15
8000c6a8:	ab 9b       	lsr	r11,0xb
8000c6aa:	f7 d7 d2 8b 	bfins	r11,r7,0x14,0xb
8000c6ae:	18 4b       	or	r11,r12

8000c6b0 <__avr32_f64_sub_round>:
8000c6b0:	fc 17 80 00 	movh	r7,0x8000
8000c6b4:	ed ba 00 00 	bld	r10,0x0
8000c6b8:	f7 b7 01 ff 	subne	r7,-1
8000c6bc:	0e 39       	cp.w	r9,r7
8000c6be:	5f 29       	srhs	r9
8000c6c0:	12 0a       	add	r10,r9
8000c6c2:	5c 0b       	acr	r11
8000c6c4:	e3 cd 80 e0 	ldm	sp++,r5-r7,pc

8000c6c8 <__avr32_f64_sub_opL_subnormal>:
8000c6c8:	ab 79       	lsl	r9,0xb
8000c6ca:	f3 e8 13 59 	or	r9,r9,r8>>0x15
8000c6ce:	ab 78       	lsl	r8,0xb
8000c6d0:	f3 e8 10 0e 	or	lr,r9,r8
8000c6d4:	f9 b6 01 01 	movne	r6,1
8000c6d8:	ee 0e 11 00 	rsub	lr,r7,0
8000c6dc:	f9 b7 00 01 	moveq	r7,1
8000c6e0:	ef bb 00 1f 	bst	r11,0x1f
8000c6e4:	f7 ea 10 0e 	or	lr,r11,r10
8000c6e8:	f9 b7 00 00 	moveq	r7,0
8000c6ec:	cb 0b       	rjmp	8000c64c <__avr32_f64_sub_opL_subnormal_done>

8000c6ee <__avr32_f64_sub_opH_nan_or_inf>:
8000c6ee:	bf db       	cbr	r11,0x1f
8000c6f0:	f7 ea 10 0e 	or	lr,r11,r10
8000c6f4:	c0 81       	brne	8000c704 <__avr32_f64_sub_return_nan>
8000c6f6:	e0 46 07 ff 	cp.w	r6,2047
8000c6fa:	c0 50       	breq	8000c704 <__avr32_f64_sub_return_nan>
8000c6fc:	f9 e7 11 4b 	or	r11,r12,r7<<0x14
8000c700:	e3 cd 80 e0 	ldm	sp++,r5-r7,pc

8000c704 <__avr32_f64_sub_return_nan>:
8000c704:	3f fa       	mov	r10,-1
8000c706:	3f fb       	mov	r11,-1
8000c708:	e3 cd 80 e0 	ldm	sp++,r5-r7,pc

8000c70c <__avr32_f64_sub_subnormal_result>:
8000c70c:	5c 37       	neg	r7
8000c70e:	2f f7       	sub	r7,-1
8000c710:	f1 b7 04 c0 	satu	r7,0x6
8000c714:	e0 47 00 20 	cp.w	r7,32
8000c718:	c1 14       	brge	8000c73a <__avr32_f64_sub_subnormal_result+0x2e>
8000c71a:	ee 08 11 20 	rsub	r8,r7,32
8000c71e:	f4 08 09 49 	lsl	r9,r10,r8
8000c722:	5f 16       	srne	r6
8000c724:	f4 07 0a 4a 	lsr	r10,r10,r7
8000c728:	0c 4a       	or	r10,r6
8000c72a:	f6 08 09 49 	lsl	r9,r11,r8
8000c72e:	f5 e9 10 0a 	or	r10,r10,r9
8000c732:	f4 07 0a 4b 	lsr	r11,r10,r7
8000c736:	30 07       	mov	r7,0
8000c738:	cb 3b       	rjmp	8000c69e <__avr32_f64_sub_longnormalize_done>
8000c73a:	ee 08 11 40 	rsub	r8,r7,64
8000c73e:	f6 08 09 49 	lsl	r9,r11,r8
8000c742:	14 49       	or	r9,r10
8000c744:	5f 16       	srne	r6
8000c746:	f6 07 0a 4a 	lsr	r10,r11,r7
8000c74a:	0c 4a       	or	r10,r6
8000c74c:	30 0b       	mov	r11,0
8000c74e:	30 07       	mov	r7,0
8000c750:	ca 7b       	rjmp	8000c69e <__avr32_f64_sub_longnormalize_done>
8000c752:	e3 cd 80 e0 	ldm	sp++,r5-r7,pc

8000c756 <__avr32_f64_sub_longshift>:
8000c756:	f1 b6 04 c0 	satu	r6,0x6
8000c75a:	f0 0e 17 00 	moveq	lr,r8
8000c75e:	c0 40       	breq	8000c766 <__avr32_f64_sub_longshift+0x10>
8000c760:	f2 05 09 4e 	lsl	lr,r9,r5
8000c764:	10 4e       	or	lr,r8
8000c766:	f2 06 0a 48 	lsr	r8,r9,r6
8000c76a:	30 09       	mov	r9,0
8000c76c:	58 0e       	cp.w	lr,0
8000c76e:	5f 1e       	srne	lr
8000c770:	1c 48       	or	r8,lr
8000c772:	c8 3b       	rjmp	8000c678 <__avr32_f64_sub_shift_done>

8000c774 <__avr32_f64_sub_longnormalize>:
8000c774:	f4 06 12 00 	clz	r6,r10
8000c778:	f9 b7 03 00 	movlo	r7,0
8000c77c:	f9 b6 03 00 	movlo	r6,0
8000c780:	f9 bc 03 00 	movlo	r12,0
8000c784:	f7 b6 02 e0 	subhs	r6,-32
8000c788:	f4 06 09 4b 	lsl	r11,r10,r6
8000c78c:	30 0a       	mov	r10,0
8000c78e:	0c 17       	sub	r7,r6
8000c790:	fe 9a ff be 	brle	8000c70c <__avr32_f64_sub_subnormal_result>
8000c794:	c8 5b       	rjmp	8000c69e <__avr32_f64_sub_longnormalize_done>
8000c796:	d7 03       	nop

8000c798 <__avr32_f64_add_from_sub>:
8000c798:	ee 19 80 00 	eorh	r9,0x8000

8000c79c <__avr32_f64_add>:
8000c79c:	f7 e9 20 0c 	eor	r12,r11,r9
8000c7a0:	fe 96 ff 2e 	brmi	8000c5fc <__avr32_f64_sub_from_add>
8000c7a4:	eb cd 40 e0 	pushm	r5-r7,lr
8000c7a8:	16 9c       	mov	r12,r11
8000c7aa:	e6 1c 80 00 	andh	r12,0x8000,COH
8000c7ae:	bf db       	cbr	r11,0x1f
8000c7b0:	bf d9       	cbr	r9,0x1f
8000c7b2:	12 3b       	cp.w	r11,r9
8000c7b4:	c0 72       	brcc	8000c7c2 <__avr32_f64_add+0x26>
8000c7b6:	16 97       	mov	r7,r11
8000c7b8:	12 9b       	mov	r11,r9
8000c7ba:	0e 99       	mov	r9,r7
8000c7bc:	14 97       	mov	r7,r10
8000c7be:	10 9a       	mov	r10,r8
8000c7c0:	0e 98       	mov	r8,r7
8000c7c2:	30 0e       	mov	lr,0
8000c7c4:	ef db c2 8b 	bfextu	r7,r11,0x14,0xb
8000c7c8:	f7 db c0 14 	bfextu	r11,r11,0x0,0x14
8000c7cc:	b5 ab       	sbr	r11,0x14
8000c7ce:	ed d9 c2 8b 	bfextu	r6,r9,0x14,0xb
8000c7d2:	c6 20       	breq	8000c896 <__avr32_f64_add_op2_subnormal>
8000c7d4:	f3 d9 c0 14 	bfextu	r9,r9,0x0,0x14
8000c7d8:	b5 a9       	sbr	r9,0x14
8000c7da:	e0 47 07 ff 	cp.w	r7,2047
8000c7de:	c2 80       	breq	8000c82e <__avr32_f64_add_opH_nan_or_inf>
8000c7e0:	0e 26       	rsub	r6,r7
8000c7e2:	c1 20       	breq	8000c806 <__avr32_f64_add_shift_done>
8000c7e4:	e0 46 00 36 	cp.w	r6,54
8000c7e8:	c1 52       	brcc	8000c812 <__avr32_f64_add_res_of_done>
8000c7ea:	ec 05 11 20 	rsub	r5,r6,32
8000c7ee:	e0 46 00 20 	cp.w	r6,32
8000c7f2:	c3 52       	brcc	8000c85c <__avr32_f64_add_longshift>
8000c7f4:	f0 05 09 4e 	lsl	lr,r8,r5
8000c7f8:	f2 05 09 45 	lsl	r5,r9,r5
8000c7fc:	f0 06 0a 48 	lsr	r8,r8,r6
8000c800:	f2 06 0a 49 	lsr	r9,r9,r6
8000c804:	0a 48       	or	r8,r5

8000c806 <__avr32_f64_add_shift_done>:
8000c806:	10 0a       	add	r10,r8
8000c808:	f6 09 00 4b 	adc	r11,r11,r9
8000c80c:	ed bb 00 15 	bld	r11,0x15
8000c810:	c3 40       	breq	8000c878 <__avr32_f64_add_res_of>

8000c812 <__avr32_f64_add_res_of_done>:
8000c812:	f7 d7 d2 8b 	bfins	r11,r7,0x14,0xb
8000c816:	18 4b       	or	r11,r12

8000c818 <__avr32_f64_add_round>:
8000c818:	f9 da c0 01 	bfextu	r12,r10,0x0,0x1
8000c81c:	18 4e       	or	lr,r12
8000c81e:	ee 1e 80 00 	eorh	lr,0x8000
8000c822:	f1 be 04 20 	satu	lr,0x1
8000c826:	1c 0a       	add	r10,lr
8000c828:	5c 0b       	acr	r11
8000c82a:	e3 cd 80 e0 	ldm	sp++,r5-r7,pc

8000c82e <__avr32_f64_add_opH_nan_or_inf>:
8000c82e:	b5 cb       	cbr	r11,0x14
8000c830:	f7 ea 10 0e 	or	lr,r11,r10
8000c834:	c1 01       	brne	8000c854 <__avr32_f64_add_return_nan>
8000c836:	e0 46 07 ff 	cp.w	r6,2047
8000c83a:	c0 30       	breq	8000c840 <__avr32_f64_add_opL_nan_or_inf>
8000c83c:	e3 cd 80 e0 	ldm	sp++,r5-r7,pc

8000c840 <__avr32_f64_add_opL_nan_or_inf>:
8000c840:	b5 c9       	cbr	r9,0x14
8000c842:	f3 e8 10 0e 	or	lr,r9,r8
8000c846:	c0 71       	brne	8000c854 <__avr32_f64_add_return_nan>
8000c848:	30 0a       	mov	r10,0
8000c84a:	fc 1b 7f f0 	movh	r11,0x7ff0
8000c84e:	18 4b       	or	r11,r12
8000c850:	e3 cd 80 e0 	ldm	sp++,r5-r7,pc

8000c854 <__avr32_f64_add_return_nan>:
8000c854:	3f fa       	mov	r10,-1
8000c856:	3f fb       	mov	r11,-1
8000c858:	e3 cd 80 e0 	ldm	sp++,r5-r7,pc

8000c85c <__avr32_f64_add_longshift>:
8000c85c:	f1 b6 04 c0 	satu	r6,0x6
8000c860:	f0 0e 17 00 	moveq	lr,r8
8000c864:	c0 60       	breq	8000c870 <__avr32_f64_add_longshift+0x14>
8000c866:	f2 05 09 4e 	lsl	lr,r9,r5
8000c86a:	58 08       	cp.w	r8,0
8000c86c:	5f 18       	srne	r8
8000c86e:	10 4e       	or	lr,r8
8000c870:	f2 06 0a 48 	lsr	r8,r9,r6
8000c874:	30 09       	mov	r9,0
8000c876:	cc 8b       	rjmp	8000c806 <__avr32_f64_add_shift_done>

8000c878 <__avr32_f64_add_res_of>:
8000c878:	fd ee 10 1e 	or	lr,lr,lr<<0x1
8000c87c:	a1 9b       	lsr	r11,0x1
8000c87e:	5d 0a       	ror	r10
8000c880:	5d 0e       	ror	lr
8000c882:	2f f7       	sub	r7,-1
8000c884:	e0 47 07 ff 	cp.w	r7,2047
8000c888:	f9 ba 00 00 	moveq	r10,0
8000c88c:	f9 bb 00 00 	moveq	r11,0
8000c890:	f9 be 00 00 	moveq	lr,0
8000c894:	cb fb       	rjmp	8000c812 <__avr32_f64_add_res_of_done>

8000c896 <__avr32_f64_add_op2_subnormal>:
8000c896:	30 16       	mov	r6,1
8000c898:	58 07       	cp.w	r7,0
8000c89a:	ca 01       	brne	8000c7da <__avr32_f64_add+0x3e>
8000c89c:	b5 cb       	cbr	r11,0x14
8000c89e:	10 0a       	add	r10,r8
8000c8a0:	f6 09 00 4b 	adc	r11,r11,r9
8000c8a4:	18 4b       	or	r11,r12
8000c8a6:	e3 cd 80 e0 	ldm	sp++,r5-r7,pc
8000c8aa:	d7 03       	nop

8000c8ac <__avr32_f64_to_u32>:
8000c8ac:	58 0b       	cp.w	r11,0
8000c8ae:	5e 6d       	retmi	0

8000c8b0 <__avr32_f64_to_s32>:
8000c8b0:	f6 0c 15 01 	lsl	r12,r11,0x1
8000c8b4:	b5 9c       	lsr	r12,0x15
8000c8b6:	e0 2c 03 ff 	sub	r12,1023
8000c8ba:	5e 3d       	retlo	0
8000c8bc:	f8 0c 11 1f 	rsub	r12,r12,31
8000c8c0:	16 99       	mov	r9,r11
8000c8c2:	ab 7b       	lsl	r11,0xb
8000c8c4:	bf bb       	sbr	r11,0x1f
8000c8c6:	f7 ea 13 5b 	or	r11,r11,r10>>0x15
8000c8ca:	f6 0c 0a 4b 	lsr	r11,r11,r12
8000c8ce:	a1 79       	lsl	r9,0x1
8000c8d0:	5e 2b       	reths	r11
8000c8d2:	5c 3b       	neg	r11
8000c8d4:	5e fb       	retal	r11

8000c8d6 <__avr32_u32_to_f64>:
8000c8d6:	f8 cb 00 00 	sub	r11,r12,0
8000c8da:	30 0c       	mov	r12,0
8000c8dc:	c0 38       	rjmp	8000c8e2 <__avr32_s32_to_f64+0x4>

8000c8de <__avr32_s32_to_f64>:
8000c8de:	18 9b       	mov	r11,r12
8000c8e0:	5c 4b       	abs	r11
8000c8e2:	30 0a       	mov	r10,0
8000c8e4:	5e 0b       	reteq	r11
8000c8e6:	d4 01       	pushm	lr
8000c8e8:	e0 69 04 1e 	mov	r9,1054
8000c8ec:	f6 08 12 00 	clz	r8,r11
8000c8f0:	c1 70       	breq	8000c91e <__avr32_s32_to_f64+0x40>
8000c8f2:	c0 c3       	brcs	8000c90a <__avr32_s32_to_f64+0x2c>
8000c8f4:	f0 0e 11 20 	rsub	lr,r8,32
8000c8f8:	f6 08 09 4b 	lsl	r11,r11,r8
8000c8fc:	f4 0e 0a 4e 	lsr	lr,r10,lr
8000c900:	1c 4b       	or	r11,lr
8000c902:	f4 08 09 4a 	lsl	r10,r10,r8
8000c906:	10 19       	sub	r9,r8
8000c908:	c0 b8       	rjmp	8000c91e <__avr32_s32_to_f64+0x40>
8000c90a:	f4 08 12 00 	clz	r8,r10
8000c90e:	f9 b8 03 00 	movlo	r8,0
8000c912:	f7 b8 02 e0 	subhs	r8,-32
8000c916:	f4 08 09 4b 	lsl	r11,r10,r8
8000c91a:	30 0a       	mov	r10,0
8000c91c:	10 19       	sub	r9,r8
8000c91e:	58 09       	cp.w	r9,0
8000c920:	e0 89 00 30 	brgt	8000c980 <__avr32_s32_to_f64+0xa2>
8000c924:	5c 39       	neg	r9
8000c926:	2f f9       	sub	r9,-1
8000c928:	e0 49 00 36 	cp.w	r9,54
8000c92c:	c0 43       	brcs	8000c934 <__avr32_s32_to_f64+0x56>
8000c92e:	30 0b       	mov	r11,0
8000c930:	30 0a       	mov	r10,0
8000c932:	c2 68       	rjmp	8000c97e <__avr32_s32_to_f64+0xa0>
8000c934:	2f 69       	sub	r9,-10
8000c936:	f2 08 11 20 	rsub	r8,r9,32
8000c93a:	e0 49 00 20 	cp.w	r9,32
8000c93e:	c0 b2       	brcc	8000c954 <__avr32_s32_to_f64+0x76>
8000c940:	f4 08 09 4e 	lsl	lr,r10,r8
8000c944:	f6 08 09 48 	lsl	r8,r11,r8
8000c948:	f4 09 0a 4a 	lsr	r10,r10,r9
8000c94c:	f6 09 0a 4b 	lsr	r11,r11,r9
8000c950:	10 4b       	or	r11,r8
8000c952:	c0 88       	rjmp	8000c962 <__avr32_s32_to_f64+0x84>
8000c954:	f6 08 09 4e 	lsl	lr,r11,r8
8000c958:	14 4e       	or	lr,r10
8000c95a:	16 9a       	mov	r10,r11
8000c95c:	30 0b       	mov	r11,0
8000c95e:	f4 09 0a 4a 	lsr	r10,r10,r9
8000c962:	ed ba 00 00 	bld	r10,0x0
8000c966:	c0 92       	brcc	8000c978 <__avr32_s32_to_f64+0x9a>
8000c968:	1c 7e       	tst	lr,lr
8000c96a:	c0 41       	brne	8000c972 <__avr32_s32_to_f64+0x94>
8000c96c:	ed ba 00 01 	bld	r10,0x1
8000c970:	c0 42       	brcc	8000c978 <__avr32_s32_to_f64+0x9a>
8000c972:	2f fa       	sub	r10,-1
8000c974:	f7 bb 02 ff 	subhs	r11,-1
8000c978:	5c fc       	rol	r12
8000c97a:	5d 0b       	ror	r11
8000c97c:	5d 0a       	ror	r10
8000c97e:	d8 02       	popm	pc
8000c980:	e0 68 03 ff 	mov	r8,1023
8000c984:	ed ba 00 0b 	bld	r10,0xb
8000c988:	f7 b8 00 ff 	subeq	r8,-1
8000c98c:	10 0a       	add	r10,r8
8000c98e:	5c 0b       	acr	r11
8000c990:	f7 b9 03 fe 	sublo	r9,-2
8000c994:	e0 49 07 ff 	cp.w	r9,2047
8000c998:	c0 55       	brlt	8000c9a2 <__avr32_s32_to_f64+0xc4>
8000c99a:	30 0a       	mov	r10,0
8000c99c:	fc 1b ff e0 	movh	r11,0xffe0
8000c9a0:	c0 c8       	rjmp	8000c9b8 <__floatsidf_return_op1>
8000c9a2:	ed bb 00 1f 	bld	r11,0x1f
8000c9a6:	f7 b9 01 01 	subne	r9,1
8000c9aa:	ab 9a       	lsr	r10,0xb
8000c9ac:	f5 eb 11 5a 	or	r10,r10,r11<<0x15
8000c9b0:	a1 7b       	lsl	r11,0x1
8000c9b2:	ab 9b       	lsr	r11,0xb
8000c9b4:	f7 e9 11 5b 	or	r11,r11,r9<<0x15

8000c9b8 <__floatsidf_return_op1>:
8000c9b8:	a1 7c       	lsl	r12,0x1
8000c9ba:	5d 0b       	ror	r11
8000c9bc:	d8 02       	popm	pc

8000c9be <__avr32_f64_cmp_eq>:
8000c9be:	10 3a       	cp.w	r10,r8
8000c9c0:	f2 0b 13 00 	cpc	r11,r9
8000c9c4:	c0 80       	breq	8000c9d4 <__avr32_f64_cmp_eq+0x16>
8000c9c6:	a1 7b       	lsl	r11,0x1
8000c9c8:	a1 79       	lsl	r9,0x1
8000c9ca:	14 4b       	or	r11,r10
8000c9cc:	12 4b       	or	r11,r9
8000c9ce:	10 4b       	or	r11,r8
8000c9d0:	5e 0f       	reteq	1
8000c9d2:	5e fd       	retal	0
8000c9d4:	a1 7b       	lsl	r11,0x1
8000c9d6:	fc 1c ff e0 	movh	r12,0xffe0
8000c9da:	58 0a       	cp.w	r10,0
8000c9dc:	f8 0b 13 00 	cpc	r11,r12
8000c9e0:	5e 8f       	retls	1
8000c9e2:	5e fd       	retal	0

8000c9e4 <__avr32_f64_cmp_ge>:
8000c9e4:	1a de       	st.w	--sp,lr
8000c9e6:	1a d7       	st.w	--sp,r7
8000c9e8:	a1 7b       	lsl	r11,0x1
8000c9ea:	5f 3c       	srlo	r12
8000c9ec:	a1 79       	lsl	r9,0x1
8000c9ee:	5f 37       	srlo	r7
8000c9f0:	5c fc       	rol	r12
8000c9f2:	fc 1e ff e0 	movh	lr,0xffe0
8000c9f6:	58 0a       	cp.w	r10,0
8000c9f8:	fc 0b 13 00 	cpc	r11,lr
8000c9fc:	e0 8b 00 1d 	brhi	8000ca36 <__avr32_f64_cmp_ge+0x52>
8000ca00:	58 08       	cp.w	r8,0
8000ca02:	fc 09 13 00 	cpc	r9,lr
8000ca06:	e0 8b 00 18 	brhi	8000ca36 <__avr32_f64_cmp_ge+0x52>
8000ca0a:	58 0b       	cp.w	r11,0
8000ca0c:	f5 ba 00 00 	subfeq	r10,0
8000ca10:	c1 50       	breq	8000ca3a <__avr32_f64_cmp_ge+0x56>
8000ca12:	1b 07       	ld.w	r7,sp++
8000ca14:	1b 0e       	ld.w	lr,sp++
8000ca16:	58 3c       	cp.w	r12,3
8000ca18:	c0 a0       	breq	8000ca2c <__avr32_f64_cmp_ge+0x48>
8000ca1a:	58 1c       	cp.w	r12,1
8000ca1c:	c0 33       	brcs	8000ca22 <__avr32_f64_cmp_ge+0x3e>
8000ca1e:	5e 0f       	reteq	1
8000ca20:	5e 1d       	retne	0
8000ca22:	10 3a       	cp.w	r10,r8
8000ca24:	f2 0b 13 00 	cpc	r11,r9
8000ca28:	5e 2f       	reths	1
8000ca2a:	5e 3d       	retlo	0
8000ca2c:	14 38       	cp.w	r8,r10
8000ca2e:	f6 09 13 00 	cpc	r9,r11
8000ca32:	5e 2f       	reths	1
8000ca34:	5e 3d       	retlo	0
8000ca36:	1b 07       	ld.w	r7,sp++
8000ca38:	d8 0a       	popm	pc,r12=0
8000ca3a:	58 17       	cp.w	r7,1
8000ca3c:	5f 0c       	sreq	r12
8000ca3e:	58 09       	cp.w	r9,0
8000ca40:	f5 b8 00 00 	subfeq	r8,0
8000ca44:	1b 07       	ld.w	r7,sp++
8000ca46:	1b 0e       	ld.w	lr,sp++
8000ca48:	5e 0f       	reteq	1
8000ca4a:	5e fc       	retal	r12

8000ca4c <__avr32_f64_cmp_lt>:
8000ca4c:	1a de       	st.w	--sp,lr
8000ca4e:	1a d7       	st.w	--sp,r7
8000ca50:	a1 7b       	lsl	r11,0x1
8000ca52:	5f 3c       	srlo	r12
8000ca54:	a1 79       	lsl	r9,0x1
8000ca56:	5f 37       	srlo	r7
8000ca58:	5c fc       	rol	r12
8000ca5a:	fc 1e ff e0 	movh	lr,0xffe0
8000ca5e:	58 0a       	cp.w	r10,0
8000ca60:	fc 0b 13 00 	cpc	r11,lr
8000ca64:	e0 8b 00 1d 	brhi	8000ca9e <__avr32_f64_cmp_lt+0x52>
8000ca68:	58 08       	cp.w	r8,0
8000ca6a:	fc 09 13 00 	cpc	r9,lr
8000ca6e:	e0 8b 00 18 	brhi	8000ca9e <__avr32_f64_cmp_lt+0x52>
8000ca72:	58 0b       	cp.w	r11,0
8000ca74:	f5 ba 00 00 	subfeq	r10,0
8000ca78:	c1 50       	breq	8000caa2 <__avr32_f64_cmp_lt+0x56>
8000ca7a:	1b 07       	ld.w	r7,sp++
8000ca7c:	1b 0e       	ld.w	lr,sp++
8000ca7e:	58 3c       	cp.w	r12,3
8000ca80:	c0 a0       	breq	8000ca94 <__avr32_f64_cmp_lt+0x48>
8000ca82:	58 1c       	cp.w	r12,1
8000ca84:	c0 33       	brcs	8000ca8a <__avr32_f64_cmp_lt+0x3e>
8000ca86:	5e 0d       	reteq	0
8000ca88:	5e 1f       	retne	1
8000ca8a:	10 3a       	cp.w	r10,r8
8000ca8c:	f2 0b 13 00 	cpc	r11,r9
8000ca90:	5e 2d       	reths	0
8000ca92:	5e 3f       	retlo	1
8000ca94:	14 38       	cp.w	r8,r10
8000ca96:	f6 09 13 00 	cpc	r9,r11
8000ca9a:	5e 2d       	reths	0
8000ca9c:	5e 3f       	retlo	1
8000ca9e:	1b 07       	ld.w	r7,sp++
8000caa0:	d8 0a       	popm	pc,r12=0
8000caa2:	58 17       	cp.w	r7,1
8000caa4:	5f 1c       	srne	r12
8000caa6:	58 09       	cp.w	r9,0
8000caa8:	f5 b8 00 00 	subfeq	r8,0
8000caac:	1b 07       	ld.w	r7,sp++
8000caae:	1b 0e       	ld.w	lr,sp++
8000cab0:	5e 0d       	reteq	0
8000cab2:	5e fc       	retal	r12

8000cab4 <__avr32_f64_div>:
8000cab4:	eb cd 40 ff 	pushm	r0-r7,lr
8000cab8:	f7 e9 20 0e 	eor	lr,r11,r9
8000cabc:	f6 07 16 14 	lsr	r7,r11,0x14
8000cac0:	a9 7b       	lsl	r11,0x9
8000cac2:	f7 ea 13 7b 	or	r11,r11,r10>>0x17
8000cac6:	a9 7a       	lsl	r10,0x9
8000cac8:	bd bb       	sbr	r11,0x1d
8000caca:	e4 1b 3f ff 	andh	r11,0x3fff
8000cace:	ab d7       	cbr	r7,0xb
8000cad0:	e0 80 00 cc 	breq	8000cc68 <__avr32_f64_div_round_subnormal+0x54>
8000cad4:	e0 47 07 ff 	cp.w	r7,2047
8000cad8:	e0 84 00 b5 	brge	8000cc42 <__avr32_f64_div_round_subnormal+0x2e>
8000cadc:	f2 06 16 14 	lsr	r6,r9,0x14
8000cae0:	a9 79       	lsl	r9,0x9
8000cae2:	f3 e8 13 79 	or	r9,r9,r8>>0x17
8000cae6:	a9 78       	lsl	r8,0x9
8000cae8:	bd b9       	sbr	r9,0x1d
8000caea:	e4 19 3f ff 	andh	r9,0x3fff
8000caee:	ab d6       	cbr	r6,0xb
8000caf0:	e0 80 00 e2 	breq	8000ccb4 <__avr32_f64_div_round_subnormal+0xa0>
8000caf4:	e0 46 07 ff 	cp.w	r6,2047
8000caf8:	e0 84 00 b2 	brge	8000cc5c <__avr32_f64_div_round_subnormal+0x48>
8000cafc:	0c 17       	sub	r7,r6
8000cafe:	fe 37 fc 01 	sub	r7,-1023
8000cb02:	fc 1c 80 00 	movh	r12,0x8000
8000cb06:	f8 03 16 01 	lsr	r3,r12,0x1
8000cb0a:	e9 d9 c3 62 	bfextu	r4,r9,0x1b,0x2
8000cb0e:	5c d4       	com	r4
8000cb10:	e7 d4 d3 82 	bfins	r3,r4,0x1c,0x2
8000cb14:	e6 09 06 44 	mulu.d	r4,r3,r9
8000cb18:	f8 05 01 25 	sub	r5,r12,r5<<0x2
8000cb1c:	e6 05 06 44 	mulu.d	r4,r3,r5
8000cb20:	ea 03 15 02 	lsl	r3,r5,0x2
8000cb24:	e6 09 06 44 	mulu.d	r4,r3,r9
8000cb28:	f8 05 01 25 	sub	r5,r12,r5<<0x2
8000cb2c:	e6 05 06 44 	mulu.d	r4,r3,r5
8000cb30:	ea 03 15 02 	lsl	r3,r5,0x2
8000cb34:	e6 09 06 44 	mulu.d	r4,r3,r9
8000cb38:	f8 05 01 25 	sub	r5,r12,r5<<0x2
8000cb3c:	e6 05 06 44 	mulu.d	r4,r3,r5
8000cb40:	ea 03 15 02 	lsl	r3,r5,0x2
8000cb44:	e6 08 06 40 	mulu.d	r0,r3,r8
8000cb48:	e4 09 07 40 	macu.d	r0,r2,r9
8000cb4c:	e6 09 06 44 	mulu.d	r4,r3,r9
8000cb50:	02 04       	add	r4,r1
8000cb52:	5c 05       	acr	r5
8000cb54:	a3 65       	lsl	r5,0x2
8000cb56:	eb e4 13 e5 	or	r5,r5,r4>>0x1e
8000cb5a:	a3 64       	lsl	r4,0x2
8000cb5c:	5c 34       	neg	r4
8000cb5e:	f8 05 01 45 	sbc	r5,r12,r5
8000cb62:	e6 04 06 40 	mulu.d	r0,r3,r4
8000cb66:	e4 05 07 40 	macu.d	r0,r2,r5
8000cb6a:	e6 05 06 44 	mulu.d	r4,r3,r5
8000cb6e:	02 04       	add	r4,r1
8000cb70:	5c 05       	acr	r5
8000cb72:	ea 03 15 02 	lsl	r3,r5,0x2
8000cb76:	e7 e4 13 e3 	or	r3,r3,r4>>0x1e
8000cb7a:	e8 02 15 02 	lsl	r2,r4,0x2
8000cb7e:	e6 08 06 40 	mulu.d	r0,r3,r8
8000cb82:	e4 09 07 40 	macu.d	r0,r2,r9
8000cb86:	e6 09 06 44 	mulu.d	r4,r3,r9
8000cb8a:	02 04       	add	r4,r1
8000cb8c:	5c 05       	acr	r5
8000cb8e:	a3 65       	lsl	r5,0x2
8000cb90:	eb e4 13 e5 	or	r5,r5,r4>>0x1e
8000cb94:	a3 64       	lsl	r4,0x2
8000cb96:	5c 34       	neg	r4
8000cb98:	f8 05 01 45 	sbc	r5,r12,r5
8000cb9c:	e6 04 06 40 	mulu.d	r0,r3,r4
8000cba0:	e4 05 07 40 	macu.d	r0,r2,r5
8000cba4:	e6 05 06 44 	mulu.d	r4,r3,r5
8000cba8:	02 04       	add	r4,r1
8000cbaa:	5c 05       	acr	r5
8000cbac:	ea 03 15 02 	lsl	r3,r5,0x2
8000cbb0:	e7 e4 13 e3 	or	r3,r3,r4>>0x1e
8000cbb4:	e8 02 15 02 	lsl	r2,r4,0x2
8000cbb8:	e6 0a 06 40 	mulu.d	r0,r3,r10
8000cbbc:	e4 0b 07 40 	macu.d	r0,r2,r11
8000cbc0:	e6 0b 06 42 	mulu.d	r2,r3,r11
8000cbc4:	02 02       	add	r2,r1
8000cbc6:	5c 03       	acr	r3
8000cbc8:	ed b3 00 1c 	bld	r3,0x1c
8000cbcc:	c0 90       	breq	8000cbde <__avr32_f64_div+0x12a>
8000cbce:	a1 72       	lsl	r2,0x1
8000cbd0:	5c f3       	rol	r3
8000cbd2:	20 17       	sub	r7,1
8000cbd4:	a3 9a       	lsr	r10,0x3
8000cbd6:	f5 eb 11 da 	or	r10,r10,r11<<0x1d
8000cbda:	a3 9b       	lsr	r11,0x3
8000cbdc:	c0 58       	rjmp	8000cbe6 <__avr32_f64_div+0x132>
8000cbde:	a5 8a       	lsr	r10,0x4
8000cbe0:	f5 eb 11 ca 	or	r10,r10,r11<<0x1c
8000cbe4:	a5 8b       	lsr	r11,0x4
8000cbe6:	58 07       	cp.w	r7,0
8000cbe8:	e0 8a 00 8b 	brle	8000ccfe <__avr32_f64_div_res_subnormal>
8000cbec:	e0 12 ff 00 	andl	r2,0xff00
8000cbf0:	e8 12 00 80 	orl	r2,0x80
8000cbf4:	e6 08 06 40 	mulu.d	r0,r3,r8
8000cbf8:	e4 09 07 40 	macu.d	r0,r2,r9
8000cbfc:	e4 08 06 44 	mulu.d	r4,r2,r8
8000cc00:	e6 09 06 48 	mulu.d	r8,r3,r9
8000cc04:	00 05       	add	r5,r0
8000cc06:	f0 01 00 48 	adc	r8,r8,r1
8000cc0a:	5c 09       	acr	r9
8000cc0c:	f9 d2 c1 01 	bfextu	r12,r2,0x8,0x1
8000cc10:	58 04       	cp.w	r4,0
8000cc12:	5c 25       	cpc	r5

8000cc14 <__avr32_f64_div_round_subnormal>:
8000cc14:	f4 08 13 00 	cpc	r8,r10
8000cc18:	f6 09 13 00 	cpc	r9,r11
8000cc1c:	5f 36       	srlo	r6
8000cc1e:	f8 06 17 00 	moveq	r6,r12
8000cc22:	e4 0a 16 08 	lsr	r10,r2,0x8
8000cc26:	f5 e3 11 8a 	or	r10,r10,r3<<0x18
8000cc2a:	e6 0b 16 08 	lsr	r11,r3,0x8
8000cc2e:	f7 d7 d2 8b 	bfins	r11,r7,0x14,0xb
8000cc32:	ed be 00 1f 	bld	lr,0x1f
8000cc36:	ef bb 00 1f 	bst	r11,0x1f
8000cc3a:	0c 0a       	add	r10,r6
8000cc3c:	5c 0b       	acr	r11
8000cc3e:	e3 cd 80 ff 	ldm	sp++,r0-r7,pc
8000cc42:	e4 1b 00 0f 	andh	r11,0xf
8000cc46:	14 4b       	or	r11,r10
8000cc48:	e0 81 00 a7 	brne	8000cd96 <__avr32_f64_div_res_subnormal+0x98>
8000cc4c:	f2 06 16 14 	lsr	r6,r9,0x14
8000cc50:	ab d6       	cbr	r6,0xb
8000cc52:	e0 46 07 ff 	cp.w	r6,2047
8000cc56:	e0 81 00 a4 	brne	8000cd9e <__avr32_f64_div_res_subnormal+0xa0>
8000cc5a:	c9 e8       	rjmp	8000cd96 <__avr32_f64_div_res_subnormal+0x98>
8000cc5c:	e4 19 00 0f 	andh	r9,0xf
8000cc60:	10 49       	or	r9,r8
8000cc62:	e0 81 00 9a 	brne	8000cd96 <__avr32_f64_div_res_subnormal+0x98>
8000cc66:	c9 28       	rjmp	8000cd8a <__avr32_f64_div_res_subnormal+0x8c>
8000cc68:	a3 7b       	lsl	r11,0x3
8000cc6a:	f7 ea 13 db 	or	r11,r11,r10>>0x1d
8000cc6e:	a3 7a       	lsl	r10,0x3
8000cc70:	f5 eb 10 04 	or	r4,r10,r11
8000cc74:	e0 80 00 a0 	breq	8000cdb4 <__avr32_f64_div_op1_zero>
8000cc78:	f6 04 12 00 	clz	r4,r11
8000cc7c:	c1 70       	breq	8000ccaa <__avr32_f64_div_round_subnormal+0x96>
8000cc7e:	c0 c3       	brcs	8000cc96 <__avr32_f64_div_round_subnormal+0x82>
8000cc80:	e8 05 11 20 	rsub	r5,r4,32
8000cc84:	f6 04 09 4b 	lsl	r11,r11,r4
8000cc88:	f4 05 0a 45 	lsr	r5,r10,r5
8000cc8c:	0a 4b       	or	r11,r5
8000cc8e:	f4 04 09 4a 	lsl	r10,r10,r4
8000cc92:	08 17       	sub	r7,r4
8000cc94:	c0 b8       	rjmp	8000ccaa <__avr32_f64_div_round_subnormal+0x96>
8000cc96:	f4 04 12 00 	clz	r4,r10
8000cc9a:	f9 b4 03 00 	movlo	r4,0
8000cc9e:	f7 b4 02 e0 	subhs	r4,-32
8000cca2:	f4 04 09 4b 	lsl	r11,r10,r4
8000cca6:	30 0a       	mov	r10,0
8000cca8:	08 17       	sub	r7,r4
8000ccaa:	a3 8a       	lsr	r10,0x2
8000ccac:	f5 eb 11 ea 	or	r10,r10,r11<<0x1e
8000ccb0:	a3 8b       	lsr	r11,0x2
8000ccb2:	c1 1b       	rjmp	8000cad4 <__avr32_f64_div+0x20>
8000ccb4:	a3 79       	lsl	r9,0x3
8000ccb6:	f3 e8 13 d9 	or	r9,r9,r8>>0x1d
8000ccba:	a3 78       	lsl	r8,0x3
8000ccbc:	f3 e8 10 04 	or	r4,r9,r8
8000ccc0:	c6 f0       	breq	8000cd9e <__avr32_f64_div_res_subnormal+0xa0>
8000ccc2:	f2 04 12 00 	clz	r4,r9
8000ccc6:	c1 70       	breq	8000ccf4 <__avr32_f64_div_round_subnormal+0xe0>
8000ccc8:	c0 c3       	brcs	8000cce0 <__avr32_f64_div_round_subnormal+0xcc>
8000ccca:	e8 05 11 20 	rsub	r5,r4,32
8000ccce:	f2 04 09 49 	lsl	r9,r9,r4
8000ccd2:	f0 05 0a 45 	lsr	r5,r8,r5
8000ccd6:	0a 49       	or	r9,r5
8000ccd8:	f0 04 09 48 	lsl	r8,r8,r4
8000ccdc:	08 16       	sub	r6,r4
8000ccde:	c0 b8       	rjmp	8000ccf4 <__avr32_f64_div_round_subnormal+0xe0>
8000cce0:	f0 04 12 00 	clz	r4,r8
8000cce4:	f9 b4 03 00 	movlo	r4,0
8000cce8:	f7 b4 02 e0 	subhs	r4,-32
8000ccec:	f0 04 09 49 	lsl	r9,r8,r4
8000ccf0:	30 08       	mov	r8,0
8000ccf2:	08 16       	sub	r6,r4
8000ccf4:	a3 88       	lsr	r8,0x2
8000ccf6:	f1 e9 11 e8 	or	r8,r8,r9<<0x1e
8000ccfa:	a3 89       	lsr	r9,0x2
8000ccfc:	cf ca       	rjmp	8000caf4 <__avr32_f64_div+0x40>

8000ccfe <__avr32_f64_div_res_subnormal>:
8000ccfe:	5c 37       	neg	r7
8000cd00:	2f f7       	sub	r7,-1
8000cd02:	f1 b7 04 c0 	satu	r7,0x6
8000cd06:	e0 47 00 20 	cp.w	r7,32
8000cd0a:	c1 54       	brge	8000cd34 <__avr32_f64_div_res_subnormal+0x36>
8000cd0c:	ee 06 11 20 	rsub	r6,r7,32
8000cd10:	e4 07 0a 42 	lsr	r2,r2,r7
8000cd14:	e6 06 09 4c 	lsl	r12,r3,r6
8000cd18:	18 42       	or	r2,r12
8000cd1a:	e6 07 0a 43 	lsr	r3,r3,r7
8000cd1e:	f4 06 09 41 	lsl	r1,r10,r6
8000cd22:	f4 07 0a 4a 	lsr	r10,r10,r7
8000cd26:	f6 06 09 4c 	lsl	r12,r11,r6
8000cd2a:	18 4a       	or	r10,r12
8000cd2c:	f6 07 0a 4b 	lsr	r11,r11,r7
8000cd30:	30 00       	mov	r0,0
8000cd32:	c1 58       	rjmp	8000cd5c <__avr32_f64_div_res_subnormal+0x5e>
8000cd34:	ee 06 11 20 	rsub	r6,r7,32
8000cd38:	f9 b0 00 00 	moveq	r0,0
8000cd3c:	f9 bc 00 00 	moveq	r12,0
8000cd40:	c0 50       	breq	8000cd4a <__avr32_f64_div_res_subnormal+0x4c>
8000cd42:	f4 06 09 40 	lsl	r0,r10,r6
8000cd46:	f6 06 09 4c 	lsl	r12,r11,r6
8000cd4a:	e6 07 0a 42 	lsr	r2,r3,r7
8000cd4e:	30 03       	mov	r3,0
8000cd50:	f4 07 0a 41 	lsr	r1,r10,r7
8000cd54:	18 41       	or	r1,r12
8000cd56:	f6 07 0a 4a 	lsr	r10,r11,r7
8000cd5a:	30 0b       	mov	r11,0
8000cd5c:	e0 12 ff 00 	andl	r2,0xff00
8000cd60:	e8 12 00 80 	orl	r2,0x80
8000cd64:	e6 08 06 46 	mulu.d	r6,r3,r8
8000cd68:	e4 09 07 46 	macu.d	r6,r2,r9
8000cd6c:	e4 08 06 44 	mulu.d	r4,r2,r8
8000cd70:	e6 09 06 48 	mulu.d	r8,r3,r9
8000cd74:	0c 05       	add	r5,r6
8000cd76:	f0 07 00 48 	adc	r8,r8,r7
8000cd7a:	5c 09       	acr	r9
8000cd7c:	30 07       	mov	r7,0
8000cd7e:	f9 d2 c1 01 	bfextu	r12,r2,0x8,0x1
8000cd82:	00 34       	cp.w	r4,r0
8000cd84:	e2 05 13 00 	cpc	r5,r1
8000cd88:	c4 6b       	rjmp	8000cc14 <__avr32_f64_div_round_subnormal>
8000cd8a:	1c 9b       	mov	r11,lr
8000cd8c:	e6 1b 80 00 	andh	r11,0x8000,COH
8000cd90:	30 0a       	mov	r10,0
8000cd92:	e3 cd 80 ff 	ldm	sp++,r0-r7,pc
8000cd96:	3f fb       	mov	r11,-1
8000cd98:	30 0a       	mov	r10,0
8000cd9a:	e3 cd 80 ff 	ldm	sp++,r0-r7,pc
8000cd9e:	f5 eb 10 04 	or	r4,r10,r11
8000cda2:	c0 90       	breq	8000cdb4 <__avr32_f64_div_op1_zero>
8000cda4:	1c 9b       	mov	r11,lr
8000cda6:	e6 1b 80 00 	andh	r11,0x8000,COH
8000cdaa:	ea 1b 7f f0 	orh	r11,0x7ff0
8000cdae:	30 0a       	mov	r10,0
8000cdb0:	e3 cd 80 ff 	ldm	sp++,r0-r7,pc

8000cdb4 <__avr32_f64_div_op1_zero>:
8000cdb4:	f1 e9 10 15 	or	r5,r8,r9<<0x1
8000cdb8:	ce f0       	breq	8000cd96 <__avr32_f64_div_res_subnormal+0x98>
8000cdba:	e9 d9 c2 8b 	bfextu	r4,r9,0x14,0xb
8000cdbe:	e0 44 07 ff 	cp.w	r4,2047
8000cdc2:	ce 41       	brne	8000cd8a <__avr32_f64_div_res_subnormal+0x8c>
8000cdc4:	f1 e9 10 c5 	or	r5,r8,r9<<0xc
8000cdc8:	ce 10       	breq	8000cd8a <__avr32_f64_div_res_subnormal+0x8c>
8000cdca:	ce 6b       	rjmp	8000cd96 <__avr32_f64_div_res_subnormal+0x98>

8000cdcc <__avr32_f64_to_f32>:
8000cdcc:	f6 09 15 01 	lsl	r9,r11,0x1
8000cdd0:	b5 99       	lsr	r9,0x15
8000cdd2:	5e 0d       	reteq	0
8000cdd4:	f6 08 15 0a 	lsl	r8,r11,0xa
8000cdd8:	f1 ea 13 6c 	or	r12,r8,r10>>0x16
8000cddc:	ab 6a       	lsl	r10,0xa
8000cdde:	5c 3a       	neg	r10
8000cde0:	5c fc       	rol	r12
8000cde2:	e0 49 07 ff 	cp.w	r9,2047
8000cde6:	c1 a0       	breq	8000ce1a <__truncdfsf_return_op1+0x6>
8000cde8:	e0 29 03 80 	sub	r9,896
8000cdec:	bf bc       	sbr	r12,0x1f
8000cdee:	58 09       	cp.w	r9,0
8000cdf0:	e0 8a 00 1a 	brle	8000ce24 <__truncdfsf_return_op1+0x10>
8000cdf4:	37 fa       	mov	r10,127
8000cdf6:	ed bc 00 08 	bld	r12,0x8
8000cdfa:	f7 ba 00 ff 	subeq	r10,-1
8000cdfe:	14 0c       	add	r12,r10
8000ce00:	f7 b9 03 fe 	sublo	r9,-2
8000ce04:	ed bc 00 1f 	bld	r12,0x1f
8000ce08:	f7 b9 01 01 	subne	r9,1
8000ce0c:	f8 0c 16 07 	lsr	r12,r12,0x7
8000ce10:	f9 d9 d3 08 	bfins	r12,r9,0x18,0x8

8000ce14 <__truncdfsf_return_op1>:
8000ce14:	a1 7b       	lsl	r11,0x1
8000ce16:	5d 0c       	ror	r12
8000ce18:	5e fc       	retal	r12
8000ce1a:	bf dc       	cbr	r12,0x1f
8000ce1c:	5e 1e       	retne	-1
8000ce1e:	fc 1c 7f 80 	movh	r12,0x7f80
8000ce22:	5e fc       	retal	r12
8000ce24:	f2 09 11 01 	rsub	r9,r9,1
8000ce28:	59 99       	cp.w	r9,25
8000ce2a:	f9 bc 02 00 	movhs	r12,0
8000ce2e:	c1 32       	brcc	8000ce54 <__truncdfsf_return_op1+0x40>
8000ce30:	f2 0a 11 20 	rsub	r10,r9,32
8000ce34:	f8 0a 09 4a 	lsl	r10,r12,r10
8000ce38:	5f 1a       	srne	r10
8000ce3a:	f8 09 0a 4c 	lsr	r12,r12,r9
8000ce3e:	14 4c       	or	r12,r10
8000ce40:	37 fa       	mov	r10,127
8000ce42:	ed bc 00 08 	bld	r12,0x8
8000ce46:	f7 ba 00 ff 	subeq	r10,-1
8000ce4a:	14 0c       	add	r12,r10
8000ce4c:	f8 0c 16 07 	lsr	r12,r12,0x7
8000ce50:	a1 7b       	lsl	r11,0x1
8000ce52:	5d 0c       	ror	r12
8000ce54:	5e fc       	retal	r12

8000ce56 <__avr32_udiv64>:
8000ce56:	d4 31       	pushm	r0-r7,lr
8000ce58:	1a 97       	mov	r7,sp
8000ce5a:	20 3d       	sub	sp,12
8000ce5c:	10 9c       	mov	r12,r8
8000ce5e:	12 9e       	mov	lr,r9
8000ce60:	14 93       	mov	r3,r10
8000ce62:	58 09       	cp.w	r9,0
8000ce64:	e0 81 00 bd 	brne	8000cfde <__avr32_udiv64+0x188>
8000ce68:	16 38       	cp.w	r8,r11
8000ce6a:	e0 88 00 40 	brls	8000ceea <__avr32_udiv64+0x94>
8000ce6e:	f0 08 12 00 	clz	r8,r8
8000ce72:	c0 d0       	breq	8000ce8c <__avr32_udiv64+0x36>
8000ce74:	f6 08 09 4b 	lsl	r11,r11,r8
8000ce78:	f0 09 11 20 	rsub	r9,r8,32
8000ce7c:	f8 08 09 4c 	lsl	r12,r12,r8
8000ce80:	f4 09 0a 49 	lsr	r9,r10,r9
8000ce84:	f4 08 09 43 	lsl	r3,r10,r8
8000ce88:	f3 eb 10 0b 	or	r11,r9,r11
8000ce8c:	f8 0e 16 10 	lsr	lr,r12,0x10
8000ce90:	f5 dc c0 10 	bfextu	r10,r12,0x0,0x10
8000ce94:	f6 0e 0d 00 	divu	r0,r11,lr
8000ce98:	e6 0b 16 10 	lsr	r11,r3,0x10
8000ce9c:	00 99       	mov	r9,r0
8000ce9e:	f7 e1 11 0b 	or	r11,r11,r1<<0x10
8000cea2:	e0 0a 02 48 	mul	r8,r0,r10
8000cea6:	10 3b       	cp.w	r11,r8
8000cea8:	c0 a2       	brcc	8000cebc <__avr32_udiv64+0x66>
8000ceaa:	20 19       	sub	r9,1
8000ceac:	18 0b       	add	r11,r12
8000ceae:	18 3b       	cp.w	r11,r12
8000ceb0:	c0 63       	brcs	8000cebc <__avr32_udiv64+0x66>
8000ceb2:	10 3b       	cp.w	r11,r8
8000ceb4:	f7 b9 03 01 	sublo	r9,1
8000ceb8:	f7 dc e3 0b 	addcs	r11,r11,r12
8000cebc:	f6 08 01 01 	sub	r1,r11,r8
8000cec0:	e7 d3 c0 10 	bfextu	r3,r3,0x0,0x10
8000cec4:	e2 0e 0d 00 	divu	r0,r1,lr
8000cec8:	e7 e1 11 03 	or	r3,r3,r1<<0x10
8000cecc:	00 98       	mov	r8,r0
8000cece:	e0 0a 02 4a 	mul	r10,r0,r10
8000ced2:	14 33       	cp.w	r3,r10
8000ced4:	c0 82       	brcc	8000cee4 <__avr32_udiv64+0x8e>
8000ced6:	20 18       	sub	r8,1
8000ced8:	18 03       	add	r3,r12
8000ceda:	18 33       	cp.w	r3,r12
8000cedc:	c0 43       	brcs	8000cee4 <__avr32_udiv64+0x8e>
8000cede:	14 33       	cp.w	r3,r10
8000cee0:	f7 b8 03 01 	sublo	r8,1
8000cee4:	f1 e9 11 08 	or	r8,r8,r9<<0x10
8000cee8:	cd f8       	rjmp	8000d0a6 <__avr32_udiv64+0x250>
8000ceea:	58 08       	cp.w	r8,0
8000ceec:	c0 51       	brne	8000cef6 <__avr32_udiv64+0xa0>
8000ceee:	30 19       	mov	r9,1
8000cef0:	f2 08 0d 08 	divu	r8,r9,r8
8000cef4:	10 9c       	mov	r12,r8
8000cef6:	f8 06 12 00 	clz	r6,r12
8000cefa:	c0 41       	brne	8000cf02 <__avr32_udiv64+0xac>
8000cefc:	18 1b       	sub	r11,r12
8000cefe:	30 19       	mov	r9,1
8000cf00:	c4 08       	rjmp	8000cf80 <__avr32_udiv64+0x12a>
8000cf02:	ec 01 11 20 	rsub	r1,r6,32
8000cf06:	f4 01 0a 49 	lsr	r9,r10,r1
8000cf0a:	f8 06 09 4c 	lsl	r12,r12,r6
8000cf0e:	f6 06 09 48 	lsl	r8,r11,r6
8000cf12:	f6 01 0a 41 	lsr	r1,r11,r1
8000cf16:	f3 e8 10 08 	or	r8,r9,r8
8000cf1a:	f8 03 16 10 	lsr	r3,r12,0x10
8000cf1e:	eb dc c0 10 	bfextu	r5,r12,0x0,0x10
8000cf22:	e2 03 0d 00 	divu	r0,r1,r3
8000cf26:	f0 0b 16 10 	lsr	r11,r8,0x10
8000cf2a:	00 9e       	mov	lr,r0
8000cf2c:	f7 e1 11 0b 	or	r11,r11,r1<<0x10
8000cf30:	e0 05 02 49 	mul	r9,r0,r5
8000cf34:	12 3b       	cp.w	r11,r9
8000cf36:	c0 a2       	brcc	8000cf4a <__avr32_udiv64+0xf4>
8000cf38:	20 1e       	sub	lr,1
8000cf3a:	18 0b       	add	r11,r12
8000cf3c:	18 3b       	cp.w	r11,r12
8000cf3e:	c0 63       	brcs	8000cf4a <__avr32_udiv64+0xf4>
8000cf40:	12 3b       	cp.w	r11,r9
8000cf42:	f7 be 03 01 	sublo	lr,1
8000cf46:	f7 dc e3 0b 	addcs	r11,r11,r12
8000cf4a:	12 1b       	sub	r11,r9
8000cf4c:	f1 d8 c0 10 	bfextu	r8,r8,0x0,0x10
8000cf50:	f6 03 0d 02 	divu	r2,r11,r3
8000cf54:	f1 e3 11 08 	or	r8,r8,r3<<0x10
8000cf58:	04 99       	mov	r9,r2
8000cf5a:	e4 05 02 4b 	mul	r11,r2,r5
8000cf5e:	16 38       	cp.w	r8,r11
8000cf60:	c0 a2       	brcc	8000cf74 <__avr32_udiv64+0x11e>
8000cf62:	20 19       	sub	r9,1
8000cf64:	18 08       	add	r8,r12
8000cf66:	18 38       	cp.w	r8,r12
8000cf68:	c0 63       	brcs	8000cf74 <__avr32_udiv64+0x11e>
8000cf6a:	16 38       	cp.w	r8,r11
8000cf6c:	f7 b9 03 01 	sublo	r9,1
8000cf70:	f1 dc e3 08 	addcs	r8,r8,r12
8000cf74:	f4 06 09 43 	lsl	r3,r10,r6
8000cf78:	f0 0b 01 0b 	sub	r11,r8,r11
8000cf7c:	f3 ee 11 09 	or	r9,r9,lr<<0x10
8000cf80:	f8 06 16 10 	lsr	r6,r12,0x10
8000cf84:	fd dc c0 10 	bfextu	lr,r12,0x0,0x10
8000cf88:	f6 06 0d 00 	divu	r0,r11,r6
8000cf8c:	e6 0b 16 10 	lsr	r11,r3,0x10
8000cf90:	00 9a       	mov	r10,r0
8000cf92:	f7 e1 11 0b 	or	r11,r11,r1<<0x10
8000cf96:	e0 0e 02 48 	mul	r8,r0,lr
8000cf9a:	10 3b       	cp.w	r11,r8
8000cf9c:	c0 a2       	brcc	8000cfb0 <__avr32_udiv64+0x15a>
8000cf9e:	20 1a       	sub	r10,1
8000cfa0:	18 0b       	add	r11,r12
8000cfa2:	18 3b       	cp.w	r11,r12
8000cfa4:	c0 63       	brcs	8000cfb0 <__avr32_udiv64+0x15a>
8000cfa6:	10 3b       	cp.w	r11,r8
8000cfa8:	f7 ba 03 01 	sublo	r10,1
8000cfac:	f7 dc e3 0b 	addcs	r11,r11,r12
8000cfb0:	f6 08 01 01 	sub	r1,r11,r8
8000cfb4:	e7 d3 c0 10 	bfextu	r3,r3,0x0,0x10
8000cfb8:	e2 06 0d 00 	divu	r0,r1,r6
8000cfbc:	e7 e1 11 03 	or	r3,r3,r1<<0x10
8000cfc0:	00 98       	mov	r8,r0
8000cfc2:	e0 0e 02 4b 	mul	r11,r0,lr
8000cfc6:	16 33       	cp.w	r3,r11
8000cfc8:	c0 82       	brcc	8000cfd8 <__avr32_udiv64+0x182>
8000cfca:	20 18       	sub	r8,1
8000cfcc:	18 03       	add	r3,r12
8000cfce:	18 33       	cp.w	r3,r12
8000cfd0:	c0 43       	brcs	8000cfd8 <__avr32_udiv64+0x182>
8000cfd2:	16 33       	cp.w	r3,r11
8000cfd4:	f7 b8 03 01 	sublo	r8,1
8000cfd8:	f1 ea 11 08 	or	r8,r8,r10<<0x10
8000cfdc:	c6 98       	rjmp	8000d0ae <__avr32_udiv64+0x258>
8000cfde:	16 39       	cp.w	r9,r11
8000cfe0:	e0 8b 00 65 	brhi	8000d0aa <__avr32_udiv64+0x254>
8000cfe4:	f2 09 12 00 	clz	r9,r9
8000cfe8:	c0 b1       	brne	8000cffe <__avr32_udiv64+0x1a8>
8000cfea:	10 3a       	cp.w	r10,r8
8000cfec:	5f 2a       	srhs	r10
8000cfee:	1c 3b       	cp.w	r11,lr
8000cff0:	5f b8       	srhi	r8
8000cff2:	10 4a       	or	r10,r8
8000cff4:	f2 0a 18 00 	cp.b	r10,r9
8000cff8:	c5 90       	breq	8000d0aa <__avr32_udiv64+0x254>
8000cffa:	30 18       	mov	r8,1
8000cffc:	c5 98       	rjmp	8000d0ae <__avr32_udiv64+0x258>
8000cffe:	f0 09 09 46 	lsl	r6,r8,r9
8000d002:	f2 03 11 20 	rsub	r3,r9,32
8000d006:	fc 09 09 4e 	lsl	lr,lr,r9
8000d00a:	f0 03 0a 48 	lsr	r8,r8,r3
8000d00e:	f6 09 09 4c 	lsl	r12,r11,r9
8000d012:	f4 03 0a 42 	lsr	r2,r10,r3
8000d016:	ef 46 ff f4 	st.w	r7[-12],r6
8000d01a:	f6 03 0a 43 	lsr	r3,r11,r3
8000d01e:	18 42       	or	r2,r12
8000d020:	f1 ee 10 0c 	or	r12,r8,lr
8000d024:	f8 01 16 10 	lsr	r1,r12,0x10
8000d028:	ed dc c0 10 	bfextu	r6,r12,0x0,0x10
8000d02c:	e6 01 0d 04 	divu	r4,r3,r1
8000d030:	e4 03 16 10 	lsr	r3,r2,0x10
8000d034:	08 9e       	mov	lr,r4
8000d036:	e7 e5 11 03 	or	r3,r3,r5<<0x10
8000d03a:	e8 06 02 48 	mul	r8,r4,r6
8000d03e:	10 33       	cp.w	r3,r8
8000d040:	c0 a2       	brcc	8000d054 <__avr32_udiv64+0x1fe>
8000d042:	20 1e       	sub	lr,1
8000d044:	18 03       	add	r3,r12
8000d046:	18 33       	cp.w	r3,r12
8000d048:	c0 63       	brcs	8000d054 <__avr32_udiv64+0x1fe>
8000d04a:	10 33       	cp.w	r3,r8
8000d04c:	f7 be 03 01 	sublo	lr,1
8000d050:	e7 dc e3 03 	addcs	r3,r3,r12
8000d054:	10 13       	sub	r3,r8
8000d056:	f7 d2 c0 10 	bfextu	r11,r2,0x0,0x10
8000d05a:	e6 01 0d 00 	divu	r0,r3,r1
8000d05e:	f7 e1 11 0b 	or	r11,r11,r1<<0x10
8000d062:	00 98       	mov	r8,r0
8000d064:	e0 06 02 46 	mul	r6,r0,r6
8000d068:	0c 3b       	cp.w	r11,r6
8000d06a:	c0 a2       	brcc	8000d07e <__avr32_udiv64+0x228>
8000d06c:	20 18       	sub	r8,1
8000d06e:	18 0b       	add	r11,r12
8000d070:	18 3b       	cp.w	r11,r12
8000d072:	c0 63       	brcs	8000d07e <__avr32_udiv64+0x228>
8000d074:	0c 3b       	cp.w	r11,r6
8000d076:	f7 dc e3 0b 	addcs	r11,r11,r12
8000d07a:	f7 b8 03 01 	sublo	r8,1
8000d07e:	f1 ee 11 08 	or	r8,r8,lr<<0x10
8000d082:	ee f4 ff f4 	ld.w	r4,r7[-12]
8000d086:	0c 1b       	sub	r11,r6
8000d088:	f0 04 06 42 	mulu.d	r2,r8,r4
8000d08c:	06 95       	mov	r5,r3
8000d08e:	16 35       	cp.w	r5,r11
8000d090:	e0 8b 00 0a 	brhi	8000d0a4 <__avr32_udiv64+0x24e>
8000d094:	5f 0b       	sreq	r11
8000d096:	f4 09 09 49 	lsl	r9,r10,r9
8000d09a:	12 32       	cp.w	r2,r9
8000d09c:	5f b9       	srhi	r9
8000d09e:	f7 e9 00 09 	and	r9,r11,r9
8000d0a2:	c0 60       	breq	8000d0ae <__avr32_udiv64+0x258>
8000d0a4:	20 18       	sub	r8,1
8000d0a6:	30 09       	mov	r9,0
8000d0a8:	c0 38       	rjmp	8000d0ae <__avr32_udiv64+0x258>
8000d0aa:	30 09       	mov	r9,0
8000d0ac:	12 98       	mov	r8,r9
8000d0ae:	10 9a       	mov	r10,r8
8000d0b0:	12 93       	mov	r3,r9
8000d0b2:	10 92       	mov	r2,r8
8000d0b4:	12 9b       	mov	r11,r9
8000d0b6:	2f dd       	sub	sp,-12
8000d0b8:	d8 32       	popm	r0-r7,pc

8000d0ba <__avr32_umod64>:
8000d0ba:	d4 31       	pushm	r0-r7,lr
8000d0bc:	1a 97       	mov	r7,sp
8000d0be:	20 3d       	sub	sp,12
8000d0c0:	10 9c       	mov	r12,r8
8000d0c2:	12 95       	mov	r5,r9
8000d0c4:	14 9e       	mov	lr,r10
8000d0c6:	16 91       	mov	r1,r11
8000d0c8:	16 96       	mov	r6,r11
8000d0ca:	58 09       	cp.w	r9,0
8000d0cc:	e0 81 00 81 	brne	8000d1ce <__avr32_umod64+0x114>
8000d0d0:	16 38       	cp.w	r8,r11
8000d0d2:	e0 88 00 12 	brls	8000d0f6 <__avr32_umod64+0x3c>
8000d0d6:	f0 08 12 00 	clz	r8,r8
8000d0da:	c4 e0       	breq	8000d176 <__avr32_umod64+0xbc>
8000d0dc:	f6 08 09 46 	lsl	r6,r11,r8
8000d0e0:	f8 08 09 4c 	lsl	r12,r12,r8
8000d0e4:	f0 0b 11 20 	rsub	r11,r8,32
8000d0e8:	f4 08 09 4e 	lsl	lr,r10,r8
8000d0ec:	f4 0b 0a 4b 	lsr	r11,r10,r11
8000d0f0:	f7 e6 10 06 	or	r6,r11,r6
8000d0f4:	c4 18       	rjmp	8000d176 <__avr32_umod64+0xbc>
8000d0f6:	58 08       	cp.w	r8,0
8000d0f8:	c0 51       	brne	8000d102 <__avr32_umod64+0x48>
8000d0fa:	30 19       	mov	r9,1
8000d0fc:	f2 08 0d 08 	divu	r8,r9,r8
8000d100:	10 9c       	mov	r12,r8
8000d102:	f8 08 12 00 	clz	r8,r12
8000d106:	c0 31       	brne	8000d10c <__avr32_umod64+0x52>
8000d108:	18 16       	sub	r6,r12
8000d10a:	c3 68       	rjmp	8000d176 <__avr32_umod64+0xbc>
8000d10c:	f0 03 11 20 	rsub	r3,r8,32
8000d110:	f4 03 0a 4b 	lsr	r11,r10,r3
8000d114:	f8 08 09 4c 	lsl	r12,r12,r8
8000d118:	ec 08 09 49 	lsl	r9,r6,r8
8000d11c:	ec 03 0a 43 	lsr	r3,r6,r3
8000d120:	f7 e9 10 09 	or	r9,r11,r9
8000d124:	f8 05 16 10 	lsr	r5,r12,0x10
8000d128:	ed dc c0 10 	bfextu	r6,r12,0x0,0x10
8000d12c:	e6 05 0d 02 	divu	r2,r3,r5
8000d130:	f2 0e 16 10 	lsr	lr,r9,0x10
8000d134:	ec 02 02 4b 	mul	r11,r6,r2
8000d138:	fd e3 11 0e 	or	lr,lr,r3<<0x10
8000d13c:	16 3e       	cp.w	lr,r11
8000d13e:	c0 72       	brcc	8000d14c <__avr32_umod64+0x92>
8000d140:	18 0e       	add	lr,r12
8000d142:	18 3e       	cp.w	lr,r12
8000d144:	c0 43       	brcs	8000d14c <__avr32_umod64+0x92>
8000d146:	16 3e       	cp.w	lr,r11
8000d148:	fd dc e3 0e 	addcs	lr,lr,r12
8000d14c:	fc 0b 01 03 	sub	r3,lr,r11
8000d150:	f3 d9 c0 10 	bfextu	r9,r9,0x0,0x10
8000d154:	e6 05 0d 02 	divu	r2,r3,r5
8000d158:	f3 e3 11 09 	or	r9,r9,r3<<0x10
8000d15c:	a5 36       	mul	r6,r2
8000d15e:	0c 39       	cp.w	r9,r6
8000d160:	c0 72       	brcc	8000d16e <__avr32_umod64+0xb4>
8000d162:	18 09       	add	r9,r12
8000d164:	18 39       	cp.w	r9,r12
8000d166:	c0 43       	brcs	8000d16e <__avr32_umod64+0xb4>
8000d168:	0c 39       	cp.w	r9,r6
8000d16a:	f3 dc e3 09 	addcs	r9,r9,r12
8000d16e:	f2 06 01 06 	sub	r6,r9,r6
8000d172:	f4 08 09 4e 	lsl	lr,r10,r8
8000d176:	f8 0a 16 10 	lsr	r10,r12,0x10
8000d17a:	eb dc c0 10 	bfextu	r5,r12,0x0,0x10
8000d17e:	ec 0a 0d 02 	divu	r2,r6,r10
8000d182:	fc 09 16 10 	lsr	r9,lr,0x10
8000d186:	ea 02 02 4b 	mul	r11,r5,r2
8000d18a:	f3 e3 11 09 	or	r9,r9,r3<<0x10
8000d18e:	16 39       	cp.w	r9,r11
8000d190:	c0 72       	brcc	8000d19e <__avr32_umod64+0xe4>
8000d192:	18 09       	add	r9,r12
8000d194:	18 39       	cp.w	r9,r12
8000d196:	c0 43       	brcs	8000d19e <__avr32_umod64+0xe4>
8000d198:	16 39       	cp.w	r9,r11
8000d19a:	f3 dc e3 09 	addcs	r9,r9,r12
8000d19e:	f2 0b 01 0b 	sub	r11,r9,r11
8000d1a2:	fd de c0 10 	bfextu	lr,lr,0x0,0x10
8000d1a6:	f6 0a 0d 0a 	divu	r10,r11,r10
8000d1aa:	fd eb 11 0e 	or	lr,lr,r11<<0x10
8000d1ae:	ea 0a 02 4a 	mul	r10,r5,r10
8000d1b2:	14 3e       	cp.w	lr,r10
8000d1b4:	c0 72       	brcc	8000d1c2 <__avr32_umod64+0x108>
8000d1b6:	18 0e       	add	lr,r12
8000d1b8:	18 3e       	cp.w	lr,r12
8000d1ba:	c0 43       	brcs	8000d1c2 <__avr32_umod64+0x108>
8000d1bc:	14 3e       	cp.w	lr,r10
8000d1be:	fd dc e3 0e 	addcs	lr,lr,r12
8000d1c2:	fc 0a 01 0a 	sub	r10,lr,r10
8000d1c6:	30 0b       	mov	r11,0
8000d1c8:	f4 08 0a 4a 	lsr	r10,r10,r8
8000d1cc:	c7 b8       	rjmp	8000d2c2 <__avr32_umod64+0x208>
8000d1ce:	16 39       	cp.w	r9,r11
8000d1d0:	e0 8b 00 79 	brhi	8000d2c2 <__avr32_umod64+0x208>
8000d1d4:	f2 09 12 00 	clz	r9,r9
8000d1d8:	c1 21       	brne	8000d1fc <__avr32_umod64+0x142>
8000d1da:	10 3a       	cp.w	r10,r8
8000d1dc:	5f 2b       	srhs	r11
8000d1de:	0a 31       	cp.w	r1,r5
8000d1e0:	5f ba       	srhi	r10
8000d1e2:	f7 ea 10 0a 	or	r10,r11,r10
8000d1e6:	f2 0a 18 00 	cp.b	r10,r9
8000d1ea:	c0 60       	breq	8000d1f6 <__avr32_umod64+0x13c>
8000d1ec:	fc 08 01 0c 	sub	r12,lr,r8
8000d1f0:	e2 05 01 46 	sbc	r6,r1,r5
8000d1f4:	18 9e       	mov	lr,r12
8000d1f6:	0c 9b       	mov	r11,r6
8000d1f8:	1c 9a       	mov	r10,lr
8000d1fa:	c6 48       	rjmp	8000d2c2 <__avr32_umod64+0x208>
8000d1fc:	ea 09 09 4c 	lsl	r12,r5,r9
8000d200:	f2 06 11 20 	rsub	r6,r9,32
8000d204:	f6 09 09 4b 	lsl	r11,r11,r9
8000d208:	f0 09 09 42 	lsl	r2,r8,r9
8000d20c:	ef 46 ff f4 	st.w	r7[-12],r6
8000d210:	f0 06 0a 48 	lsr	r8,r8,r6
8000d214:	18 48       	or	r8,r12
8000d216:	e2 06 0a 4c 	lsr	r12,r1,r6
8000d21a:	f4 09 09 43 	lsl	r3,r10,r9
8000d21e:	fd d8 c0 10 	bfextu	lr,r8,0x0,0x10
8000d222:	f4 06 0a 4a 	lsr	r10,r10,r6
8000d226:	16 4a       	or	r10,r11
8000d228:	f0 0b 16 10 	lsr	r11,r8,0x10
8000d22c:	f8 0b 0d 04 	divu	r4,r12,r11
8000d230:	f4 0c 16 10 	lsr	r12,r10,0x10
8000d234:	08 91       	mov	r1,r4
8000d236:	f9 e5 11 0c 	or	r12,r12,r5<<0x10
8000d23a:	e8 0e 02 46 	mul	r6,r4,lr
8000d23e:	0c 3c       	cp.w	r12,r6
8000d240:	c0 a2       	brcc	8000d254 <__avr32_umod64+0x19a>
8000d242:	20 11       	sub	r1,1
8000d244:	10 0c       	add	r12,r8
8000d246:	10 3c       	cp.w	r12,r8
8000d248:	c0 63       	brcs	8000d254 <__avr32_umod64+0x19a>
8000d24a:	0c 3c       	cp.w	r12,r6
8000d24c:	f7 b1 03 01 	sublo	r1,1
8000d250:	f9 d8 e3 0c 	addcs	r12,r12,r8
8000d254:	0c 1c       	sub	r12,r6
8000d256:	f5 da c0 10 	bfextu	r10,r10,0x0,0x10
8000d25a:	f8 0b 0d 04 	divu	r4,r12,r11
8000d25e:	f5 e5 11 0b 	or	r11,r10,r5<<0x10
8000d262:	08 96       	mov	r6,r4
8000d264:	e8 0e 02 4e 	mul	lr,r4,lr
8000d268:	1c 3b       	cp.w	r11,lr
8000d26a:	c0 a2       	brcc	8000d27e <__avr32_umod64+0x1c4>
8000d26c:	20 16       	sub	r6,1
8000d26e:	10 0b       	add	r11,r8
8000d270:	10 3b       	cp.w	r11,r8
8000d272:	c0 63       	brcs	8000d27e <__avr32_umod64+0x1c4>
8000d274:	1c 3b       	cp.w	r11,lr
8000d276:	f7 b6 03 01 	sublo	r6,1
8000d27a:	f7 d8 e3 0b 	addcs	r11,r11,r8
8000d27e:	ed e1 11 01 	or	r1,r6,r1<<0x10
8000d282:	1c 1b       	sub	r11,lr
8000d284:	e2 02 06 40 	mulu.d	r0,r1,r2
8000d288:	00 9e       	mov	lr,r0
8000d28a:	02 9c       	mov	r12,r1
8000d28c:	16 3c       	cp.w	r12,r11
8000d28e:	e0 8b 00 08 	brhi	8000d29e <__avr32_umod64+0x1e4>
8000d292:	5f 06       	sreq	r6
8000d294:	06 30       	cp.w	r0,r3
8000d296:	5f ba       	srhi	r10
8000d298:	ed ea 00 0a 	and	r10,r6,r10
8000d29c:	c0 60       	breq	8000d2a8 <__avr32_umod64+0x1ee>
8000d29e:	fc 02 01 04 	sub	r4,lr,r2
8000d2a2:	f8 08 01 4c 	sbc	r12,r12,r8
8000d2a6:	08 9e       	mov	lr,r4
8000d2a8:	e6 0e 01 0a 	sub	r10,r3,lr
8000d2ac:	f6 0c 01 4c 	sbc	r12,r11,r12
8000d2b0:	ee f1 ff f4 	ld.w	r1,r7[-12]
8000d2b4:	f8 09 0a 4b 	lsr	r11,r12,r9
8000d2b8:	f4 09 0a 4a 	lsr	r10,r10,r9
8000d2bc:	f8 01 09 4c 	lsl	r12,r12,r1
8000d2c0:	18 4a       	or	r10,r12
8000d2c2:	2f dd       	sub	sp,-12
8000d2c4:	d8 32       	popm	r0-r7,pc

Disassembly of section .exception:

8000d400 <_evba>:
8000d400:	c0 08       	rjmp	8000d400 <_evba>
	...

8000d404 <_handle_TLB_Multiple_Hit>:
8000d404:	c0 08       	rjmp	8000d404 <_handle_TLB_Multiple_Hit>
	...

8000d408 <_handle_Bus_Error_Data_Fetch>:
8000d408:	c0 08       	rjmp	8000d408 <_handle_Bus_Error_Data_Fetch>
	...

8000d40c <_handle_Bus_Error_Instruction_Fetch>:
8000d40c:	c0 08       	rjmp	8000d40c <_handle_Bus_Error_Instruction_Fetch>
	...

8000d410 <_handle_NMI>:
8000d410:	c0 08       	rjmp	8000d410 <_handle_NMI>
	...

8000d414 <_handle_Instruction_Address>:
8000d414:	c0 08       	rjmp	8000d414 <_handle_Instruction_Address>
	...

8000d418 <_handle_ITLB_Protection>:
8000d418:	c0 08       	rjmp	8000d418 <_handle_ITLB_Protection>
	...

8000d41c <_handle_Breakpoint>:
8000d41c:	c0 08       	rjmp	8000d41c <_handle_Breakpoint>
	...

8000d420 <_handle_Illegal_Opcode>:
8000d420:	c0 08       	rjmp	8000d420 <_handle_Illegal_Opcode>
	...

8000d424 <_handle_Unimplemented_Instruction>:
8000d424:	c0 08       	rjmp	8000d424 <_handle_Unimplemented_Instruction>
	...

8000d428 <_handle_Privilege_Violation>:
8000d428:	c0 08       	rjmp	8000d428 <_handle_Privilege_Violation>
	...

8000d42c <_handle_Floating_Point>:
8000d42c:	c0 08       	rjmp	8000d42c <_handle_Floating_Point>
	...

8000d430 <_handle_Coprocessor_Absent>:
8000d430:	c0 08       	rjmp	8000d430 <_handle_Coprocessor_Absent>
	...

8000d434 <_handle_Data_Address_Read>:
8000d434:	c0 08       	rjmp	8000d434 <_handle_Data_Address_Read>
	...

8000d438 <_handle_Data_Address_Write>:
8000d438:	c0 08       	rjmp	8000d438 <_handle_Data_Address_Write>
	...

8000d43c <_handle_DTLB_Protection_Read>:
8000d43c:	c0 08       	rjmp	8000d43c <_handle_DTLB_Protection_Read>
	...

8000d440 <_handle_DTLB_Protection_Write>:
8000d440:	c0 08       	rjmp	8000d440 <_handle_DTLB_Protection_Write>
	...

8000d444 <_handle_DTLB_Modified>:
8000d444:	c0 08       	rjmp	8000d444 <_handle_DTLB_Modified>
	...

8000d450 <_handle_ITLB_Miss>:
8000d450:	c0 08       	rjmp	8000d450 <_handle_ITLB_Miss>
	...

8000d460 <_handle_DTLB_Miss_Read>:
8000d460:	c0 08       	rjmp	8000d460 <_handle_DTLB_Miss_Read>
	...

8000d470 <_handle_DTLB_Miss_Write>:
8000d470:	c0 08       	rjmp	8000d470 <_handle_DTLB_Miss_Write>
	...

8000d500 <_handle_Supervisor_Call>:
8000d500:	c0 08       	rjmp	8000d500 <_handle_Supervisor_Call>
8000d502:	d7 03       	nop

8000d504 <_int0>:
8000d504:	30 0c       	mov	r12,0
8000d506:	fe b0 af 41 	rcall	80003388 <_get_interrupt_handler>
8000d50a:	58 0c       	cp.w	r12,0
8000d50c:	f8 0f 17 10 	movne	pc,r12
8000d510:	d6 03       	rete

8000d512 <_int1>:
8000d512:	30 1c       	mov	r12,1
8000d514:	fe b0 af 3a 	rcall	80003388 <_get_interrupt_handler>
8000d518:	58 0c       	cp.w	r12,0
8000d51a:	f8 0f 17 10 	movne	pc,r12
8000d51e:	d6 03       	rete

8000d520 <_int2>:
8000d520:	30 2c       	mov	r12,2
8000d522:	fe b0 af 33 	rcall	80003388 <_get_interrupt_handler>
8000d526:	58 0c       	cp.w	r12,0
8000d528:	f8 0f 17 10 	movne	pc,r12
8000d52c:	d6 03       	rete

8000d52e <_int3>:
8000d52e:	30 3c       	mov	r12,3
8000d530:	fe b0 af 2c 	rcall	80003388 <_get_interrupt_handler>
8000d534:	58 0c       	cp.w	r12,0
8000d536:	f8 0f 17 10 	movne	pc,r12
8000d53a:	d6 03       	rete
8000d53c:	d7 03       	nop
8000d53e:	d7 03       	nop
8000d540:	d7 03       	nop
8000d542:	d7 03       	nop
8000d544:	d7 03       	nop
8000d546:	d7 03       	nop
8000d548:	d7 03       	nop
8000d54a:	d7 03       	nop
8000d54c:	d7 03       	nop
8000d54e:	d7 03       	nop
8000d550:	d7 03       	nop
8000d552:	d7 03       	nop
8000d554:	d7 03       	nop
8000d556:	d7 03       	nop
8000d558:	d7 03       	nop
8000d55a:	d7 03       	nop
8000d55c:	d7 03       	nop
8000d55e:	d7 03       	nop
8000d560:	d7 03       	nop
8000d562:	d7 03       	nop
8000d564:	d7 03       	nop
8000d566:	d7 03       	nop
8000d568:	d7 03       	nop
8000d56a:	d7 03       	nop
8000d56c:	d7 03       	nop
8000d56e:	d7 03       	nop
8000d570:	d7 03       	nop
8000d572:	d7 03       	nop
8000d574:	d7 03       	nop
8000d576:	d7 03       	nop
8000d578:	d7 03       	nop
8000d57a:	d7 03       	nop
8000d57c:	d7 03       	nop
8000d57e:	d7 03       	nop
8000d580:	d7 03       	nop
8000d582:	d7 03       	nop
8000d584:	d7 03       	nop
8000d586:	d7 03       	nop
8000d588:	d7 03       	nop
8000d58a:	d7 03       	nop
8000d58c:	d7 03       	nop
8000d58e:	d7 03       	nop
8000d590:	d7 03       	nop
8000d592:	d7 03       	nop
8000d594:	d7 03       	nop
8000d596:	d7 03       	nop
8000d598:	d7 03       	nop
8000d59a:	d7 03       	nop
8000d59c:	d7 03       	nop
8000d59e:	d7 03       	nop
8000d5a0:	d7 03       	nop
8000d5a2:	d7 03       	nop
8000d5a4:	d7 03       	nop
8000d5a6:	d7 03       	nop
8000d5a8:	d7 03       	nop
8000d5aa:	d7 03       	nop
8000d5ac:	d7 03       	nop
8000d5ae:	d7 03       	nop
8000d5b0:	d7 03       	nop
8000d5b2:	d7 03       	nop
8000d5b4:	d7 03       	nop
8000d5b6:	d7 03       	nop
8000d5b8:	d7 03       	nop
8000d5ba:	d7 03       	nop
8000d5bc:	d7 03       	nop
8000d5be:	d7 03       	nop
8000d5c0:	d7 03       	nop
8000d5c2:	d7 03       	nop
8000d5c4:	d7 03       	nop
8000d5c6:	d7 03       	nop
8000d5c8:	d7 03       	nop
8000d5ca:	d7 03       	nop
8000d5cc:	d7 03       	nop
8000d5ce:	d7 03       	nop
8000d5d0:	d7 03       	nop
8000d5d2:	d7 03       	nop
8000d5d4:	d7 03       	nop
8000d5d6:	d7 03       	nop
8000d5d8:	d7 03       	nop
8000d5da:	d7 03       	nop
8000d5dc:	d7 03       	nop
8000d5de:	d7 03       	nop
8000d5e0:	d7 03       	nop
8000d5e2:	d7 03       	nop
8000d5e4:	d7 03       	nop
8000d5e6:	d7 03       	nop
8000d5e8:	d7 03       	nop
8000d5ea:	d7 03       	nop
8000d5ec:	d7 03       	nop
8000d5ee:	d7 03       	nop
8000d5f0:	d7 03       	nop
8000d5f2:	d7 03       	nop
8000d5f4:	d7 03       	nop
8000d5f6:	d7 03       	nop
8000d5f8:	d7 03       	nop
8000d5fa:	d7 03       	nop
8000d5fc:	d7 03       	nop
8000d5fe:	d7 03       	nop
